

HI-TECH Software PIC LITE Macro Assembler V9.83 build 10920 
                                                                                               Wed Jul 22 16:16:15 2015

HI-TECH Software Omniscient Code Generator (Lite mode) build 10920
     1  0000                     opt subtitle "HI-TECH Software Omniscient Code Generator (Lite mode) build 10920"
     2                           
     3                           opt pagewidth 120
     4                           
     5                           	opt lm
     6                           
     7                           	processor	16F877A
     8                           clrc	macro
     9                           	bcf	3,0
    10  0000                     	endm
    11                           clrz	macro
    12                           	bcf	3,2
    13  0000                     	endm
    14                           setc	macro
    15                           	bsf	3,0
    16  0000                     	endm
    17                           setz	macro
    18                           	bsf	3,2
    19  0000                     	endm
    20                           skipc	macro
    21                           	btfss	3,0
    22  0000                     	endm
    23                           skipz	macro
    24                           	btfss	3,2
    25  0000                     	endm
    26                           skipnc	macro
    27                           	btfsc	3,0
    28  0000                     	endm
    29                           skipnz	macro
    30                           	btfsc	3,2
    31  0000                     	endm
    32  0000                     indf	equ	0
    33  0000                     indf0	equ	0
    34  0002                     pc	equ	2
    35  0002                     pcl	equ	2
    36  0003                     status	equ	3
    37  0004                     fsr	equ	4
    38  0004                     fsr0	equ	4
    39  0001                     c	equ	1
    40  0000                     z	equ	0
    41  000A                     pclath	equ	10
    42                           # 21 "../../Source file/PR31_final.c"
    43                           	psect config,class=CONFIG,delta=2 ;#
    44                           # 21 "../../Source file/PR31_final.c"
    45  2007  3F32               	dw 0x3F32 ;#
    46                           	FNCALL	_main,_delay
    47                           	FNCALL	_main,_send_config
    48                           	FNCALL	_main,_uart_init
    49                           	FNCALL	_main,_ar_i2c_initialize
    50                           	FNCALL	_main,_ar1000_init
    51                           	FNCALL	_main,_send_string
    52                           	FNCALL	_main,_lcd_goto
    53                           	FNCALL	_main,_uart_sendstr
    54                           	FNCALL	_main,_set_vol
    55                           	FNCALL	_main,_lcd_clr
    56                           	FNCALL	_main,_eeprom_read
    57                           	FNCALL	_main,_eprom_write
    58                           	FNCALL	_main,_switch_channel
    59                           	FNCALL	_main,_adjust_channel
    60                           	FNCALL	_main,_adjust_vol
    61                           	FNCALL	_adjust_channel,_decrease_chan
    62                           	FNCALL	_adjust_channel,_delay
    63                           	FNCALL	_adjust_channel,_increase_chan
    64                           	FNCALL	_adjust_channel,_eprom_write
    65                           	FNCALL	_adjust_channel,_lcd_clr
    66                           	FNCALL	_adjust_channel,_send_string
    67                           	FNCALL	_adjust_channel,_uart_sendstr
    68                           	FNCALL	_adjust_channel,_send_char
    69                           	FNCALL	_adjust_channel,_uart_tx
    70                           	FNCALL	_adjust_channel,_send_dec
    71                           	FNCALL	_adjust_channel,_switch_channel
    72                           	FNCALL	_adjust_channel,_lcd_goto
    73                           	FNCALL	_adjust_channel,_adjust_vol
    74                           	FNCALL	_increase_chan,_setAR1000
    75                           	FNCALL	_increase_chan,_uart_tx
    76                           	FNCALL	_increase_chan,_uart_sendstr
    77                           	FNCALL	_increase_chan,_send_dec
    78                           	FNCALL	_increase_chan,_delay
    79                           	FNCALL	_decrease_chan,_setAR1000
    80                           	FNCALL	_decrease_chan,_uart_tx
    81                           	FNCALL	_decrease_chan,_uart_sendstr
    82                           	FNCALL	_decrease_chan,_send_dec
    83                           	FNCALL	_decrease_chan,_delay
    84                           	FNCALL	_switch_channel,_lcd_clr
    85                           	FNCALL	_switch_channel,_send_string
    86                           	FNCALL	_switch_channel,_uart_tx
    87                           	FNCALL	_switch_channel,_uart_sendstr
    88                           	FNCALL	_switch_channel,_send_char
    89                           	FNCALL	_switch_channel,_eprom_read
    90                           	FNCALL	_switch_channel,_setAR1000
    91                           	FNCALL	_switch_channel,_send_dec
    92                           	FNCALL	_send_dec,___lldiv
    93                           	FNCALL	_send_dec,___llmod
    94                           	FNCALL	_send_dec,_lcd_goto
    95                           	FNCALL	_send_dec,_send_string
    96                           	FNCALL	_send_dec,_uart_sendstr
    97                           	FNCALL	_send_dec,_send_char
    98                           	FNCALL	_send_dec,_uart_tx
    99                           	FNCALL	_send_dec,_delay
   100                           	FNCALL	_adjust_vol,_lcd_goto
   101                           	FNCALL	_adjust_vol,_send_char
   102                           	FNCALL	_adjust_vol,_uart_tx
   103                           	FNCALL	_adjust_vol,_delay
   104                           	FNCALL	_adjust_vol,_set_vol
   105                           	FNCALL	_lcd_clr,_send_config
   106                           	FNCALL	_lcd_clr,_delay
   107                           	FNCALL	_lcd_goto,_send_config
   108                           	FNCALL	_send_string,_send_char
   109                           	FNCALL	_send_char,_delay
   110                           	FNCALL	_send_char,_e_pulse
   111                           	FNCALL	_send_config,_delay
   112                           	FNCALL	_send_config,_e_pulse
   113                           	FNCALL	_e_pulse,_delay
   114                           	FNCALL	_setAR1000,_ar_i2c_write
   115                           	FNCALL	_setAR1000,_ar_i2c_read
   116                           	FNCALL	_setAR1000,_delay
   117                           	FNCALL	_set_vol,_ar_i2c_write
   118                           	FNCALL	_uart_sendstr,_uart_tx
   119                           	FNCALL	_ar1000_init,_delay
   120                           	FNCALL	_ar1000_init,_ar_i2c_write
   121                           	FNCALL	_ar1000_init,_ar_i2c_read
   122                           	FNCALL	_uart_init,_uart_tx
   123                           	FNROOT	_main
   124                           	global	_v2
   125                           	global	_prog_chan
   126                           	global	_v1
   127                           	global	_register_values
   128                           psect	idataBANK0,class=CODE,space=0,delta=2
   129                           global __pidataBANK0
   130  0B20                     __pidataBANK0:
   131                           	file	"../../Source file/PR31_final.c"
   132                           	line	80
   133                           
   134                           ;initializer for _v2
   135  0B20  3400               	retlw	0
   136  0B21  340F               	retlw	0Fh
   137  0B22  340D               	retlw	0Dh
   138  0B23  340E               	retlw	0Eh
   139  0B24  340F               	retlw	0Fh
   140  0B25  340E               	retlw	0Eh
   141  0B26  340F               	retlw	0Fh
   142  0B27  340F               	retlw	0Fh
   143  0B28  340F               	retlw	0Fh
   144  0B29  340F               	retlw	0Fh
   145                           	line	55
   146                           
   147                           ;initializer for _prog_chan
   148  0B2A  3438               	retlw	038h
   149  0B2B  3484               	retlw	084h
   150  0B2C  34B2               	retlw	0B2h
   151  0B2D  34C8               	retlw	0C8h
   152  0B2E  34EE               	retlw	0EEh
   153  0B2F  3415               	retlw	015h
   154  0B30  3435               	retlw	035h
   155                           psect	idataBANK1,class=CODE,space=0,delta=2
   156                           global __pidataBANK1
   157  0C99                     __pidataBANK1:
   158                           	line	82
   159                           
   160                           ;initializer for _v1
   161  0C99  3400               	retlw	0
   162  0C9A  3407               	retlw	07h
   163  0C9B  3406               	retlw	06h
   164  0C9C  3406               	retlw	06h
   165  0C9D  3406               	retlw	06h
   166  0C9E  3403               	retlw	03h
   167  0C9F  3403               	retlw	03h
   168  0CA0  3402               	retlw	02h
   169  0CA1  3401               	retlw	01h
   170  0CA2  3400               	retlw	0
   171                           	line	58
   172                           
   173                           ;initializer for _register_values
   174  0CA3  34FF               	retlw	0FFh
   175  0CA4  34FF               	retlw	0FFh
   176                           
   177  0CA5  3415               	retlw	015h
   178  0CA6  345B               	retlw	05Bh
   179                           
   180  0CA7  34B9               	retlw	0B9h
   181  0CA8  34F4               	retlw	0F4h
   182                           
   183  0CA9  3412               	retlw	012h
   184  0CAA  3480               	retlw	080h
   185                           
   186  0CAB  3400               	retlw	0
   187  0CAC  3404               	retlw	04h
   188                           
   189  0CAD  34AA               	retlw	0AAh
   190  0CAE  3428               	retlw	028h
   191                           
   192  0CAF  3400               	retlw	0
   193  0CB0  3444               	retlw	044h
   194                           
   195  0CB1  34E7               	retlw	0E7h
   196  0CB2  341E               	retlw	01Eh
   197                           
   198  0CB3  3441               	retlw	041h
   199  0CB4  3471               	retlw	071h
   200                           
   201  0CB5  347D               	retlw	07Dh
   202  0CB6  3400               	retlw	0
   203                           
   204  0CB7  34C6               	retlw	0C6h
   205  0CB8  3482               	retlw	082h
   206                           
   207  0CB9  3455               	retlw	055h
   208  0CBA  344F               	retlw	04Fh
   209                           
   210  0CBB  340C               	retlw	0Ch
   211  0CBC  3497               	retlw	097h
   212                           
   213  0CBD  3445               	retlw	045h
   214  0CBE  34B8               	retlw	0B8h
   215                           
   216  0CBF  342D               	retlw	02Dh
   217  0CC0  34FC               	retlw	0FCh
   218                           
   219  0CC1  3497               	retlw	097h
   220  0CC2  3480               	retlw	080h
   221                           
   222  0CC3  34A1               	retlw	0A1h
   223  0CC4  3404               	retlw	04h
   224                           
   225  0CC5  346A               	retlw	06Ah
   226  0CC6  34DF               	retlw	0DFh
   227                           
   228                           	global	_currentChannel
   229                           	global	_freq_kHz
   230                           	global	_STC
   231                           	global	_i
   232                           	global	_m
   233                           	global	_vol
   234                           	global	_PORTA
   235  0005                     _PORTA	set	5
   236                           	global	_PORTB
   237  0006                     _PORTB	set	6
   238                           	global	_PORTD
   239  0008                     _PORTD	set	8
   240                           	global	_RCREG
   241  001A                     _RCREG	set	26
   242                           	global	_SSPBUF
   243  0013                     _SSPBUF	set	19
   244                           	global	_TXREG
   245  0019                     _TXREG	set	25
   246                           	global	_CARRY
   247  0018                     _CARRY	set	24
   248                           	global	_CREN
   249  00C4                     _CREN	set	196
   250                           	global	_GIE
   251  005F                     _GIE	set	95
   252                           	global	_OERR
   253  00C1                     _OERR	set	193
   254                           	global	_RB0
   255  0030                     _RB0	set	48
   256                           	global	_RB1
   257  0031                     _RB1	set	49
   258                           	global	_RB2
   259  0032                     _RB2	set	50
   260                           	global	_RB3
   261  0033                     _RB3	set	51
   262                           	global	_RB4
   263  0034                     _RB4	set	52
   264                           	global	_RB5
   265  0035                     _RB5	set	53
   266                           	global	_RCIF
   267  0065                     _RCIF	set	101
   268                           	global	_SPEN
   269  00C7                     _SPEN	set	199
   270                           	global	_SSPEN
   271  00A5                     _SSPEN	set	165
   272                           	global	_SSPM0
   273  00A0                     _SSPM0	set	160
   274                           	global	_SSPM1
   275  00A1                     _SSPM1	set	161
   276                           	global	_SSPM2
   277  00A2                     _SSPM2	set	162
   278                           	global	_SSPM3
   279  00A3                     _SSPM3	set	163
   280                           	global	_SSPOV
   281  00A6                     _SSPOV	set	166
   282                           	global	_TXIF
   283  0064                     _TXIF	set	100
   284                           	global	_WCOL
   285  00A7                     _WCOL	set	167
   286                           	global	_SPBRG
   287  0099                     _SPBRG	set	153
   288                           	global	_SSPADD
   289  0093                     _SSPADD	set	147
   290                           	global	_TRISA
   291  0085                     _TRISA	set	133
   292                           	global	_TRISB
   293  0086                     _TRISB	set	134
   294                           	global	_TRISD
   295  0088                     _TRISD	set	136
   296                           	global	_ACKDT
   297  048D                     _ACKDT	set	1165
   298                           	global	_ACKEN
   299  048C                     _ACKEN	set	1164
   300                           	global	_ACKSTAT
   301  048E                     _ACKSTAT	set	1166
   302                           	global	_BF
   303  04A0                     _BF	set	1184
   304                           	global	_BRGH
   305  04C2                     _BRGH	set	1218
   306                           	global	_PEN
   307  048A                     _PEN	set	1162
   308                           	global	_RCEN
   309  048B                     _RCEN	set	1163
   310                           	global	_RSEN
   311  0489                     _RSEN	set	1161
   312                           	global	_R_W
   313  04A2                     _R_W	set	1186
   314                           	global	_SEN
   315  0488                     _SEN	set	1160
   316                           	global	_TRISC3
   317  043B                     _TRISC3	set	1083
   318                           	global	_TRISC4
   319  043C                     _TRISC4	set	1084
   320                           	global	_TRISC6
   321  043E                     _TRISC6	set	1086
   322                           	global	_TRISC7
   323  043F                     _TRISC7	set	1087
   324                           	global	_TXEN
   325  04C5                     _TXEN	set	1221
   326                           	global	_EEADR
   327  010D                     _EEADR	set	269
   328                           	global	_EEDATA
   329  010C                     _EEDATA	set	268
   330                           	global	_EECON1
   331  018C                     _EECON1	set	396
   332                           	global	_EECON2
   333  018D                     _EECON2	set	397
   334                           	global	_EEPGD
   335  0C67                     _EEPGD	set	3175
   336                           	global	_RD
   337  0C60                     _RD	set	3168
   338                           	global	_WR
   339  0C61                     _WR	set	3169
   340                           	global	_WREN
   341  0C62                     _WREN	set	3170
   342                           psect	strings,class=STRING,delta=2
   343                           global __pstrings
   344  0800                     __pstrings:
   345                           ;	global	stringdir,stringtab,__stringbase
   346  0800                     stringtab:
   347                           ;	String table - string pointers are 1 byte each
   348  0800                     stringcode:stringdir:
      + 0800                     stringdir:	
   349  0800  3008               movlw high(stringdir)
   350  0801  008A               movwf pclath
   351  0802  0804               movf fsr,w
   352  0803  0A84               incf fsr
   353  0804  0782               	addwf pc
   354  0805                     __stringbase:
   355  0805  3400               	retlw	0
   356                           psect	strings
   357                           	
   358  0806                     STR_3:	
   359  0806  3450               	retlw	80	;'P'
   360  0807  3452               	retlw	82	;'R'
   361  0808  3433               	retlw	51	;'3'
   362  0809  3431               	retlw	49	;'1'
   363  080A  3420               	retlw	32	;' '
   364  080B  343D               	retlw	61	;'='
   365  080C  3420               	retlw	32	;' '
   366  080D  3444               	retlw	68	;'D'
   367  080E  3469               	retlw	105	;'i'
   368  080F  3467               	retlw	103	;'g'
   369  0810  3469               	retlw	105	;'i'
   370  0811  3474               	retlw	116	;'t'
   371  0812  3461               	retlw	97	;'a'
   372  0813  346C               	retlw	108	;'l'
   373  0814  3420               	retlw	32	;' '
   374  0815  3452               	retlw	82	;'R'
   375  0816  3461               	retlw	97	;'a'
   376  0817  3464               	retlw	100	;'d'
   377  0818  3469               	retlw	105	;'i'
   378  0819  346F               	retlw	111	;'o'
   379  081A  3400               	retlw	0
   380                           psect	strings
   381                           	
   382  081B                     STR_8:	
   383  081B  3476               	retlw	118	;'v'
   384  081C  346F               	retlw	111	;'o'
   385  081D  346C               	retlw	108	;'l'
   386  081E  3475               	retlw	117	;'u'
   387  081F  346D               	retlw	109	;'m'
   388  0820  3465               	retlw	101	;'e'
   389  0821  3420               	retlw	32	;' '
   390  0822  346C               	retlw	108	;'l'
   391  0823  3465               	retlw	101	;'e'
   392  0824  3476               	retlw	118	;'v'
   393  0825  3465               	retlw	101	;'e'
   394  0826  346C               	retlw	108	;'l'
   395  0827  343D               	retlw	61	;'='
   396  0828  3420               	retlw	32	;' '
   397  0829  3420               	retlw	32	;' '
   398  082A  3420               	retlw	32	;' '
   399  082B  3400               	retlw	0
   400                           psect	strings
   401                           	
   402  082C                     STR_4:	
   403  082C  3473               	retlw	115	;'s'
   404  082D  3477               	retlw	119	;'w'
   405  082E  3431               	retlw	49	;'1'
   406  082F  343D               	retlw	61	;'='
   407  0830  3463               	retlw	99	;'c'
   408  0831  3468               	retlw	104	;'h'
   409  0832  3461               	retlw	97	;'a'
   410  0833  346E               	retlw	110	;'n'
   411  0834  3420               	retlw	32	;' '
   412  0835  3473               	retlw	115	;'s'
   413  0836  3477               	retlw	119	;'w'
   414  0837  3432               	retlw	50	;'2'
   415  0838  343D               	retlw	61	;'='
   416  0839  3476               	retlw	118	;'v'
   417  083A  346F               	retlw	111	;'o'
   418  083B  346C               	retlw	108	;'l'
   419  083C  3400               	retlw	0
   420                           psect	strings
   421                           	
   422  083D                     STR_6:	
   423  083D  3473               	retlw	115	;'s'
   424  083E  3477               	retlw	119	;'w'
   425  083F  3431               	retlw	49	;'1'
   426  0840  3428               	retlw	40	;'('
   427  0841  3431               	retlw	49	;'1'
   428  0842  3473               	retlw	115	;'s'
   429  0843  3429               	retlw	41	;')'
   430  0844  343D               	retlw	61	;'='
   431  0845  3473               	retlw	115	;'s'
   432  0846  3465               	retlw	101	;'e'
   433  0847  3474               	retlw	116	;'t'
   434  0848  3400               	retlw	0
   435                           psect	strings
   436                           	
   437  0849                     STR_11:	
   438  0849  3443               	retlw	67	;'C'
   439  084A  3468               	retlw	104	;'h'
   440  084B  3461               	retlw	97	;'a'
   441  084C  346E               	retlw	110	;'n'
   442  084D  346E               	retlw	110	;'n'
   443  084E  3465               	retlw	101	;'e'
   444  084F  346C               	retlw	108	;'l'
   445  0850  3420               	retlw	32	;' '
   446  0851  3400               	retlw	0
   447                           psect	strings
   448                           	
   449  0852                     STR_10:	
   450  0852  3463               	retlw	99	;'c'
   451  0853  3468               	retlw	104	;'h'
   452  0854  3461               	retlw	97	;'a'
   453  0855  346E               	retlw	110	;'n'
   454  0856  346E               	retlw	110	;'n'
   455  0857  3465               	retlw	101	;'e'
   456  0858  346C               	retlw	108	;'l'
   457  0859  3420               	retlw	32	;' '
   458  085A  3400               	retlw	0
   459                           psect	strings
   460                           	
   461  085B                     STR_14:	
   462  085B  3420               	retlw	32	;' '
   463  085C  3473               	retlw	115	;'s'
   464  085D  3465               	retlw	101	;'e'
   465  085E  3474               	retlw	116	;'t'
   466  085F  3474               	retlw	116	;'t'
   467  0860  3465               	retlw	101	;'e'
   468  0861  3464               	retlw	100	;'d'
   469  0862  3400               	retlw	0
   470                           psect	strings
   471                           	
   472  0863                     STR_1:	
   473  0863  3450               	retlw	80	;'P'
   474  0864  3452               	retlw	82	;'R'
   475  0865  3433               	retlw	51	;'3'
   476  0866  3431               	retlw	49	;'1'
   477  0867  3420               	retlw	32	;' '
   478  0868  343A               	retlw	58	;':'
   479  0869  3400               	retlw	0
   480                           psect	strings
   481                           	
   482  086A                     STR_20:	
   483  086A  3446               	retlw	70	;'F'
   484  086B  344D               	retlw	77	;'M'
   485  086C  343D               	retlw	61	;'='
   486  086D  3400               	retlw	0
   487                           psect	strings
   488  083D                     STR_7	equ	STR_6+0
   489  080D                     STR_2	equ	STR_3+7
   490  082C                     STR_5	equ	STR_4+0
   491  085B                     STR_15	equ	STR_14+0
   492  086A                     STR_21	equ	STR_20+0
   493  0852                     STR_12	equ	STR_10+0
   494  0852                     STR_13	equ	STR_10+0
   495  0852                     STR_18	equ	STR_10+0
   496  0852                     STR_19	equ	STR_10+0
   497  081B                     STR_9	equ	STR_8+0
   498  081B                     STR_16	equ	STR_8+0
   499  081B                     STR_17	equ	STR_8+0
   500                           	file	"C:\DOCUME~1\Sales\LOCALS~1\Temp\s1l8."
   501                           	line	#
   502                           psect cinit,class=CODE,delta=2
   503                           global start_initialization
   504  0C40                     start_initialization:
   505                           
   506                           psect	bssBANK0,class=BANK0,space=1
   507                           global __pbssBANK0
   508  005D                     __pbssBANK0:
   509  005D                     _currentChannel:
   510  005D                            ds      4
   511                           
   512  0061                     _freq_kHz:
   513  0061                            ds      4
   514                           
   515  0065                     _STC:
   516  0065                            ds      2
   517                           
   518  0067                     _i:
   519  0067                            ds      1
   520                           
   521  0068                     _m:
   522  0068                            ds      1
   523                           
   524  0069                     _vol:
   525  0069                            ds      1
   526                           
   527                           psect	dataBANK0,class=BANK0,space=1
   528                           global __pdataBANK0
   529  004C                     __pdataBANK0:
   530                           	file	"../../Source file/PR31_final.c"
   531                           	line	80
   532  004C                     _v2:
   533  004C                            ds      10
   534                           
   535                           psect	dataBANK0
   536                           	file	"../../Source file/PR31_final.c"
   537                           	line	55
   538  0056                     _prog_chan:
   539  0056                            ds      7
   540                           
   541                           psect	dataBANK1,class=BANK1,space=1
   542                           global __pdataBANK1
   543  00A0                     __pdataBANK1:
   544                           	file	"../../Source file/PR31_final.c"
   545                           	line	82
   546  00A0                     _v1:
   547  00A0                            ds      10
   548                           
   549                           psect	dataBANK1
   550                           	file	"../../Source file/PR31_final.c"
   551                           	line	58
   552  00AA                     _register_values:
   553  00AA                            ds      36
   554                           
   555                           ; Clear objects allocated to BANK0
   556                           psect cinit,class=CODE,delta=2
   557  0C40  01DD               	clrf	((__pbssBANK0)+0)&07Fh
   558  0C41  01DE               	clrf	((__pbssBANK0)+1)&07Fh
   559  0C42  01DF               	clrf	((__pbssBANK0)+2)&07Fh
   560  0C43  01E0               	clrf	((__pbssBANK0)+3)&07Fh
   561  0C44  01E1               	clrf	((__pbssBANK0)+4)&07Fh
   562  0C45  01E2               	clrf	((__pbssBANK0)+5)&07Fh
   563  0C46  01E3               	clrf	((__pbssBANK0)+6)&07Fh
   564  0C47  01E4               	clrf	((__pbssBANK0)+7)&07Fh
   565  0C48  01E5               	clrf	((__pbssBANK0)+8)&07Fh
   566  0C49  01E6               	clrf	((__pbssBANK0)+9)&07Fh
   567  0C4A  01E7               	clrf	((__pbssBANK0)+10)&07Fh
   568  0C4B  01E8               	clrf	((__pbssBANK0)+11)&07Fh
   569  0C4C  01E9               	clrf	((__pbssBANK0)+12)&07Fh
   570                           global btemp
   571                           psect inittext,class=CODE,delta=2
   572                           global init_fetch,btemp
   573                           ;	Called with low address in FSR and high address in W
   574  0B31                     init_fetch:
   575  0B31  087E               	movf btemp,w
   576  0B32  008A               	movwf pclath
   577  0B33  087F               	movf btemp+1,w
   578  0B34  0082               	movwf pc
   579                           global init_ram
   580                           ;Called with:
   581                           ;	high address of idata address in btemp 
   582                           ;	low address of idata address in btemp+1 
   583                           ;	low address of data in FSR
   584                           ;	high address + 1 of data in btemp-1
   585  0B35                     init_ram:
   586  0B35  120A  158A  2331   	fcall init_fetch
              120A  158A         
   587  0B3A  0080               	movwf indf,f
   588  0B3B  0A84               	incf fsr,f
   589  0B3C  0804               	movf fsr,w
   590  0B3D  067D               	xorwf btemp-1,w
   591  0B3E  1903               	btfsc status,2
   592  0B3F  3400               	retlw 0
   593  0B40  0AFF               	incf btemp+1,f
   594  0B41  1903               	btfsc status,2
   595  0B42  0AFE               	incf btemp,f
   596  0B43  2B35               	goto init_ram
   597                           ; Initialize objects allocated to BANK1
   598                           psect cinit,class=CODE,delta=2
   599                           global init_ram, __pidataBANK1
   600  0C4D  1383               	bcf	status, 7	;select IRP bank0
   601  0C4E  30CE               	movlw low(__pdataBANK1+46)
   602  0C4F  00FD               	movwf btemp-1,f
   603  0C50  300C               	movlw high(__pidataBANK1)
   604  0C51  00FE               	movwf btemp,f
   605  0C52  3099               	movlw low(__pidataBANK1)
   606  0C53  00FF               	movwf btemp+1,f
   607  0C54  30A0               	movlw low(__pdataBANK1)
   608  0C55  0084               	movwf fsr,f
   609  0C56  120A  158A  2335   	fcall init_ram
              120A  158A         
   610                           ; Initialize objects allocated to BANK0
   611                           psect cinit,class=CODE,delta=2
   612                           global init_ram, __pidataBANK0
   613  0C5B  305D               	movlw low(__pdataBANK0+17)
   614  0C5C  00FD               	movwf btemp-1,f
   615  0C5D  300B               	movlw high(__pidataBANK0)
   616  0C5E  00FE               	movwf btemp,f
   617  0C5F  3020               	movlw low(__pidataBANK0)
   618  0C60  00FF               	movwf btemp+1,f
   619  0C61  304C               	movlw low(__pdataBANK0)
   620  0C62  0084               	movwf fsr,f
   621  0C63  120A  158A  2335   	fcall init_ram
              120A  158A         
   622                           psect cinit,class=CODE,delta=2
   623                           global end_of_initialization
   624                           
   625                           ;End of C runtime variable initialization code
   626                           
   627  0C68                     end_of_initialization:
   628  0C68  0183               clrf status
   629  0C69  120A  118A  2AC2   ljmp _main	;jump to C main() function
   630                           psect	cstackCOMMON,class=COMMON,space=1
   631                           global __pcstackCOMMON
   632  0070                     __pcstackCOMMON:
   633                           	global	?_delay
   634  0070                     ?_delay:	; 0 bytes @ 0x0
   635                           	global	?_send_config
   636  0070                     ?_send_config:	; 0 bytes @ 0x0
   637                           	global	?_uart_init
   638  0070                     ?_uart_init:	; 0 bytes @ 0x0
   639                           	global	?_ar_i2c_initialize
   640  0070                     ?_ar_i2c_initialize:	; 0 bytes @ 0x0
   641                           	global	??_ar_i2c_initialize
   642  0070                     ??_ar_i2c_initialize:	; 0 bytes @ 0x0
   643                           	global	?_ar1000_init
   644  0070                     ?_ar1000_init:	; 0 bytes @ 0x0
   645                           	global	?_send_string
   646  0070                     ?_send_string:	; 0 bytes @ 0x0
   647                           	global	?_lcd_goto
   648  0070                     ?_lcd_goto:	; 0 bytes @ 0x0
   649                           	global	?_uart_sendstr
   650  0070                     ?_uart_sendstr:	; 0 bytes @ 0x0
   651                           	global	?_set_vol
   652  0070                     ?_set_vol:	; 0 bytes @ 0x0
   653                           	global	?_lcd_clr
   654  0070                     ?_lcd_clr:	; 0 bytes @ 0x0
   655                           	global	??_eeprom_read
   656  0070                     ??_eeprom_read:	; 0 bytes @ 0x0
   657                           	global	?_eprom_write
   658  0070                     ?_eprom_write:	; 0 bytes @ 0x0
   659                           	global	?_switch_channel
   660  0070                     ?_switch_channel:	; 0 bytes @ 0x0
   661                           	global	?_adjust_channel
   662  0070                     ?_adjust_channel:	; 0 bytes @ 0x0
   663                           	global	?_adjust_vol
   664  0070                     ?_adjust_vol:	; 0 bytes @ 0x0
   665                           	global	?_uart_tx
   666  0070                     ?_uart_tx:	; 0 bytes @ 0x0
   667                           	global	??_uart_tx
   668  0070                     ??_uart_tx:	; 0 bytes @ 0x0
   669                           	global	?_send_char
   670  0070                     ?_send_char:	; 0 bytes @ 0x0
   671                           	global	?_decrease_chan
   672  0070                     ?_decrease_chan:	; 0 bytes @ 0x0
   673                           	global	?_increase_chan
   674  0070                     ?_increase_chan:	; 0 bytes @ 0x0
   675                           	global	?_ar_i2c_write
   676  0070                     ?_ar_i2c_write:	; 0 bytes @ 0x0
   677                           	global	?_e_pulse
   678  0070                     ?_e_pulse:	; 0 bytes @ 0x0
   679                           	global	?_main
   680  0070                     ?_main:	; 0 bytes @ 0x0
   681                           	global	?_eeprom_read
   682  0070                     ?_eeprom_read:	; 1 bytes @ 0x0
   683                           	global	?_eprom_read
   684  0070                     ?_eprom_read:	; 2 bytes @ 0x0
   685                           	global	?_ar_i2c_read
   686  0070                     ?_ar_i2c_read:	; 2 bytes @ 0x0
   687                           	global	?___llmod
   688  0070                     ?___llmod:	; 4 bytes @ 0x0
   689                           	global	?___lldiv
   690  0070                     ?___lldiv:	; 4 bytes @ 0x0
   691                           	global	uart_tx@uc_data
   692  0070                     uart_tx@uc_data:	; 1 bytes @ 0x0
   693                           	global	ar_i2c_read@ar_register
   694  0070                     ar_i2c_read@ar_register:	; 1 bytes @ 0x0
   695                           	global	ar_i2c_write@ar_register
   696  0070                     ar_i2c_write@ar_register:	; 1 bytes @ 0x0
   697                           	global	eprom_write@fm_value
   698  0070                     eprom_write@fm_value:	; 2 bytes @ 0x0
   699                           	global	delay@data
   700  0070                     delay@data:	; 4 bytes @ 0x0
   701                           	global	___llmod@divisor
   702  0070                     ___llmod@divisor:	; 4 bytes @ 0x0
   703                           	global	___lldiv@divisor
   704  0070                     ___lldiv@divisor:	; 4 bytes @ 0x0
   705  0070                     	ds	1
   706                           	global	??_uart_init
   707  0071                     ??_uart_init:	; 0 bytes @ 0x1
   708                           	global	??_uart_sendstr
   709  0071                     ??_uart_sendstr:	; 0 bytes @ 0x1
   710                           	global	eeprom_read@addr
   711  0071                     eeprom_read@addr:	; 1 bytes @ 0x1
   712                           	global	ar_i2c_write@ar_data
   713  0071                     ar_i2c_write@ar_data:	; 4 bytes @ 0x1
   714  0071                     	ds	1
   715                           	global	??_eprom_write
   716  0072                     ??_eprom_write:	; 0 bytes @ 0x2
   717                           	global	??_eprom_read
   718  0072                     ??_eprom_read:	; 0 bytes @ 0x2
   719                           	global	??_ar_i2c_read
   720  0072                     ??_ar_i2c_read:	; 0 bytes @ 0x2
   721                           	global	uart_sendstr@s
   722  0072                     uart_sendstr@s:	; 1 bytes @ 0x2
   723                           	global	eprom_write@channel_adr
   724  0072                     eprom_write@channel_adr:	; 1 bytes @ 0x2
   725                           	global	eprom_read@fm_value
   726  0072                     eprom_read@fm_value:	; 2 bytes @ 0x2
   727  0072                     	ds	2
   728                           	global	??_delay
   729  0074                     ??_delay:	; 0 bytes @ 0x4
   730                           	global	eprom_read@channel_adr
   731  0074                     eprom_read@channel_adr:	; 1 bytes @ 0x4
   732                           	global	___llmod@dividend
   733  0074                     ___llmod@dividend:	; 4 bytes @ 0x4
   734                           	global	___lldiv@dividend
   735  0074                     ___lldiv@dividend:	; 4 bytes @ 0x4
   736  0074                     	ds	1
   737                           	global	??_ar_i2c_write
   738  0075                     ??_ar_i2c_write:	; 0 bytes @ 0x5
   739  0075                     	ds	3
   740                           	global	??_send_config
   741  0078                     ??_send_config:	; 0 bytes @ 0x8
   742                           	global	??_send_char
   743  0078                     ??_send_char:	; 0 bytes @ 0x8
   744                           	global	??_e_pulse
   745  0078                     ??_e_pulse:	; 0 bytes @ 0x8
   746                           	global	??___llmod
   747  0078                     ??___llmod:	; 0 bytes @ 0x8
   748                           	global	??___lldiv
   749  0078                     ??___lldiv:	; 0 bytes @ 0x8
   750                           	global	send_config@data
   751  0078                     send_config@data:	; 1 bytes @ 0x8
   752                           	global	send_char@data
   753  0078                     send_char@data:	; 1 bytes @ 0x8
   754  0078                     	ds	1
   755                           	global	??_send_string
   756  0079                     ??_send_string:	; 0 bytes @ 0x9
   757                           	global	??_lcd_goto
   758  0079                     ??_lcd_goto:	; 0 bytes @ 0x9
   759                           	global	??_lcd_clr
   760  0079                     ??_lcd_clr:	; 0 bytes @ 0x9
   761                           	global	___llmod@counter
   762  0079                     ___llmod@counter:	; 1 bytes @ 0x9
   763                           	global	___lldiv@quotient
   764  0079                     ___lldiv@quotient:	; 4 bytes @ 0x9
   765  0079                     	ds	1
   766                           	global	lcd_goto@data
   767  007A                     lcd_goto@data:	; 1 bytes @ 0xA
   768                           	global	send_string@i
   769  007A                     send_string@i:	; 1 bytes @ 0xA
   770                           	global	ar_i2c_write@ar_slave_address
   771  007A                     ar_i2c_write@ar_slave_address:	; 1 bytes @ 0xA
   772  007A                     	ds	1
   773                           	global	send_string@s
   774  007B                     send_string@s:	; 1 bytes @ 0xB
   775                           	global	ar_i2c_write@ar_transmit_byte1
   776  007B                     ar_i2c_write@ar_transmit_byte1:	; 1 bytes @ 0xB
   777  007B                     	ds	1
   778                           	global	ar_i2c_write@ar_transmit_byte2
   779  007C                     ar_i2c_write@ar_transmit_byte2:	; 1 bytes @ 0xC
   780  007C                     	ds	1
   781                           	global	set_vol@key
   782  007D                     set_vol@key:	; 1 bytes @ 0xD
   783                           	global	___lldiv@counter
   784  007D                     ___lldiv@counter:	; 1 bytes @ 0xD
   785  007D                     	ds	1
   786                           	global	??_adjust_channel
   787  007E                     ??_adjust_channel:	; 0 bytes @ 0xE
   788                           	global	??_increase_chan
   789  007E                     ??_increase_chan:	; 0 bytes @ 0xE
   790                           psect	cstackBANK0,class=BANK0,space=1
   791                           global __pcstackBANK0
   792  0020                     __pcstackBANK0:
   793                           	global	??_set_vol
   794  0020                     ??_set_vol:	; 0 bytes @ 0x0
   795                           	global	?_send_dec
   796  0020                     ?_send_dec:	; 0 bytes @ 0x0
   797                           	global	ar_i2c_read@ar_received_byte
   798  0020                     ar_i2c_read@ar_received_byte:	; 2 bytes @ 0x0
   799                           	global	send_dec@data
   800  0020                     send_dec@data:	; 4 bytes @ 0x0
   801  0020                     	ds	2
   802                           	global	ar_i2c_read@ar_received_byte1
   803  0022                     ar_i2c_read@ar_received_byte1:	; 1 bytes @ 0x2
   804  0022                     	ds	1
   805                           	global	ar_i2c_read@ar_received_byte2
   806  0023                     ar_i2c_read@ar_received_byte2:	; 1 bytes @ 0x3
   807  0023                     	ds	1
   808                           	global	??_adjust_vol
   809  0024                     ??_adjust_vol:	; 0 bytes @ 0x4
   810                           	global	??_send_dec
   811  0024                     ??_send_dec:	; 0 bytes @ 0x4
   812                           	global	ar_i2c_read@ar_slave_address
   813  0024                     ar_i2c_read@ar_slave_address:	; 1 bytes @ 0x4
   814  0024                     	ds	1
   815                           	global	adjust_vol@check
   816  0025                     adjust_vol@check:	; 1 bytes @ 0x5
   817                           	global	ar_i2c_read@count
   818  0025                     ar_i2c_read@count:	; 4 bytes @ 0x5
   819  0025                     	ds	1
   820                           	global	adjust_vol@vol_default
   821  0026                     adjust_vol@vol_default:	; 1 bytes @ 0x6
   822  0026                     	ds	2
   823                           	global	send_dec@no
   824  0028                     send_dec@no:	; 20 bytes @ 0x8
   825  0028                     	ds	1
   826                           	global	??_ar1000_init
   827  0029                     ??_ar1000_init:	; 0 bytes @ 0x9
   828                           	global	?_setAR1000
   829  0029                     ?_setAR1000:	; 0 bytes @ 0x9
   830                           	global	setAR1000@freq_kHz
   831  0029                     setAR1000@freq_kHz:	; 2 bytes @ 0x9
   832  0029                     	ds	2
   833                           	global	??_setAR1000
   834  002B                     ??_setAR1000:	; 0 bytes @ 0xB
   835  002B                     	ds	2
   836                           	global	ar1000_init@i
   837  002D                     ar1000_init@i:	; 2 bytes @ 0xD
   838  002D                     	ds	15
   839                           	global	send_dec@i
   840  003C                     send_dec@i:	; 2 bytes @ 0x1C
   841  003C                     	ds	2
   842                           	global	??_switch_channel
   843  003E                     ??_switch_channel:	; 0 bytes @ 0x1E
   844                           	global	??_decrease_chan
   845  003E                     ??_decrease_chan:	; 0 bytes @ 0x1E
   846  003E                     	ds	4
   847                           	global	adjust_channel@press
   848  0042                     adjust_channel@press:	; 2 bytes @ 0x22
   849  0042                     	ds	2
   850                           	global	adjust_channel@press_1370
   851  0044                     adjust_channel@press_1370:	; 2 bytes @ 0x24
   852  0044                     	ds	2
   853                           	global	adjust_channel@press_1371
   854  0046                     adjust_channel@press_1371:	; 2 bytes @ 0x26
   855  0046                     	ds	2
   856                           	global	??_main
   857  0048                     ??_main:	; 0 bytes @ 0x28
   858  0048                     	ds	4
   859 ;;Data sizes: Strings 104, constant 0, data 63, bss 13, persistent 0 stack 0
   860 ;;Auto spaces:   Size  Autos    Used
   861 ;; COMMON          14     14      14
   862 ;; BANK0           80     44      74
   863 ;; BANK1           80      0      46
   864 ;; BANK3           96      0       0
   865 ;; BANK2           96      0       0
   866                           
   867 ;;
   868 ;; Pointer list with targets:
   869                           
   870 ;; ?_eprom_read	unsigned int  size(1) Largest target is 0
   871 ;;
   872 ;; ?_ar_i2c_read	unsigned int  size(1) Largest target is 36
   873 ;;		 -> register_values(BANK1[36]), 
   874 ;;
   875 ;; ?___llmod	unsigned long  size(1) Largest target is 0
   876 ;;
   877 ;; ?___lldiv	unsigned long  size(1) Largest target is 0
   878 ;;
   879 ;; uart_sendstr@s	PTR const unsigned char  size(1) Largest target is 21
   880 ;;		 -> STR_21(CODE[4]), STR_19(CODE[9]), STR_18(CODE[9]), STR_17(CODE[17]), 
   881 ;;		 -> STR_15(CODE[8]), STR_13(CODE[9]), STR_11(CODE[9]), STR_9(CODE[17]), 
   882 ;;		 -> STR_7(CODE[12]), STR_5(CODE[17]), STR_3(CODE[21]), 
   883 ;;
   884 ;; send_string@s	PTR const unsigned char  size(1) Largest target is 17
   885 ;;		 -> STR_20(CODE[4]), STR_16(CODE[17]), STR_14(CODE[8]), STR_12(CODE[9]), 
   886 ;;		 -> STR_10(CODE[9]), STR_8(CODE[17]), STR_6(CODE[12]), STR_4(CODE[17]), 
   887 ;;		 -> STR_2(CODE[14]), STR_1(CODE[7]), 
   888 ;;
   889                           
   890                           
   891 ;;
   892 ;; Critical Paths under _main in COMMON
   893 ;;
   894 ;;   _main->_set_vol
   895 ;;   _send_dec->___lldiv
   896 ;;   _adjust_vol->_set_vol
   897 ;;   _lcd_clr->_send_config
   898 ;;   _lcd_goto->_send_config
   899 ;;   _send_string->_send_char
   900 ;;   _send_char->_delay
   901 ;;   _send_config->_delay
   902 ;;   _e_pulse->_delay
   903 ;;   _setAR1000->_ar_i2c_write
   904 ;;   _set_vol->_ar_i2c_write
   905 ;;   _uart_sendstr->_uart_tx
   906 ;;   _ar1000_init->_ar_i2c_write
   907 ;;   _uart_init->_uart_tx
   908 ;;
   909 ;; Critical Paths under _main in BANK0
   910 ;;
   911 ;;   _main->_adjust_channel
   912 ;;   _adjust_channel->_decrease_chan
   913 ;;   _increase_chan->_send_dec
   914 ;;   _decrease_chan->_send_dec
   915 ;;   _switch_channel->_send_dec
   916 ;;   _adjust_vol->_set_vol
   917 ;;   _setAR1000->_ar_i2c_read
   918 ;;   _ar1000_init->_ar_i2c_read
   919 ;;
   920 ;; Critical Paths under _main in BANK1
   921 ;;
   922 ;;   None.
   923 ;;
   924 ;; Critical Paths under _main in BANK3
   925 ;;
   926 ;;   None.
   927 ;;
   928 ;; Critical Paths under _main in BANK2
   929 ;;
   930 ;;   None.
   931                           
   932 ;;
   933 ;;Main: autosize = 0, tempsize = 4, incstack = 0, save=0
   934 ;;
   935                           
   936 ;;
   937 ;;Call Graph Tables:
   938 ;;
   939 ;; ---------------------------------------------------------------------------------
   940 ;; (Depth) Function   	        Calls       Base Space   Used Autos Params    Refs
   941 ;; ---------------------------------------------------------------------------------
   942 ;; (0) _main                                                 4     4      0   13263
   943 ;;                                             40 BANK0      4     4      0
   944 ;;                              _delay
   945 ;;                        _send_config
   946 ;;                          _uart_init
   947 ;;                  _ar_i2c_initialize
   948 ;;                        _ar1000_init
   949 ;;                        _send_string
   950 ;;                           _lcd_goto
   951 ;;                       _uart_sendstr
   952 ;;                            _set_vol
   953 ;;                            _lcd_clr
   954 ;;                        _eeprom_read
   955 ;;                        _eprom_write
   956 ;;                     _switch_channel
   957 ;;                     _adjust_channel
   958 ;;                         _adjust_vol
   959 ;; ---------------------------------------------------------------------------------
   960 ;; (1) _adjust_channel                                       6     6      0    8823
   961 ;;                                             34 BANK0      6     6      0
   962 ;;                      _decrease_chan
   963 ;;                              _delay
   964 ;;                      _increase_chan
   965 ;;                        _eprom_write
   966 ;;                            _lcd_clr
   967 ;;                        _send_string
   968 ;;                       _uart_sendstr
   969 ;;                          _send_char
   970 ;;                            _uart_tx
   971 ;;                           _send_dec
   972 ;;                     _switch_channel
   973 ;;                           _lcd_goto
   974 ;;                         _adjust_vol
   975 ;; ---------------------------------------------------------------------------------
   976 ;; (2) _increase_chan                                        0     0      0    1836
   977 ;;                          _setAR1000
   978 ;;                            _uart_tx
   979 ;;                       _uart_sendstr
   980 ;;                           _send_dec
   981 ;;                              _delay
   982 ;; ---------------------------------------------------------------------------------
   983 ;; (2) _decrease_chan                                        4     4      0    1836
   984 ;;                                             30 BANK0      4     4      0
   985 ;;                          _setAR1000
   986 ;;                            _uart_tx
   987 ;;                       _uart_sendstr
   988 ;;                           _send_dec
   989 ;;                              _delay
   990 ;; ---------------------------------------------------------------------------------
   991 ;; (2) _switch_channel                                       1     1      0    2285
   992 ;;                                             30 BANK0      1     1      0
   993 ;;                            _lcd_clr
   994 ;;                        _send_string
   995 ;;                            _uart_tx
   996 ;;                       _uart_sendstr
   997 ;;                          _send_char
   998 ;;                         _eprom_read
   999 ;;                          _setAR1000
  1000 ;;                           _send_dec
  1001 ;; ---------------------------------------------------------------------------------
  1002 ;; (3) _send_dec                                            32    28      4    1315
  1003 ;;                                              0 BANK0     30    26      4
  1004 ;;                            ___lldiv
  1005 ;;                            ___llmod
  1006 ;;                           _lcd_goto
  1007 ;;                        _send_string
  1008 ;;                       _uart_sendstr
  1009 ;;                          _send_char
  1010 ;;                            _uart_tx
  1011 ;;                              _delay
  1012 ;; ---------------------------------------------------------------------------------
  1013 ;; (1) _adjust_vol                                           3     3      0     650
  1014 ;;                                              4 BANK0      3     3      0
  1015 ;;                           _lcd_goto
  1016 ;;                          _send_char
  1017 ;;                            _uart_tx
  1018 ;;                              _delay
  1019 ;;                            _set_vol
  1020 ;; ---------------------------------------------------------------------------------
  1021 ;; (3) _lcd_clr                                              0     0      0     157
  1022 ;;                        _send_config
  1023 ;;                              _delay
  1024 ;; ---------------------------------------------------------------------------------
  1025 ;; (2) _lcd_goto                                             2     2      0     201
  1026 ;;                                              9 COMMON     2     2      0
  1027 ;;                        _send_config
  1028 ;; ---------------------------------------------------------------------------------
  1029 ;; (4) _send_string                                          3     3      0     180
  1030 ;;                                              9 COMMON     3     3      0
  1031 ;;                          _send_char
  1032 ;; ---------------------------------------------------------------------------------
  1033 ;; (2) _send_char                                            1     1      0     112
  1034 ;;                                              8 COMMON     1     1      0
  1035 ;;                              _delay
  1036 ;;                            _e_pulse
  1037 ;; ---------------------------------------------------------------------------------
  1038 ;; (3) _send_config                                          1     1      0     112
  1039 ;;                                              8 COMMON     1     1      0
  1040 ;;                              _delay
  1041 ;;                            _e_pulse
  1042 ;; ---------------------------------------------------------------------------------
  1043 ;; (3) _e_pulse                                              0     0      0      45
  1044 ;;                              _delay
  1045 ;; ---------------------------------------------------------------------------------
  1046 ;; (3) _setAR1000                                            5     3      2     387
  1047 ;;                                              9 BANK0      5     3      2
  1048 ;;                       _ar_i2c_write
  1049 ;;                        _ar_i2c_read
  1050 ;;                              _delay
  1051 ;; ---------------------------------------------------------------------------------
  1052 ;; (2) _set_vol                                              5     5      0     200
  1053 ;;                                             13 COMMON     1     1      0
  1054 ;;                                              0 BANK0      4     4      0
  1055 ;;                       _ar_i2c_write
  1056 ;; ---------------------------------------------------------------------------------
  1057 ;; (4) _uart_sendstr                                         2     2      0      67
  1058 ;;                                              1 COMMON     2     2      0
  1059 ;;                            _uart_tx
  1060 ;; ---------------------------------------------------------------------------------
  1061 ;; (1) _ar1000_init                                          6     6      0     454
  1062 ;;                                              9 BANK0      6     6      0
  1063 ;;                              _delay
  1064 ;;                       _ar_i2c_write
  1065 ;;                        _ar_i2c_read
  1066 ;; ---------------------------------------------------------------------------------
  1067 ;; (1) _uart_init                                            0     0      0      22
  1068 ;;                            _uart_tx
  1069 ;; ---------------------------------------------------------------------------------
  1070 ;; (4) ___lldiv                                             14     6      8     162
  1071 ;;                                              0 COMMON    14     6      8
  1072 ;; ---------------------------------------------------------------------------------
  1073 ;; (4) ___llmod                                             10     2      8     159
  1074 ;;                                              0 COMMON    10     2      8
  1075 ;; ---------------------------------------------------------------------------------
  1076 ;; (4) _ar_i2c_read                                         15    13      2     185
  1077 ;;                                              0 COMMON     6     4      2
  1078 ;;                                              0 BANK0      9     9      0
  1079 ;; ---------------------------------------------------------------------------------
  1080 ;; (3) _ar_i2c_write                                        13     8      5     134
  1081 ;;                                              0 COMMON    13     8      5
  1082 ;; ---------------------------------------------------------------------------------
  1083 ;; (3) _eprom_read                                           5     3      2      45
  1084 ;;                                              0 COMMON     5     3      2
  1085 ;; ---------------------------------------------------------------------------------
  1086 ;; (2) _uart_tx                                              1     1      0      22
  1087 ;;                                              0 COMMON     1     1      0
  1088 ;; ---------------------------------------------------------------------------------
  1089 ;; (2) _eprom_write                                          3     1      2      45
  1090 ;;                                              0 COMMON     3     1      2
  1091 ;; ---------------------------------------------------------------------------------
  1092 ;; (1) _eeprom_read                                          2     2      0      22
  1093 ;;                                              0 COMMON     2     2      0
  1094 ;; ---------------------------------------------------------------------------------
  1095 ;; (1) _ar_i2c_initialize                                    0     0      0       0
  1096 ;; ---------------------------------------------------------------------------------
  1097 ;; (2) _delay                                                8     4      4      45
  1098 ;;                                              0 COMMON     8     4      4
  1099 ;; ---------------------------------------------------------------------------------
  1100 ;; Estimated maximum stack depth 4
  1101 ;; ---------------------------------------------------------------------------------
  1102                           
  1103 ;; Call Graph Graphs:
  1104                           
  1105 ;; _main (ROOT)
  1106 ;;   _delay
  1107 ;;   _send_config
  1108 ;;     _delay
  1109 ;;     _e_pulse
  1110 ;;       _delay
  1111 ;;   _uart_init
  1112 ;;     _uart_tx
  1113 ;;   _ar_i2c_initialize
  1114 ;;   _ar1000_init
  1115 ;;     _delay
  1116 ;;     _ar_i2c_write
  1117 ;;     _ar_i2c_read
  1118 ;;   _send_string
  1119 ;;     _send_char
  1120 ;;       _delay
  1121 ;;       _e_pulse
  1122 ;;         _delay
  1123 ;;   _lcd_goto
  1124 ;;     _send_config
  1125 ;;       _delay
  1126 ;;       _e_pulse
  1127 ;;         _delay
  1128 ;;   _uart_sendstr
  1129 ;;     _uart_tx
  1130 ;;   _set_vol
  1131 ;;     _ar_i2c_write
  1132 ;;   _lcd_clr
  1133 ;;     _send_config
  1134 ;;       _delay
  1135 ;;       _e_pulse
  1136 ;;         _delay
  1137 ;;     _delay
  1138 ;;   _eeprom_read
  1139 ;;   _eprom_write
  1140 ;;   _switch_channel
  1141 ;;     _lcd_clr
  1142 ;;       _send_config
  1143 ;;         _delay
  1144 ;;         _e_pulse
  1145 ;;           _delay
  1146 ;;       _delay
  1147 ;;     _send_string
  1148 ;;       _send_char
  1149 ;;         _delay
  1150 ;;         _e_pulse
  1151 ;;           _delay
  1152 ;;     _uart_tx
  1153 ;;     _uart_sendstr
  1154 ;;       _uart_tx
  1155 ;;     _send_char
  1156 ;;       _delay
  1157 ;;       _e_pulse
  1158 ;;         _delay
  1159 ;;     _eprom_read
  1160 ;;     _setAR1000
  1161 ;;       _ar_i2c_write
  1162 ;;       _ar_i2c_read
  1163 ;;       _delay
  1164 ;;     _send_dec
  1165 ;;       ___lldiv
  1166 ;;       ___llmod
  1167 ;;       _lcd_goto
  1168 ;;         _send_config
  1169 ;;           _delay
  1170 ;;           _e_pulse
  1171 ;;             _delay
  1172 ;;       _send_string
  1173 ;;         _send_char
  1174 ;;           _delay
  1175 ;;           _e_pulse
  1176 ;;             _delay
  1177 ;;       _uart_sendstr
  1178 ;;         _uart_tx
  1179 ;;       _send_char
  1180 ;;         _delay
  1181 ;;         _e_pulse
  1182 ;;           _delay
  1183 ;;       _uart_tx
  1184 ;;       _delay
  1185 ;;   _adjust_channel
  1186 ;;     _decrease_chan
  1187 ;;       _setAR1000
  1188 ;;         _ar_i2c_write
  1189 ;;         _ar_i2c_read
  1190 ;;         _delay
  1191 ;;       _uart_tx
  1192 ;;       _uart_sendstr
  1193 ;;         _uart_tx
  1194 ;;       _send_dec
  1195 ;;         ___lldiv
  1196 ;;         ___llmod
  1197 ;;         _lcd_goto
  1198 ;;           _send_config
  1199 ;;             _delay
  1200 ;;             _e_pulse
  1201 ;;               _delay
  1202 ;;         _send_string
  1203 ;;           _send_char
  1204 ;;             _delay
  1205 ;;             _e_pulse
  1206 ;;               _delay
  1207 ;;         _uart_sendstr
  1208 ;;           _uart_tx
  1209 ;;         _send_char
  1210 ;;           _delay
  1211 ;;           _e_pulse
  1212 ;;             _delay
  1213 ;;         _uart_tx
  1214 ;;         _delay
  1215 ;;       _delay
  1216 ;;     _delay
  1217 ;;     _increase_chan
  1218 ;;       _setAR1000
  1219 ;;         _ar_i2c_write
  1220 ;;         _ar_i2c_read
  1221 ;;         _delay
  1222 ;;       _uart_tx
  1223 ;;       _uart_sendstr
  1224 ;;         _uart_tx
  1225 ;;       _send_dec
  1226 ;;         ___lldiv
  1227 ;;         ___llmod
  1228 ;;         _lcd_goto
  1229 ;;           _send_config
  1230 ;;             _delay
  1231 ;;             _e_pulse
  1232 ;;               _delay
  1233 ;;         _send_string
  1234 ;;           _send_char
  1235 ;;             _delay
  1236 ;;             _e_pulse
  1237 ;;               _delay
  1238 ;;         _uart_sendstr
  1239 ;;           _uart_tx
  1240 ;;         _send_char
  1241 ;;           _delay
  1242 ;;           _e_pulse
  1243 ;;             _delay
  1244 ;;         _uart_tx
  1245 ;;         _delay
  1246 ;;       _delay
  1247 ;;     _eprom_write
  1248 ;;     _lcd_clr
  1249 ;;       _send_config
  1250 ;;         _delay
  1251 ;;         _e_pulse
  1252 ;;           _delay
  1253 ;;       _delay
  1254 ;;     _send_string
  1255 ;;       _send_char
  1256 ;;         _delay
  1257 ;;         _e_pulse
  1258 ;;           _delay
  1259 ;;     _uart_sendstr
  1260 ;;       _uart_tx
  1261 ;;     _send_char
  1262 ;;       _delay
  1263 ;;       _e_pulse
  1264 ;;         _delay
  1265 ;;     _uart_tx
  1266 ;;     _send_dec
  1267 ;;       ___lldiv
  1268 ;;       ___llmod
  1269 ;;       _lcd_goto
  1270 ;;         _send_config
  1271 ;;           _delay
  1272 ;;           _e_pulse
  1273 ;;             _delay
  1274 ;;       _send_string
  1275 ;;         _send_char
  1276 ;;           _delay
  1277 ;;           _e_pulse
  1278 ;;             _delay
  1279 ;;       _uart_sendstr
  1280 ;;         _uart_tx
  1281 ;;       _send_char
  1282 ;;         _delay
  1283 ;;         _e_pulse
  1284 ;;           _delay
  1285 ;;       _uart_tx
  1286 ;;       _delay
  1287 ;;     _switch_channel
  1288 ;;       _lcd_clr
  1289 ;;         _send_config
  1290 ;;           _delay
  1291 ;;           _e_pulse
  1292 ;;             _delay
  1293 ;;         _delay
  1294 ;;       _send_string
  1295 ;;         _send_char
  1296 ;;           _delay
  1297 ;;           _e_pulse
  1298 ;;             _delay
  1299 ;;       _uart_tx
  1300 ;;       _uart_sendstr
  1301 ;;         _uart_tx
  1302 ;;       _send_char
  1303 ;;         _delay
  1304 ;;         _e_pulse
  1305 ;;           _delay
  1306 ;;       _eprom_read
  1307 ;;       _setAR1000
  1308 ;;         _ar_i2c_write
  1309 ;;         _ar_i2c_read
  1310 ;;         _delay
  1311 ;;       _send_dec
  1312 ;;         ___lldiv
  1313 ;;         ___llmod
  1314 ;;         _lcd_goto
  1315 ;;           _send_config
  1316 ;;             _delay
  1317 ;;             _e_pulse
  1318 ;;               _delay
  1319 ;;         _send_string
  1320 ;;           _send_char
  1321 ;;             _delay
  1322 ;;             _e_pulse
  1323 ;;               _delay
  1324 ;;         _uart_sendstr
  1325 ;;           _uart_tx
  1326 ;;         _send_char
  1327 ;;           _delay
  1328 ;;           _e_pulse
  1329 ;;             _delay
  1330 ;;         _uart_tx
  1331 ;;         _delay
  1332 ;;     _lcd_goto
  1333 ;;       _send_config
  1334 ;;         _delay
  1335 ;;         _e_pulse
  1336 ;;           _delay
  1337 ;;     _adjust_vol
  1338 ;;       _lcd_goto
  1339 ;;         _send_config
  1340 ;;           _delay
  1341 ;;           _e_pulse
  1342 ;;             _delay
  1343 ;;       _send_char
  1344 ;;         _delay
  1345 ;;         _e_pulse
  1346 ;;           _delay
  1347 ;;       _uart_tx
  1348 ;;       _delay
  1349 ;;       _set_vol
  1350 ;;         _ar_i2c_write
  1351 ;;   _adjust_vol
  1352 ;;     _lcd_goto
  1353 ;;       _send_config
  1354 ;;         _delay
  1355 ;;         _e_pulse
  1356 ;;           _delay
  1357 ;;     _send_char
  1358 ;;       _delay
  1359 ;;       _e_pulse
  1360 ;;         _delay
  1361 ;;     _uart_tx
  1362 ;;     _delay
  1363 ;;     _set_vol
  1364 ;;       _ar_i2c_write
  1365 ;;
  1366                           
  1367 ;; Address spaces:
  1368                           
  1369 ;;Name               Size   Autos  Total    Cost      Usage
  1370 ;;BANK3               60      0       0       9        0.0%
  1371 ;;BITBANK3            60      0       0       8        0.0%
  1372 ;;SFR3                 0      0       0       4        0.0%
  1373 ;;BITSFR3              0      0       0       4        0.0%
  1374 ;;BANK2               60      0       0      11        0.0%
  1375 ;;BITBANK2            60      0       0      10        0.0%
  1376 ;;SFR2                 0      0       0       5        0.0%
  1377 ;;BITSFR2              0      0       0       5        0.0%
  1378 ;;SFR1                 0      0       0       2        0.0%
  1379 ;;BITSFR1              0      0       0       2        0.0%
  1380 ;;BANK1               50      0      2E       7       57.5%
  1381 ;;BITBANK1            50      0       0       6        0.0%
  1382 ;;CODE                 0      0       0       0        0.0%
  1383 ;;DATA                 0      0      8D      12        0.0%
  1384 ;;ABS                  0      0      86       3        0.0%
  1385 ;;NULL                 0      0       0       0        0.0%
  1386 ;;STACK                0      0       7       2        0.0%
  1387 ;;BANK0               50     2C      4A       5       92.5%
  1388 ;;BITBANK0            50      0       0       4        0.0%
  1389 ;;SFR0                 0      0       0       1        0.0%
  1390 ;;BITSFR0              0      0       0       1        0.0%
  1391 ;;COMMON               E      E       E       1      100.0%
  1392 ;;BITCOMMON            E      0       0       0        0.0%
  1393 ;;EEDATA             100      0       0       0        0.0%
  1394                           
  1395                           	global	_main
  1396                           psect	maintext,global,class=CODE,delta=2
  1397                           global __pmaintext
  1398  02C2                     __pmaintext:
  1399                           
  1400 ;; *************** function _main *****************
  1401 ;; Defined at:
  1402 ;;		line 116 in file "../../Source file/PR31_final.c"
  1403 ;; Parameters:    Size  Location     Type
  1404 ;;		None
  1405 ;; Auto vars:     Size  Location     Type
  1406 ;;		None
  1407 ;; Return value:  Size  Location     Type
  1408 ;;		None               void
  1409 ;; Registers used:
  1410 ;;		wreg, fsr0l, fsr0h, status,2, status,0, btemp+1, pclath, cstack
  1411 ;; Tracked objects:
  1412 ;;		On entry : 17F/0
  1413 ;;		On exit  : 0/0
  1414 ;;		Unchanged: 0/0
  1415 ;; Data sizes:     COMMON   BANK0   BANK1   BANK3   BANK2
  1416 ;;      Params:         0       0       0       0       0
  1417 ;;      Locals:         0       0       0       0       0
  1418 ;;      Temps:          0       4       0       0       0
  1419 ;;      Totals:         0       4       0       0       0
  1420 ;;Total ram usage:        4 bytes
  1421 ;; Hardware stack levels required when called:    7
  1422 ;; This function calls:
  1423 ;;		_delay
  1424 ;;		_send_config
  1425 ;;		_uart_init
  1426 ;;		_ar_i2c_initialize
  1427 ;;		_ar1000_init
  1428 ;;		_send_string
  1429 ;;		_lcd_goto
  1430 ;;		_uart_sendstr
  1431 ;;		_set_vol
  1432 ;;		_lcd_clr
  1433 ;;		_eeprom_read
  1434 ;;		_eprom_write
  1435 ;;		_switch_channel
  1436 ;;		_adjust_channel
  1437 ;;		_adjust_vol
  1438 ;; This function is called by:
  1439 ;;		Startup code after reset
  1440 ;; This function uses a non-reentrant model
  1441 ;;
  1442                           psect	maintext
  1443                           	file	"../../Source file/PR31_final.c"
  1444                           	line	116
  1445                           	global	__size_of_main
  1446  012C                     	__size_of_main	equ	__end_of_main-_main
  1447                           	
  1448  02C2                     _main:	
  1449                           	opt	stack 1
  1450                           ; Regs used in _main: [wreg-fsr0h+status,2+status,0+btemp+1+pclath+cstack]
  1451                           	line	118
  1452                           	
  1453  02C2                     l5414:	
  1454                           ;PR31_final.c: 118: delay(5000);
  1455  02C2  3000               	movlw	0
  1456  02C3  00F3               	movwf	(?_delay+3)
  1457  02C4  3000               	movlw	0
  1458  02C5  00F2               	movwf	(?_delay+2)
  1459  02C6  3013               	movlw	013h
  1460  02C7  00F1               	movwf	(?_delay+1)
  1461  02C8  3088               	movlw	088h
  1462  02C9  00F0               	movwf	(?_delay)
  1463                           
  1464  02CA  120A  118A  202B   	fcall	_delay
              120A  118A         
  1465                           	line	120
  1466                           	
  1467  02CF                     l5416:	
  1468                           ;PR31_final.c: 120: TRISA = 0b11111111;
  1469  02CF  30FF               	movlw	(0FFh)
  1470  02D0  1683               	bsf	status, 5	;RP0=1, select bank1
  1471  02D1  1303               	bcf	status, 6	;RP1=0, select bank1
  1472  02D2  0085               	movwf	(133)^080h	;volatile
  1473                           	line	121
  1474                           	
  1475  02D3                     l5418:	
  1476                           ;PR31_final.c: 121: TRISB = 0b00001111;
  1477  02D3  300F               	movlw	(0Fh)
  1478  02D4  0086               	movwf	(134)^080h	;volatile
  1479                           	line	122
  1480                           	
  1481  02D5                     l5420:	
  1482                           ;PR31_final.c: 122: TRISD = 0b00000000;
  1483  02D5  0188               	clrf	(136)^080h	;volatile
  1484                           	line	123
  1485                           	
  1486  02D6                     l5422:	
  1487                           ;PR31_final.c: 123: PORTA = 0;
  1488  02D6  1283               	bcf	status, 5	;RP0=0, select bank0
  1489  02D7  1303               	bcf	status, 6	;RP1=0, select bank0
  1490  02D8  0185               	clrf	(5)	;volatile
  1491                           	line	124
  1492                           	
  1493  02D9                     l5424:	
  1494                           ;PR31_final.c: 124: PORTB = 0;
  1495  02D9  0186               	clrf	(6)	;volatile
  1496                           	line	125
  1497                           	
  1498  02DA                     l5426:	
  1499                           ;PR31_final.c: 125: PORTD = 0;
  1500  02DA  0188               	clrf	(8)	;volatile
  1501                           	line	129
  1502                           ;PR31_final.c: 129: send_config(0b00000001);
  1503  02DB  3001               	movlw	(01h)
  1504  02DC  120A  158A  2359   	fcall	_send_config
              120A  118A         
  1505                           	line	130
  1506                           ;PR31_final.c: 130: send_config(0b00000010);
  1507  02E1  3002               	movlw	(02h)
  1508  02E2  120A  158A  2359   	fcall	_send_config
              120A  118A         
  1509                           	line	131
  1510                           ;PR31_final.c: 131: send_config(0b00000110);
  1511  02E7  3006               	movlw	(06h)
  1512  02E8  120A  158A  2359   	fcall	_send_config
              120A  118A         
  1513                           	line	132
  1514                           ;PR31_final.c: 132: send_config(0b00001100);
  1515  02ED  300C               	movlw	(0Ch)
  1516  02EE  120A  158A  2359   	fcall	_send_config
              120A  118A         
  1517                           	line	133
  1518                           ;PR31_final.c: 133: send_config(0b00111000);
  1519  02F3  3038               	movlw	(038h)
  1520  02F4  120A  158A  2359   	fcall	_send_config
              120A  118A         
  1521                           	line	136
  1522                           ;PR31_final.c: 136: uart_init();
  1523  02F9  120A  158A  2344   	fcall	_uart_init
              120A  118A         
  1524                           	line	137
  1525                           ;PR31_final.c: 137: ar_i2c_initialize();
  1526  02FE  120A  158A  2310   	fcall	_ar_i2c_initialize
              120A  118A         
  1527                           	line	138
  1528                           	
  1529  0303                     l5428:	
  1530                           ;PR31_final.c: 138: ar1000_init();
  1531  0303  120A  158A  275A   	fcall	_ar1000_init
              120A  118A         
  1532                           	line	140
  1533                           	
  1534  0308                     l5430:	
  1535                           ;PR31_final.c: 140: send_string("PR31 :");
  1536  0308  305E               	movlw	((STR_1-__stringbase))&0ffh
  1537  0309  120A  118A  2004   	fcall	_send_string
              120A  118A         
  1538                           	line	141
  1539                           	
  1540  030E                     l5432:	
  1541                           ;PR31_final.c: 141: lcd_goto(20);
  1542  030E  3014               	movlw	(014h)
  1543  030F  120A  158A  23A5   	fcall	_lcd_goto
              120A  118A         
  1544                           	line	142
  1545                           	
  1546  0314                     l5434:	
  1547                           ;PR31_final.c: 142: send_string("Digital Radio");
  1548  0314  3008               	movlw	((STR_2-__stringbase))&0ffh
  1549  0315  120A  118A  2004   	fcall	_send_string
              120A  118A         
  1550                           	line	143
  1551                           	
  1552  031A                     l5436:	
  1553                           ;PR31_final.c: 143: uart_sendstr("PR31 = Digital Radio");
  1554  031A  3001               	movlw	((STR_3-__stringbase))&0ffh
  1555  031B  120A  158A  246C   	fcall	_uart_sendstr
              120A  118A         
  1556                           	line	144
  1557                           	
  1558  0320                     l5438:	
  1559                           ;PR31_final.c: 144: set_vol(8);
  1560  0320  3008               	movlw	(08h)
  1561  0321  120A  118A  205B   	fcall	_set_vol
              120A  118A         
  1562                           	line	145
  1563                           	
  1564  0326                     l5440:	
  1565                           ;PR31_final.c: 145: delay(150000);
  1566  0326  3000               	movlw	0
  1567  0327  00F3               	movwf	(?_delay+3)
  1568  0328  3002               	movlw	02h
  1569  0329  00F2               	movwf	(?_delay+2)
  1570  032A  3049               	movlw	049h
  1571  032B  00F1               	movwf	(?_delay+1)
  1572  032C  30F0               	movlw	0F0h
  1573  032D  00F0               	movwf	(?_delay)
  1574                           
  1575  032E  120A  118A  202B   	fcall	_delay
              120A  118A         
  1576                           	line	147
  1577                           	
  1578  0333                     l5442:	
  1579                           ;PR31_final.c: 147: lcd_clr();
  1580  0333  120A  158A  238B   	fcall	_lcd_clr
              120A  118A         
  1581                           	line	148
  1582                           ;PR31_final.c: 148: send_string("sw1=chan sw2=vol");
  1583  0338  3027               	movlw	((STR_4-__stringbase))&0ffh
  1584  0339  120A  118A  2004   	fcall	_send_string
              120A  118A         
  1585                           	line	149
  1586                           ;PR31_final.c: 149: uart_sendstr("sw1=chan sw2=vol");
  1587  033E  3027               	movlw	((STR_5-__stringbase))&0ffh
  1588  033F  120A  158A  246C   	fcall	_uart_sendstr
              120A  118A         
  1589                           	line	150
  1590                           	
  1591  0344                     l5444:	
  1592                           ;PR31_final.c: 150: lcd_goto(20);
  1593  0344  3014               	movlw	(014h)
  1594  0345  120A  158A  23A5   	fcall	_lcd_goto
              120A  118A         
  1595                           	line	151
  1596                           	
  1597  034A                     l5446:	
  1598                           ;PR31_final.c: 151: send_string("sw1(1s)=set");
  1599  034A  3038               	movlw	((STR_6-__stringbase))&0ffh
  1600  034B  120A  118A  2004   	fcall	_send_string
              120A  118A         
  1601                           	line	152
  1602                           	
  1603  0350                     l5448:	
  1604                           ;PR31_final.c: 152: uart_sendstr("sw1(1s)=set");
  1605  0350  3038               	movlw	((STR_7-__stringbase))&0ffh
  1606  0351  120A  158A  246C   	fcall	_uart_sendstr
              120A  118A         
  1607                           	line	155
  1608                           	
  1609  0356                     l5450:	
  1610                           ;PR31_final.c: 155: for (i=1;i<7;i++)
  1611  0356  1283               	bcf	status, 5	;RP0=0, select bank0
  1612  0357  1303               	bcf	status, 6	;RP1=0, select bank0
  1613  0358  01E7               	clrf	(_i)
  1614  0359  1403               	bsf	status,0
  1615  035A  0DE7               	rlf	(_i),f
  1616                           	
  1617  035B                     l5452:	
  1618  035B  3007               	movlw	(07h)
  1619  035C  0267               	subwf	(_i),w
  1620  035D  1C03               	skipc
  1621  035E  2B60               	goto	u4181
  1622  035F  2B61               	goto	u4180
  1623  0360                     u4181:
  1624  0360  2B63               	goto	l5456
  1625  0361                     u4180:
  1626  0361  2BA8               	goto	l758
  1627                           	
  1628  0362                     l5454:	
  1629  0362  2BA8               	goto	l758
  1630                           	line	156
  1631                           	
  1632  0363                     l755:	
  1633                           	line	157
  1634                           	
  1635  0363                     l5456:	
  1636                           ;PR31_final.c: 156: {
  1637                           ;PR31_final.c: 157: freq_kHz = eeprom_read(i);
  1638  0363  0867               	movf	(_i),w
  1639  0364  120A  158A  23E0   	fcall	_eeprom_read
              120A  118A         
  1640  0369  1283               	bcf	status, 5	;RP0=0, select bank0
  1641  036A  1303               	bcf	status, 6	;RP1=0, select bank0
  1642  036B  00C8               	movwf	(??_main+0)+0
  1643  036C  01C9               	clrf	((??_main+0)+0+1)
  1644  036D  01CA               	clrf	((??_main+0)+0+2)
  1645  036E  01CB               	clrf	((??_main+0)+0+3)
  1646  036F  084B               	movf	3+(??_main+0)+0,w
  1647  0370  00E4               	movwf	(_freq_kHz+3)
  1648  0371  084A               	movf	2+(??_main+0)+0,w
  1649  0372  00E3               	movwf	(_freq_kHz+2)
  1650  0373  0849               	movf	1+(??_main+0)+0,w
  1651  0374  00E2               	movwf	(_freq_kHz+1)
  1652  0375  0848               	movf	0+(??_main+0)+0,w
  1653  0376  00E1               	movwf	(_freq_kHz)
  1654                           
  1655                           	line	158
  1656                           	
  1657  0377                     l5458:	
  1658                           ;PR31_final.c: 158: if (freq_kHz==255)
  1659  0377  3000               	movlw	0
  1660  0378  0664               	xorwf	(_freq_kHz+3),w
  1661  0379  1D03               	skipz
  1662  037A  2B85               	goto	u4195
  1663  037B  3000               	movlw	0
  1664  037C  0663               	xorwf	(_freq_kHz+2),w
  1665  037D  1D03               	skipz
  1666  037E  2B85               	goto	u4195
  1667  037F  3000               	movlw	0
  1668  0380  0662               	xorwf	(_freq_kHz+1),w
  1669  0381  1D03               	skipz
  1670  0382  2B85               	goto	u4195
  1671  0383  30FF               	movlw	0FFh
  1672  0384  0661               	xorwf	(_freq_kHz),w
  1673  0385                     u4195:
  1674  0385  1D03               	skipz
  1675  0386  2B88               	goto	u4191
  1676  0387  2B89               	goto	u4190
  1677  0388                     u4191:
  1678  0388  2B9B               	goto	l5462
  1679  0389                     u4190:
  1680                           	line	159
  1681                           	
  1682  0389                     l5460:	
  1683                           ;PR31_final.c: 159: eprom_write (i,prog_chan[i]);
  1684  0389  0867               	movf	(_i),w
  1685  038A  3E56               	addlw	_prog_chan&0ffh
  1686  038B  0084               	movwf	fsr0
  1687  038C  1383               	bcf	status, 7	;select IRP bank0
  1688  038D  0800               	movf	indf,w
  1689  038E  00C8               	movwf	(??_main+0)+0
  1690  038F  01C9               	clrf	(??_main+0)+0+1
  1691  0390  0848               	movf	0+(??_main+0)+0,w
  1692  0391  00F0               	movwf	(?_eprom_write)
  1693  0392  0849               	movf	1+(??_main+0)+0,w
  1694  0393  00F1               	movwf	(?_eprom_write+1)
  1695  0394  0867               	movf	(_i),w
  1696  0395  120A  158A  23C2   	fcall	_eprom_write
              120A  118A         
  1697  039A  2B9B               	goto	l5462
  1698                           	
  1699  039B                     l757:	
  1700                           	line	155
  1701                           	
  1702  039B                     l5462:	
  1703  039B  3001               	movlw	(01h)
  1704  039C  1283               	bcf	status, 5	;RP0=0, select bank0
  1705  039D  1303               	bcf	status, 6	;RP1=0, select bank0
  1706  039E  00C8               	movwf	(??_main+0)+0
  1707  039F  0848               	movf	(??_main+0)+0,w
  1708  03A0  07E7               	addwf	(_i),f
  1709                           	
  1710  03A1                     l5464:	
  1711  03A1  3007               	movlw	(07h)
  1712  03A2  0267               	subwf	(_i),w
  1713  03A3  1C03               	skipc
  1714  03A4  2BA6               	goto	u4201
  1715  03A5  2BA7               	goto	u4200
  1716  03A6                     u4201:
  1717  03A6  2B63               	goto	l5456
  1718  03A7                     u4200:
  1719  03A7  2BA8               	goto	l758
  1720                           	
  1721  03A8                     l756:	
  1722                           	line	162
  1723                           ;PR31_final.c: 160: }
  1724                           ;PR31_final.c: 162: while(1)
  1725                           	
  1726  03A8                     l758:	
  1727                           	line	165
  1728                           ;PR31_final.c: 163: {
  1729                           ;PR31_final.c: 165: if(RB0==0)
  1730  03A8  1283               	bcf	status, 5	;RP0=0, select bank0
  1731  03A9  1303               	bcf	status, 6	;RP1=0, select bank0
  1732  03AA  1806               	btfsc	(48/8),(48)&7
  1733  03AB  2BAD               	goto	u4211
  1734  03AC  2BAE               	goto	u4210
  1735  03AD                     u4211:
  1736  03AD  2BC0               	goto	l5470
  1737  03AE                     u4210:
  1738  03AE  2BB0               	goto	l760
  1739                           	line	167
  1740                           	
  1741  03AF                     l5466:	
  1742                           ;PR31_final.c: 166: {
  1743                           ;PR31_final.c: 167: while (RB0==0);
  1744  03AF  2BB0               	goto	l760
  1745                           	
  1746  03B0                     l761:	
  1747                           	
  1748  03B0                     l760:	
  1749  03B0  1C06               	btfss	(48/8),(48)&7
  1750  03B1  2BB3               	goto	u4221
  1751  03B2  2BB4               	goto	u4220
  1752  03B3                     u4221:
  1753  03B3  2BB0               	goto	l760
  1754  03B4                     u4220:
  1755  03B4  2BB5               	goto	l5468
  1756                           	
  1757  03B5                     l762:	
  1758                           	line	168
  1759                           	
  1760  03B5                     l5468:	
  1761                           ;PR31_final.c: 168: switch_channel();
  1762  03B5  120A  158A  2523   	fcall	_switch_channel
              120A  118A         
  1763                           	line	169
  1764                           ;PR31_final.c: 169: adjust_channel();
  1765  03BA  120A  118A  251E   	fcall	_adjust_channel
              120A  118A         
  1766  03BF  2BC0               	goto	l5470
  1767                           	line	170
  1768                           	
  1769  03C0                     l759:	
  1770                           	line	172
  1771                           	
  1772  03C0                     l5470:	
  1773                           ;PR31_final.c: 170: }
  1774                           ;PR31_final.c: 172: if (RB1 == 0)
  1775  03C0  1283               	bcf	status, 5	;RP0=0, select bank0
  1776  03C1  1303               	bcf	status, 6	;RP1=0, select bank0
  1777  03C2  1886               	btfsc	(49/8),(49)&7
  1778  03C3  2BC5               	goto	u4231
  1779  03C4  2BC6               	goto	u4230
  1780  03C5                     u4231:
  1781  03C5  2BA8               	goto	l758
  1782  03C6                     u4230:
  1783  03C6  2BC8               	goto	l764
  1784                           	line	174
  1785                           	
  1786  03C7                     l5472:	
  1787                           ;PR31_final.c: 173: {
  1788                           ;PR31_final.c: 174: while (RB1 == 0);
  1789  03C7  2BC8               	goto	l764
  1790                           	
  1791  03C8                     l765:	
  1792                           	
  1793  03C8                     l764:	
  1794  03C8  1C86               	btfss	(49/8),(49)&7
  1795  03C9  2BCB               	goto	u4241
  1796  03CA  2BCC               	goto	u4240
  1797  03CB                     u4241:
  1798  03CB  2BC8               	goto	l764
  1799  03CC                     u4240:
  1800  03CC  2BCD               	goto	l5474
  1801                           	
  1802  03CD                     l766:	
  1803                           	line	175
  1804                           	
  1805  03CD                     l5474:	
  1806                           ;PR31_final.c: 175: lcd_goto(0);
  1807  03CD  3000               	movlw	(0)
  1808  03CE  120A  158A  23A5   	fcall	_lcd_goto
              120A  118A         
  1809                           	line	176
  1810                           	
  1811  03D3                     l5476:	
  1812                           ;PR31_final.c: 176: send_string("volume level=   ");
  1813  03D3  3016               	movlw	((STR_8-__stringbase))&0ffh
  1814  03D4  120A  118A  2004   	fcall	_send_string
              120A  118A         
  1815                           	line	177
  1816                           	
  1817  03D9                     l5478:	
  1818                           ;PR31_final.c: 177: uart_sendstr("volume level=   ");
  1819  03D9  3016               	movlw	((STR_9-__stringbase))&0ffh
  1820  03DA  120A  158A  246C   	fcall	_uart_sendstr
              120A  118A         
  1821                           	line	178
  1822                           	
  1823  03DF                     l5480:	
  1824                           ;PR31_final.c: 178: m -= 1;
  1825  03DF  3001               	movlw	low(01h)
  1826  03E0  1283               	bcf	status, 5	;RP0=0, select bank0
  1827  03E1  1303               	bcf	status, 6	;RP1=0, select bank0
  1828  03E2  02E8               	subwf	(_m),f
  1829                           	line	179
  1830                           	
  1831  03E3                     l5482:	
  1832                           ;PR31_final.c: 179: adjust_vol ();
  1833  03E3  120A  118A  2106   	fcall	_adjust_vol
              120A  118A         
  1834  03E8  2BA8               	goto	l758
  1835                           	line	180
  1836                           	
  1837  03E9                     l763:	
  1838  03E9  2BA8               	goto	l758
  1839                           	line	182
  1840                           	
  1841  03EA                     l767:	
  1842                           	line	162
  1843  03EA  2BA8               	goto	l758
  1844                           	
  1845  03EB                     l768:	
  1846                           	line	183
  1847                           	
  1848  03EB                     l769:	
  1849                           	global	start
  1850  03EB  120A  118A  2800   	ljmp	start
  1851                           	opt stack 0
  1852                           GLOBAL	__end_of_main
  1853  03EE                     	__end_of_main:
  1854 ;; =============== function _main ends ============
  1855                           
  1856                           	signat	_main,88
  1857                           	global	_adjust_channel
  1858                           psect	text623,local,class=CODE,delta=2
  1859                           global __ptext623
  1860  051E                     __ptext623:
  1861                           
  1862 ;; *************** function _adjust_channel *****************
  1863 ;; Defined at:
  1864 ;;		line 209 in file "../../Source file/PR31_final.c"
  1865 ;; Parameters:    Size  Location     Type
  1866 ;;		None
  1867 ;; Auto vars:     Size  Location     Type
  1868 ;;  press           2   38[BANK0 ] unsigned int 
  1869 ;;  press           2   36[BANK0 ] unsigned int 
  1870 ;;  press           2   34[BANK0 ] unsigned int 
  1871 ;; Return value:  Size  Location     Type
  1872 ;;		None               void
  1873 ;; Registers used:
  1874 ;;		wreg, fsr0l, fsr0h, status,2, status,0, btemp+1, pclath, cstack
  1875 ;; Tracked objects:
  1876 ;;		On entry : 0/0
  1877 ;;		On exit  : 0/0
  1878 ;;		Unchanged: 0/0
  1879 ;; Data sizes:     COMMON   BANK0   BANK1   BANK3   BANK2
  1880 ;;      Params:         0       0       0       0       0
  1881 ;;      Locals:         0       6       0       0       0
  1882 ;;      Temps:          0       0       0       0       0
  1883 ;;      Totals:         0       6       0       0       0
  1884 ;;Total ram usage:        6 bytes
  1885 ;; Hardware stack levels used:    1
  1886 ;; Hardware stack levels required when called:    6
  1887 ;; This function calls:
  1888 ;;		_decrease_chan
  1889 ;;		_delay
  1890 ;;		_increase_chan
  1891 ;;		_eprom_write
  1892 ;;		_lcd_clr
  1893 ;;		_send_string
  1894 ;;		_uart_sendstr
  1895 ;;		_send_char
  1896 ;;		_uart_tx
  1897 ;;		_send_dec
  1898 ;;		_switch_channel
  1899 ;;		_lcd_goto
  1900 ;;		_adjust_vol
  1901 ;; This function is called by:
  1902 ;;		_main
  1903 ;; This function uses a non-reentrant model
  1904 ;;
  1905                           psect	text623
  1906                           	file	"../../Source file/PR31_final.c"
  1907                           	line	209
  1908                           	global	__size_of_adjust_channel
  1909  014D                     	__size_of_adjust_channel	equ	__end_of_adjust_channel-_adjust_channel
  1910                           	
  1911  051E                     _adjust_channel:	
  1912                           	opt	stack 1
  1913                           ; Regs used in _adjust_channel: [wreg-fsr0h+status,2+status,0+btemp+1+pclath+cstack]
  1914                           	line	210
  1915                           ;PR31_final.c: 210: while(1)
  1916                           	
  1917  051E                     l776:	
  1918                           	line	212
  1919                           ;PR31_final.c: 211: {
  1920                           ;PR31_final.c: 212: if (RB3 == 0)
  1921  051E  1283               	bcf	status, 5	;RP0=0, select bank0
  1922  051F  1303               	bcf	status, 6	;RP1=0, select bank0
  1923  0520  1986               	btfsc	(51/8),(51)&7
  1924  0521  2D23               	goto	u4061
  1925  0522  2D24               	goto	u4060
  1926  0523                     u4061:
  1927  0523  2D64               	goto	l5356
  1928  0524                     u4060:
  1929                           	line	214
  1930                           	
  1931  0524                     l5342:	
  1932                           ;PR31_final.c: 213: {
  1933                           ;PR31_final.c: 214: unsigned int press=0;
  1934  0524  01C2               	clrf	(adjust_channel@press)
  1935  0525  01C3               	clrf	(adjust_channel@press+1)
  1936                           	line	215
  1937                           ;PR31_final.c: 215: while (RB3==0)
  1938  0526  2D4A               	goto	l5350
  1939                           	
  1940  0527                     l779:	
  1941                           	line	217
  1942                           	
  1943  0527                     l5344:	
  1944                           ;PR31_final.c: 216: {
  1945                           ;PR31_final.c: 217: press += 1;
  1946  0527  3001               	movlw	low(01h)
  1947  0528  07C2               	addwf	(adjust_channel@press),f
  1948  0529  1803               	skipnc
  1949  052A  0AC3               	incf	(adjust_channel@press+1),f
  1950  052B  3000               	movlw	high(01h)
  1951  052C  07C3               	addwf	(adjust_channel@press+1),f
  1952                           	line	218
  1953                           ;PR31_final.c: 218: if (press >= 650)
  1954  052D  3002               	movlw	high(028Ah)
  1955  052E  0243               	subwf	(adjust_channel@press+1),w
  1956  052F  308A               	movlw	low(028Ah)
  1957  0530  1903               	skipnz
  1958  0531  0242               	subwf	(adjust_channel@press),w
  1959  0532  1C03               	skipc
  1960  0533  2D35               	goto	u4071
  1961  0534  2D36               	goto	u4070
  1962  0535                     u4071:
  1963  0535  2D3C               	goto	l5348
  1964  0536                     u4070:
  1965                           	line	219
  1966                           	
  1967  0536                     l5346:	
  1968                           ;PR31_final.c: 219: decrease_chan();
  1969  0536  120A  158A  265D   	fcall	_decrease_chan
              120A  118A         
  1970  053B  2D3C               	goto	l5348
  1971                           	
  1972  053C                     l780:	
  1973                           	line	220
  1974                           	
  1975  053C                     l5348:	
  1976                           ;PR31_final.c: 220: delay(100);
  1977  053C  3000               	movlw	0
  1978  053D  00F3               	movwf	(?_delay+3)
  1979  053E  3000               	movlw	0
  1980  053F  00F2               	movwf	(?_delay+2)
  1981  0540  3000               	movlw	0
  1982  0541  00F1               	movwf	(?_delay+1)
  1983  0542  3064               	movlw	064h
  1984  0543  00F0               	movwf	(?_delay)
  1985                           
  1986  0544  120A  118A  202B   	fcall	_delay
              120A  118A         
  1987  0549  2D4A               	goto	l5350
  1988                           	line	221
  1989                           	
  1990  054A                     l778:	
  1991                           	line	215
  1992                           	
  1993  054A                     l5350:	
  1994  054A  1283               	bcf	status, 5	;RP0=0, select bank0
  1995  054B  1303               	bcf	status, 6	;RP1=0, select bank0
  1996  054C  1D86               	btfss	(51/8),(51)&7
  1997  054D  2D4F               	goto	u4081
  1998  054E  2D50               	goto	u4080
  1999  054F                     u4081:
  2000  054F  2D27               	goto	l5344
  2001  0550                     u4080:
  2002  0550  2D51               	goto	l5352
  2003                           	
  2004  0551                     l781:	
  2005                           	line	222
  2006                           	
  2007  0551                     l5352:	
  2008                           ;PR31_final.c: 221: }
  2009                           ;PR31_final.c: 222: decrease_chan();
  2010  0551  120A  158A  265D   	fcall	_decrease_chan
              120A  118A         
  2011                           	line	223
  2012                           	
  2013  0556                     l5354:	
  2014                           ;PR31_final.c: 223: delay(1000);
  2015  0556  3000               	movlw	0
  2016  0557  00F3               	movwf	(?_delay+3)
  2017  0558  3000               	movlw	0
  2018  0559  00F2               	movwf	(?_delay+2)
  2019  055A  3003               	movlw	03h
  2020  055B  00F1               	movwf	(?_delay+1)
  2021  055C  30E8               	movlw	0E8h
  2022  055D  00F0               	movwf	(?_delay)
  2023                           
  2024  055E  120A  118A  202B   	fcall	_delay
              120A  118A         
  2025  0563  2D64               	goto	l5356
  2026                           	line	224
  2027                           	
  2028  0564                     l777:	
  2029                           	line	226
  2030                           	
  2031  0564                     l5356:	
  2032                           ;PR31_final.c: 224: }
  2033                           ;PR31_final.c: 226: if (RB2 == 0)
  2034  0564  1283               	bcf	status, 5	;RP0=0, select bank0
  2035  0565  1303               	bcf	status, 6	;RP1=0, select bank0
  2036  0566  1906               	btfsc	(50/8),(50)&7
  2037  0567  2D69               	goto	u4091
  2038  0568  2D6A               	goto	u4090
  2039  0569                     u4091:
  2040  0569  2DAA               	goto	l5372
  2041  056A                     u4090:
  2042                           	line	228
  2043                           	
  2044  056A                     l5358:	
  2045                           ;PR31_final.c: 227: {
  2046                           ;PR31_final.c: 228: unsigned int press=0;
  2047  056A  01C4               	clrf	(adjust_channel@press_1370)
  2048  056B  01C5               	clrf	(adjust_channel@press_1370+1)
  2049                           	line	229
  2050                           ;PR31_final.c: 229: while (RB2==0)
  2051  056C  2D90               	goto	l5366
  2052                           	
  2053  056D                     l784:	
  2054                           	line	231
  2055                           	
  2056  056D                     l5360:	
  2057                           ;PR31_final.c: 230: {
  2058                           ;PR31_final.c: 231: press += 1;
  2059  056D  3001               	movlw	low(01h)
  2060  056E  07C4               	addwf	(adjust_channel@press_1370),f
  2061  056F  1803               	skipnc
  2062  0570  0AC5               	incf	(adjust_channel@press_1370+1),f
  2063  0571  3000               	movlw	high(01h)
  2064  0572  07C5               	addwf	(adjust_channel@press_1370+1),f
  2065                           	line	232
  2066                           ;PR31_final.c: 232: if (press >= 650)
  2067  0573  3002               	movlw	high(028Ah)
  2068  0574  0245               	subwf	(adjust_channel@press_1370+1),w
  2069  0575  308A               	movlw	low(028Ah)
  2070  0576  1903               	skipnz
  2071  0577  0244               	subwf	(adjust_channel@press_1370),w
  2072  0578  1C03               	skipc
  2073  0579  2D7B               	goto	u4101
  2074  057A  2D7C               	goto	u4100
  2075  057B                     u4101:
  2076  057B  2D82               	goto	l5364
  2077  057C                     u4100:
  2078                           	line	233
  2079                           	
  2080  057C                     l5362:	
  2081                           ;PR31_final.c: 233: increase_chan();
  2082  057C  120A  158A  2587   	fcall	_increase_chan
              120A  118A         
  2083  0581  2D82               	goto	l5364
  2084                           	
  2085  0582                     l785:	
  2086                           	line	234
  2087                           	
  2088  0582                     l5364:	
  2089                           ;PR31_final.c: 234: delay(100);
  2090  0582  3000               	movlw	0
  2091  0583  00F3               	movwf	(?_delay+3)
  2092  0584  3000               	movlw	0
  2093  0585  00F2               	movwf	(?_delay+2)
  2094  0586  3000               	movlw	0
  2095  0587  00F1               	movwf	(?_delay+1)
  2096  0588  3064               	movlw	064h
  2097  0589  00F0               	movwf	(?_delay)
  2098                           
  2099  058A  120A  118A  202B   	fcall	_delay
              120A  118A         
  2100  058F  2D90               	goto	l5366
  2101                           	line	235
  2102                           	
  2103  0590                     l783:	
  2104                           	line	229
  2105                           	
  2106  0590                     l5366:	
  2107  0590  1283               	bcf	status, 5	;RP0=0, select bank0
  2108  0591  1303               	bcf	status, 6	;RP1=0, select bank0
  2109  0592  1D06               	btfss	(50/8),(50)&7
  2110  0593  2D95               	goto	u4111
  2111  0594  2D96               	goto	u4110
  2112  0595                     u4111:
  2113  0595  2D6D               	goto	l5360
  2114  0596                     u4110:
  2115  0596  2D97               	goto	l5368
  2116                           	
  2117  0597                     l786:	
  2118                           	line	236
  2119                           	
  2120  0597                     l5368:	
  2121                           ;PR31_final.c: 235: }
  2122                           ;PR31_final.c: 236: increase_chan();
  2123  0597  120A  158A  2587   	fcall	_increase_chan
              120A  118A         
  2124                           	line	237
  2125                           	
  2126  059C                     l5370:	
  2127                           ;PR31_final.c: 237: delay(1000);
  2128  059C  3000               	movlw	0
  2129  059D  00F3               	movwf	(?_delay+3)
  2130  059E  3000               	movlw	0
  2131  059F  00F2               	movwf	(?_delay+2)
  2132  05A0  3003               	movlw	03h
  2133  05A1  00F1               	movwf	(?_delay+1)
  2134  05A2  30E8               	movlw	0E8h
  2135  05A3  00F0               	movwf	(?_delay)
  2136                           
  2137  05A4  120A  118A  202B   	fcall	_delay
              120A  118A         
  2138  05A9  2DAA               	goto	l5372
  2139                           	line	238
  2140                           	
  2141  05AA                     l782:	
  2142                           	line	240
  2143                           	
  2144  05AA                     l5372:	
  2145                           ;PR31_final.c: 238: }
  2146                           ;PR31_final.c: 240: if (RB0 == 0)
  2147  05AA  1283               	bcf	status, 5	;RP0=0, select bank0
  2148  05AB  1303               	bcf	status, 6	;RP1=0, select bank0
  2149  05AC  1806               	btfsc	(48/8),(48)&7
  2150  05AD  2DAF               	goto	u4121
  2151  05AE  2DB0               	goto	u4120
  2152  05AF                     u4121:
  2153  05AF  2E3F               	goto	l5400
  2154  05B0                     u4120:
  2155                           	line	241
  2156                           	
  2157  05B0                     l5374:	
  2158                           ;PR31_final.c: 241: { unsigned int press=0;
  2159  05B0  01C6               	clrf	(adjust_channel@press_1371)
  2160  05B1  01C7               	clrf	(adjust_channel@press_1371+1)
  2161                           	line	242
  2162                           ;PR31_final.c: 242: while (RB0==0)
  2163  05B2  2E32               	goto	l5396
  2164                           	
  2165  05B3                     l789:	
  2166                           	line	244
  2167                           	
  2168  05B3                     l5376:	
  2169                           ;PR31_final.c: 243: {
  2170                           ;PR31_final.c: 244: press += 1;
  2171  05B3  3001               	movlw	low(01h)
  2172  05B4  07C6               	addwf	(adjust_channel@press_1371),f
  2173  05B5  1803               	skipnc
  2174  05B6  0AC7               	incf	(adjust_channel@press_1371+1),f
  2175  05B7  3000               	movlw	high(01h)
  2176  05B8  07C7               	addwf	(adjust_channel@press_1371+1),f
  2177                           	line	245
  2178                           ;PR31_final.c: 245: if (press >= 1300)
  2179  05B9  3005               	movlw	high(0514h)
  2180  05BA  0247               	subwf	(adjust_channel@press_1371+1),w
  2181  05BB  3014               	movlw	low(0514h)
  2182  05BC  1903               	skipnz
  2183  05BD  0246               	subwf	(adjust_channel@press_1371),w
  2184  05BE  1C03               	skipc
  2185  05BF  2DC1               	goto	u4131
  2186  05C0  2DC2               	goto	u4130
  2187  05C1                     u4131:
  2188  05C1  2E24               	goto	l5394
  2189  05C2                     u4130:
  2190                           	line	247
  2191                           	
  2192  05C2                     l5378:	
  2193                           ;PR31_final.c: 246: {
  2194                           ;PR31_final.c: 247: eprom_write(m,currentChannel);
  2195  05C2  085E               	movf	(_currentChannel+1),w
  2196  05C3  01F1               	clrf	(?_eprom_write+1)
  2197  05C4  07F1               	addwf	(?_eprom_write+1)
  2198  05C5  085D               	movf	(_currentChannel),w
  2199  05C6  01F0               	clrf	(?_eprom_write)
  2200  05C7  07F0               	addwf	(?_eprom_write)
  2201                           
  2202  05C8  0868               	movf	(_m),w
  2203  05C9  120A  158A  23C2   	fcall	_eprom_write
              120A  118A         
  2204                           	line	248
  2205                           ;PR31_final.c: 248: lcd_clr();
  2206  05CE  120A  158A  238B   	fcall	_lcd_clr
              120A  118A         
  2207                           	line	249
  2208                           	
  2209  05D3                     l5380:	
  2210                           ;PR31_final.c: 249: send_string("channel ");
  2211  05D3  304D               	movlw	((STR_12-__stringbase))&0ffh
  2212  05D4  120A  118A  2004   	fcall	_send_string
              120A  118A         
  2213                           	line	250
  2214                           	
  2215  05D9                     l5382:	
  2216                           ;PR31_final.c: 250: uart_sendstr("channel ");
  2217  05D9  304D               	movlw	((STR_13-__stringbase))&0ffh
  2218  05DA  120A  158A  246C   	fcall	_uart_sendstr
              120A  118A         
  2219                           	line	251
  2220                           ;PR31_final.c: 251: send_char(0x30+m);
  2221  05DF  1283               	bcf	status, 5	;RP0=0, select bank0
  2222  05E0  1303               	bcf	status, 6	;RP1=0, select bank0
  2223  05E1  0868               	movf	(_m),w
  2224  05E2  3E30               	addlw	030h
  2225  05E3  120A  158A  2372   	fcall	_send_char
              120A  118A         
  2226                           	line	252
  2227                           ;PR31_final.c: 252: uart_tx(0x30+m);
  2228  05E8  1283               	bcf	status, 5	;RP0=0, select bank0
  2229  05E9  1303               	bcf	status, 6	;RP1=0, select bank0
  2230  05EA  0868               	movf	(_m),w
  2231  05EB  3E30               	addlw	030h
  2232  05EC  120A  158A  2304   	fcall	_uart_tx
              120A  118A         
  2233                           	line	253
  2234                           	
  2235  05F1                     l5384:	
  2236                           ;PR31_final.c: 253: send_string(" setted");
  2237  05F1  3056               	movlw	((STR_14-__stringbase))&0ffh
  2238  05F2  120A  118A  2004   	fcall	_send_string
              120A  118A         
  2239                           	line	254
  2240                           	
  2241  05F7                     l5386:	
  2242                           ;PR31_final.c: 254: uart_sendstr(" setted");
  2243  05F7  3056               	movlw	((STR_15-__stringbase))&0ffh
  2244  05F8  120A  158A  246C   	fcall	_uart_sendstr
              120A  118A         
  2245                           	line	255
  2246                           	
  2247  05FD                     l5388:	
  2248                           ;PR31_final.c: 255: send_dec(currentChannel);
  2249  05FD  1283               	bcf	status, 5	;RP0=0, select bank0
  2250  05FE  1303               	bcf	status, 6	;RP1=0, select bank0
  2251  05FF  0860               	movf	(_currentChannel+3),w
  2252  0600  00A3               	movwf	(?_send_dec+3)
  2253  0601  085F               	movf	(_currentChannel+2),w
  2254  0602  00A2               	movwf	(?_send_dec+2)
  2255  0603  085E               	movf	(_currentChannel+1),w
  2256  0604  00A1               	movwf	(?_send_dec+1)
  2257  0605  085D               	movf	(_currentChannel),w
  2258  0606  00A0               	movwf	(?_send_dec)
  2259                           
  2260  0607  120A  118A  266B   	fcall	_send_dec
              120A  118A         
  2261                           	line	256
  2262                           ;PR31_final.c: 256: while (RB0==0);
  2263  060C  2E0D               	goto	l791
  2264                           	
  2265  060D                     l792:	
  2266                           	
  2267  060D                     l791:	
  2268  060D  1283               	bcf	status, 5	;RP0=0, select bank0
  2269  060E  1303               	bcf	status, 6	;RP1=0, select bank0
  2270  060F  1C06               	btfss	(48/8),(48)&7
  2271  0610  2E12               	goto	u4141
  2272  0611  2E13               	goto	u4140
  2273  0612                     u4141:
  2274  0612  2E0D               	goto	l791
  2275  0613                     u4140:
  2276  0613  2E14               	goto	l5390
  2277                           	
  2278  0614                     l793:	
  2279                           	line	257
  2280                           	
  2281  0614                     l5390:	
  2282                           ;PR31_final.c: 257: m -= 1;
  2283  0614  3001               	movlw	low(01h)
  2284  0615  02E8               	subwf	(_m),f
  2285                           	line	258
  2286                           	
  2287  0616                     l5392:	
  2288                           ;PR31_final.c: 258: delay(2000);
  2289  0616  3000               	movlw	0
  2290  0617  00F3               	movwf	(?_delay+3)
  2291  0618  3000               	movlw	0
  2292  0619  00F2               	movwf	(?_delay+2)
  2293  061A  3007               	movlw	07h
  2294  061B  00F1               	movwf	(?_delay+1)
  2295  061C  30D0               	movlw	0D0h
  2296  061D  00F0               	movwf	(?_delay)
  2297                           
  2298  061E  120A  118A  202B   	fcall	_delay
              120A  118A         
  2299  0623  2E24               	goto	l5394
  2300                           	line	259
  2301                           	
  2302  0624                     l790:	
  2303                           	line	260
  2304                           	
  2305  0624                     l5394:	
  2306                           ;PR31_final.c: 259: }
  2307                           ;PR31_final.c: 260: delay(100);
  2308  0624  3000               	movlw	0
  2309  0625  00F3               	movwf	(?_delay+3)
  2310  0626  3000               	movlw	0
  2311  0627  00F2               	movwf	(?_delay+2)
  2312  0628  3000               	movlw	0
  2313  0629  00F1               	movwf	(?_delay+1)
  2314  062A  3064               	movlw	064h
  2315  062B  00F0               	movwf	(?_delay)
  2316                           
  2317  062C  120A  118A  202B   	fcall	_delay
              120A  118A         
  2318  0631  2E32               	goto	l5396
  2319                           	line	262
  2320                           	
  2321  0632                     l788:	
  2322                           	line	242
  2323                           	
  2324  0632                     l5396:	
  2325  0632  1283               	bcf	status, 5	;RP0=0, select bank0
  2326  0633  1303               	bcf	status, 6	;RP1=0, select bank0
  2327  0634  1C06               	btfss	(48/8),(48)&7
  2328  0635  2E37               	goto	u4151
  2329  0636  2E38               	goto	u4150
  2330  0637                     u4151:
  2331  0637  2DB3               	goto	l5376
  2332  0638                     u4150:
  2333  0638  2E39               	goto	l5398
  2334                           	
  2335  0639                     l794:	
  2336                           	line	263
  2337                           	
  2338  0639                     l5398:	
  2339                           ;PR31_final.c: 262: }
  2340                           ;PR31_final.c: 263: switch_channel();
  2341  0639  120A  158A  2523   	fcall	_switch_channel
              120A  118A         
  2342  063E  2E3F               	goto	l5400
  2343                           	line	264
  2344                           	
  2345  063F                     l787:	
  2346                           	line	266
  2347                           	
  2348  063F                     l5400:	
  2349                           ;PR31_final.c: 264: }
  2350                           ;PR31_final.c: 266: if (RB1 == 0)
  2351  063F  1283               	bcf	status, 5	;RP0=0, select bank0
  2352  0640  1303               	bcf	status, 6	;RP1=0, select bank0
  2353  0641  1886               	btfsc	(49/8),(49)&7
  2354  0642  2E44               	goto	u4161
  2355  0643  2E45               	goto	u4160
  2356  0644                     u4161:
  2357  0644  2D1E               	goto	l776
  2358  0645                     u4160:
  2359  0645  2E47               	goto	l796
  2360                           	line	268
  2361                           	
  2362  0646                     l5402:	
  2363                           ;PR31_final.c: 267: {
  2364                           ;PR31_final.c: 268: while (RB1 == 0);
  2365  0646  2E47               	goto	l796
  2366                           	
  2367  0647                     l797:	
  2368                           	
  2369  0647                     l796:	
  2370  0647  1C86               	btfss	(49/8),(49)&7
  2371  0648  2E4A               	goto	u4171
  2372  0649  2E4B               	goto	u4170
  2373  064A                     u4171:
  2374  064A  2E47               	goto	l796
  2375  064B                     u4170:
  2376  064B  2E4C               	goto	l5404
  2377                           	
  2378  064C                     l798:	
  2379                           	line	269
  2380                           	
  2381  064C                     l5404:	
  2382                           ;PR31_final.c: 269: lcd_goto(0);
  2383  064C  3000               	movlw	(0)
  2384  064D  120A  158A  23A5   	fcall	_lcd_goto
              120A  118A         
  2385                           	line	270
  2386                           	
  2387  0652                     l5406:	
  2388                           ;PR31_final.c: 270: send_string("volume level=   ");
  2389  0652  3016               	movlw	((STR_16-__stringbase))&0ffh
  2390  0653  120A  118A  2004   	fcall	_send_string
              120A  118A         
  2391                           	line	271
  2392                           	
  2393  0658                     l5408:	
  2394                           ;PR31_final.c: 271: uart_sendstr("volume level=   ");
  2395  0658  3016               	movlw	((STR_17-__stringbase))&0ffh
  2396  0659  120A  158A  246C   	fcall	_uart_sendstr
              120A  118A         
  2397                           	line	272
  2398                           	
  2399  065E                     l5410:	
  2400                           ;PR31_final.c: 272: m -= 1;
  2401  065E  3001               	movlw	low(01h)
  2402  065F  1283               	bcf	status, 5	;RP0=0, select bank0
  2403  0660  1303               	bcf	status, 6	;RP1=0, select bank0
  2404  0661  02E8               	subwf	(_m),f
  2405                           	line	273
  2406                           	
  2407  0662                     l5412:	
  2408                           ;PR31_final.c: 273: adjust_vol ();
  2409  0662  120A  118A  2106   	fcall	_adjust_vol
              120A  118A         
  2410  0667  2D1E               	goto	l776
  2411                           	line	274
  2412                           	
  2413  0668                     l795:	
  2414  0668  2D1E               	goto	l776
  2415                           	line	275
  2416                           	
  2417  0669                     l799:	
  2418                           	line	210
  2419  0669  2D1E               	goto	l776
  2420                           	
  2421  066A                     l800:	
  2422                           	line	276
  2423                           	
  2424  066A                     l801:	
  2425  066A  0008               	return
  2426                           	opt stack 0
  2427                           GLOBAL	__end_of_adjust_channel
  2428  066B                     	__end_of_adjust_channel:
  2429 ;; =============== function _adjust_channel ends ============
  2430                           
  2431                           	signat	_adjust_channel,88
  2432                           	global	_increase_chan
  2433                           psect	text624,local,class=CODE,delta=2
  2434                           global __ptext624
  2435  0D87                     __ptext624:
  2436                           
  2437 ;; *************** function _increase_chan *****************
  2438 ;; Defined at:
  2439 ;;		line 292 in file "../../Source file/PR31_final.c"
  2440 ;; Parameters:    Size  Location     Type
  2441 ;;		None
  2442 ;; Auto vars:     Size  Location     Type
  2443 ;;		None
  2444 ;; Return value:  Size  Location     Type
  2445 ;;		None               void
  2446 ;; Registers used:
  2447 ;;		wreg, fsr0l, fsr0h, status,2, status,0, btemp+1, pclath, cstack
  2448 ;; Tracked objects:
  2449 ;;		On entry : 0/0
  2450 ;;		On exit  : 0/0
  2451 ;;		Unchanged: 0/0
  2452 ;; Data sizes:     COMMON   BANK0   BANK1   BANK3   BANK2
  2453 ;;      Params:         0       0       0       0       0
  2454 ;;      Locals:         0       0       0       0       0
  2455 ;;      Temps:          0       0       0       0       0
  2456 ;;      Totals:         0       0       0       0       0
  2457 ;;Total ram usage:        0 bytes
  2458 ;; Hardware stack levels used:    1
  2459 ;; Hardware stack levels required when called:    5
  2460 ;; This function calls:
  2461 ;;		_setAR1000
  2462 ;;		_uart_tx
  2463 ;;		_uart_sendstr
  2464 ;;		_send_dec
  2465 ;;		_delay
  2466 ;; This function is called by:
  2467 ;;		_adjust_channel
  2468 ;; This function uses a non-reentrant model
  2469 ;;
  2470                           psect	text624
  2471                           	file	"../../Source file/PR31_final.c"
  2472                           	line	292
  2473                           	global	__size_of_increase_chan
  2474  0068                     	__size_of_increase_chan	equ	__end_of_increase_chan-_increase_chan
  2475                           	
  2476  0D87                     _increase_chan:	
  2477                           	opt	stack 1
  2478                           ; Regs used in _increase_chan: [wreg-fsr0h+status,2+status,0+btemp+1+pclath+cstack]
  2479                           	line	293
  2480                           	
  2481  0D87                     l5326:	
  2482                           ;PR31_final.c: 293: currentChannel +=1;
  2483  0D87  3001               	movlw	01h
  2484  0D88  1283               	bcf	status, 5	;RP0=0, select bank0
  2485  0D89  1303               	bcf	status, 6	;RP1=0, select bank0
  2486  0D8A  07DD               	addwf	(_currentChannel),f
  2487  0D8B  3000               	movlw	0
  2488  0D8C  1803               	skipnc
  2489  0D8D  3001               movlw 1
  2490  0D8E  07DE               	addwf	(_currentChannel+1),f
  2491  0D8F  3000               	movlw	0
  2492  0D90  1803               	skipnc
  2493  0D91  3001               movlw 1
  2494  0D92  07DF               	addwf	(_currentChannel+2),f
  2495  0D93  3000               	movlw	0
  2496  0D94  1803               	skipnc
  2497  0D95  3001               movlw 1
  2498  0D96  07E0               	addwf	(_currentChannel+3),f
  2499                           	line	294
  2500                           ;PR31_final.c: 294: if ( currentChannel >= 1080 )
  2501  0D97  3000               	movlw	0
  2502  0D98  0260               	subwf	(_currentChannel+3),w
  2503  0D99  1D03               	skipz
  2504  0D9A  2DA5               	goto	u4055
  2505  0D9B  3000               	movlw	0
  2506  0D9C  025F               	subwf	(_currentChannel+2),w
  2507  0D9D  1D03               	skipz
  2508  0D9E  2DA5               	goto	u4055
  2509  0D9F  3004               	movlw	04h
  2510  0DA0  025E               	subwf	(_currentChannel+1),w
  2511  0DA1  1D03               	skipz
  2512  0DA2  2DA5               	goto	u4055
  2513  0DA3  3038               	movlw	038h
  2514  0DA4  025D               	subwf	(_currentChannel),w
  2515  0DA5                     u4055:
  2516  0DA5  1C03               	skipc
  2517  0DA6  2DA8               	goto	u4051
  2518  0DA7  2DA9               	goto	u4050
  2519  0DA8                     u4051:
  2520  0DA8  2DB2               	goto	l5330
  2521  0DA9                     u4050:
  2522                           	line	295
  2523                           	
  2524  0DA9                     l5328:	
  2525                           ;PR31_final.c: 295: currentChannel = 875;
  2526  0DA9  3000               	movlw	0
  2527  0DAA  00E0               	movwf	(_currentChannel+3)
  2528  0DAB  3000               	movlw	0
  2529  0DAC  00DF               	movwf	(_currentChannel+2)
  2530  0DAD  3003               	movlw	03h
  2531  0DAE  00DE               	movwf	(_currentChannel+1)
  2532  0DAF  306B               	movlw	06Bh
  2533  0DB0  00DD               	movwf	(_currentChannel)
  2534                           
  2535  0DB1  2DB2               	goto	l5330
  2536                           	
  2537  0DB2                     l808:	
  2538                           	line	296
  2539                           	
  2540  0DB2                     l5330:	
  2541                           ;PR31_final.c: 296: setAR1000 (currentChannel);
  2542  0DB2  085E               	movf	(_currentChannel+1),w
  2543  0DB3  01AA               	clrf	(?_setAR1000+1)
  2544  0DB4  07AA               	addwf	(?_setAR1000+1)
  2545  0DB5  085D               	movf	(_currentChannel),w
  2546  0DB6  01A9               	clrf	(?_setAR1000)
  2547  0DB7  07A9               	addwf	(?_setAR1000)
  2548                           
  2549  0DB8  120A  118A  21B1   	fcall	_setAR1000
              120A  158A         
  2550                           	line	297
  2551                           	
  2552  0DBD                     l5332:	
  2553                           ;PR31_final.c: 297: uart_tx(0x0C);
  2554  0DBD  300C               	movlw	(0Ch)
  2555  0DBE  120A  158A  2304   	fcall	_uart_tx
              120A  158A         
  2556                           	line	298
  2557                           	
  2558  0DC3                     l5334:	
  2559                           ;PR31_final.c: 298: uart_sendstr("channel ");
  2560  0DC3  304D               	movlw	((STR_19-__stringbase))&0ffh
  2561  0DC4  120A  158A  246C   	fcall	_uart_sendstr
              120A  158A         
  2562                           	line	299
  2563                           	
  2564  0DC9                     l5336:	
  2565                           ;PR31_final.c: 299: uart_tx(0x30+m);
  2566  0DC9  1283               	bcf	status, 5	;RP0=0, select bank0
  2567  0DCA  1303               	bcf	status, 6	;RP1=0, select bank0
  2568  0DCB  0868               	movf	(_m),w
  2569  0DCC  3E30               	addlw	030h
  2570  0DCD  120A  158A  2304   	fcall	_uart_tx
              120A  158A         
  2571                           	line	300
  2572                           	
  2573  0DD2                     l5338:	
  2574                           ;PR31_final.c: 300: send_dec(currentChannel);
  2575  0DD2  1283               	bcf	status, 5	;RP0=0, select bank0
  2576  0DD3  1303               	bcf	status, 6	;RP1=0, select bank0
  2577  0DD4  0860               	movf	(_currentChannel+3),w
  2578  0DD5  00A3               	movwf	(?_send_dec+3)
  2579  0DD6  085F               	movf	(_currentChannel+2),w
  2580  0DD7  00A2               	movwf	(?_send_dec+2)
  2581  0DD8  085E               	movf	(_currentChannel+1),w
  2582  0DD9  00A1               	movwf	(?_send_dec+1)
  2583  0DDA  085D               	movf	(_currentChannel),w
  2584  0DDB  00A0               	movwf	(?_send_dec)
  2585                           
  2586  0DDC  120A  118A  266B   	fcall	_send_dec
              120A  158A         
  2587                           	line	301
  2588                           	
  2589  0DE1                     l5340:	
  2590                           ;PR31_final.c: 301: delay(1500);
  2591  0DE1  3000               	movlw	0
  2592  0DE2  00F3               	movwf	(?_delay+3)
  2593  0DE3  3000               	movlw	0
  2594  0DE4  00F2               	movwf	(?_delay+2)
  2595  0DE5  3005               	movlw	05h
  2596  0DE6  00F1               	movwf	(?_delay+1)
  2597  0DE7  30DC               	movlw	0DCh
  2598  0DE8  00F0               	movwf	(?_delay)
  2599                           
  2600  0DE9  120A  118A  202B   	fcall	_delay
              120A  158A         
  2601                           	line	302
  2602                           	
  2603  0DEE                     l809:	
  2604  0DEE  0008               	return
  2605                           	opt stack 0
  2606                           GLOBAL	__end_of_increase_chan
  2607  0DEF                     	__end_of_increase_chan:
  2608 ;; =============== function _increase_chan ends ============
  2609                           
  2610                           	signat	_increase_chan,88
  2611                           	global	_decrease_chan
  2612                           psect	text625,local,class=CODE,delta=2
  2613                           global __ptext625
  2614  0E5D                     __ptext625:
  2615                           
  2616 ;; *************** function _decrease_chan *****************
  2617 ;; Defined at:
  2618 ;;		line 279 in file "../../Source file/PR31_final.c"
  2619 ;; Parameters:    Size  Location     Type
  2620 ;;		None
  2621 ;; Auto vars:     Size  Location     Type
  2622 ;;		None
  2623 ;; Return value:  Size  Location     Type
  2624 ;;		None               void
  2625 ;; Registers used:
  2626 ;;		wreg, fsr0l, fsr0h, status,2, status,0, btemp+1, pclath, cstack
  2627 ;; Tracked objects:
  2628 ;;		On entry : 0/0
  2629 ;;		On exit  : 0/0
  2630 ;;		Unchanged: 0/0
  2631 ;; Data sizes:     COMMON   BANK0   BANK1   BANK3   BANK2
  2632 ;;      Params:         0       0       0       0       0
  2633 ;;      Locals:         0       0       0       0       0
  2634 ;;      Temps:          0       4       0       0       0
  2635 ;;      Totals:         0       4       0       0       0
  2636 ;;Total ram usage:        4 bytes
  2637 ;; Hardware stack levels used:    1
  2638 ;; Hardware stack levels required when called:    5
  2639 ;; This function calls:
  2640 ;;		_setAR1000
  2641 ;;		_uart_tx
  2642 ;;		_uart_sendstr
  2643 ;;		_send_dec
  2644 ;;		_delay
  2645 ;; This function is called by:
  2646 ;;		_adjust_channel
  2647 ;; This function uses a non-reentrant model
  2648 ;;
  2649                           psect	text625
  2650                           	file	"../../Source file/PR31_final.c"
  2651                           	line	279
  2652                           	global	__size_of_decrease_chan
  2653  0076                     	__size_of_decrease_chan	equ	__end_of_decrease_chan-_decrease_chan
  2654                           	
  2655  0E5D                     _decrease_chan:	
  2656                           	opt	stack 1
  2657                           ; Regs used in _decrease_chan: [wreg-fsr0h+status,2+status,0+btemp+1+pclath+cstack]
  2658                           	line	280
  2659                           	
  2660  0E5D                     l5310:	
  2661                           ;PR31_final.c: 280: currentChannel -=1;
  2662  0E5D  3001               	movlw	01h
  2663  0E5E  1283               	bcf	status, 5	;RP0=0, select bank0
  2664  0E5F  1303               	bcf	status, 6	;RP1=0, select bank0
  2665  0E60  00BE               	movwf	((??_decrease_chan+0)+0)
  2666  0E61  3000               	movlw	0
  2667  0E62  00BF               	movwf	((??_decrease_chan+0)+0+1)
  2668  0E63  3000               	movlw	0
  2669  0E64  00C0               	movwf	((??_decrease_chan+0)+0+2)
  2670  0E65  3000               	movlw	0
  2671  0E66  00C1               	movwf	((??_decrease_chan+0)+0+3)
  2672  0E67  083E               	movf	0+(??_decrease_chan+0)+0,w
  2673  0E68  02DD               	subwf	(_currentChannel),f
  2674  0E69  083F               	movf	1+(??_decrease_chan+0)+0,w
  2675  0E6A  1C03               	skipc
  2676  0E6B  0F3F               	incfsz	1+(??_decrease_chan+0)+0,w
  2677  0E6C  2E6E               	goto	u4035
  2678  0E6D  2E6F               	goto	u4036
  2679  0E6E                     u4035:
  2680  0E6E  02DE               	subwf	(_currentChannel+1),f
  2681  0E6F                     u4036:
  2682  0E6F  0840               	movf	2+(??_decrease_chan+0)+0,w
  2683  0E70  1C03               	skipc
  2684  0E71  0F40               	incfsz	2+(??_decrease_chan+0)+0,w
  2685  0E72  2E74               	goto	u4037
  2686  0E73  2E75               	goto	u4038
  2687  0E74                     u4037:
  2688  0E74  02DF               	subwf	(_currentChannel+2),f
  2689  0E75                     u4038:
  2690  0E75  0841               	movf	3+(??_decrease_chan+0)+0,w
  2691  0E76  1C03               	skipc
  2692  0E77  0F41               	incfsz	3+(??_decrease_chan+0)+0,w
  2693  0E78  2E7A               	goto	u4039
  2694  0E79  2E7B               	goto	u4030
  2695  0E7A                     u4039:
  2696  0E7A  02E0               	subwf	(_currentChannel+3),f
  2697  0E7B                     u4030:
  2698                           
  2699                           	line	281
  2700                           ;PR31_final.c: 281: if ( currentChannel <= 875 )
  2701  0E7B  3000               	movlw	0
  2702  0E7C  0260               	subwf	(_currentChannel+3),w
  2703  0E7D  1D03               	skipz
  2704  0E7E  2E89               	goto	u4045
  2705  0E7F  3000               	movlw	0
  2706  0E80  025F               	subwf	(_currentChannel+2),w
  2707  0E81  1D03               	skipz
  2708  0E82  2E89               	goto	u4045
  2709  0E83  3003               	movlw	03h
  2710  0E84  025E               	subwf	(_currentChannel+1),w
  2711  0E85  1D03               	skipz
  2712  0E86  2E89               	goto	u4045
  2713  0E87  306C               	movlw	06Ch
  2714  0E88  025D               	subwf	(_currentChannel),w
  2715  0E89                     u4045:
  2716  0E89  1803               	skipnc
  2717  0E8A  2E8C               	goto	u4041
  2718  0E8B  2E8D               	goto	u4040
  2719  0E8C                     u4041:
  2720  0E8C  2E96               	goto	l5314
  2721  0E8D                     u4040:
  2722                           	line	282
  2723                           	
  2724  0E8D                     l5312:	
  2725                           ;PR31_final.c: 282: currentChannel = 1080;
  2726  0E8D  3000               	movlw	0
  2727  0E8E  00E0               	movwf	(_currentChannel+3)
  2728  0E8F  3000               	movlw	0
  2729  0E90  00DF               	movwf	(_currentChannel+2)
  2730  0E91  3004               	movlw	04h
  2731  0E92  00DE               	movwf	(_currentChannel+1)
  2732  0E93  3038               	movlw	038h
  2733  0E94  00DD               	movwf	(_currentChannel)
  2734                           
  2735  0E95  2E96               	goto	l5314
  2736                           	
  2737  0E96                     l804:	
  2738                           	line	283
  2739                           	
  2740  0E96                     l5314:	
  2741                           ;PR31_final.c: 283: setAR1000 (currentChannel);
  2742  0E96  085E               	movf	(_currentChannel+1),w
  2743  0E97  01AA               	clrf	(?_setAR1000+1)
  2744  0E98  07AA               	addwf	(?_setAR1000+1)
  2745  0E99  085D               	movf	(_currentChannel),w
  2746  0E9A  01A9               	clrf	(?_setAR1000)
  2747  0E9B  07A9               	addwf	(?_setAR1000)
  2748                           
  2749  0E9C  120A  118A  21B1   	fcall	_setAR1000
              120A  158A         
  2750                           	line	284
  2751                           	
  2752  0EA1                     l5316:	
  2753                           ;PR31_final.c: 284: uart_tx(0x0C);
  2754  0EA1  300C               	movlw	(0Ch)
  2755  0EA2  120A  158A  2304   	fcall	_uart_tx
              120A  158A         
  2756                           	line	285
  2757                           	
  2758  0EA7                     l5318:	
  2759                           ;PR31_final.c: 285: uart_sendstr("channel ");
  2760  0EA7  304D               	movlw	((STR_18-__stringbase))&0ffh
  2761  0EA8  120A  158A  246C   	fcall	_uart_sendstr
              120A  158A         
  2762                           	line	286
  2763                           	
  2764  0EAD                     l5320:	
  2765                           ;PR31_final.c: 286: uart_tx(0x30+m);
  2766  0EAD  1283               	bcf	status, 5	;RP0=0, select bank0
  2767  0EAE  1303               	bcf	status, 6	;RP1=0, select bank0
  2768  0EAF  0868               	movf	(_m),w
  2769  0EB0  3E30               	addlw	030h
  2770  0EB1  120A  158A  2304   	fcall	_uart_tx
              120A  158A         
  2771                           	line	287
  2772                           	
  2773  0EB6                     l5322:	
  2774                           ;PR31_final.c: 287: send_dec(currentChannel);
  2775  0EB6  1283               	bcf	status, 5	;RP0=0, select bank0
  2776  0EB7  1303               	bcf	status, 6	;RP1=0, select bank0
  2777  0EB8  0860               	movf	(_currentChannel+3),w
  2778  0EB9  00A3               	movwf	(?_send_dec+3)
  2779  0EBA  085F               	movf	(_currentChannel+2),w
  2780  0EBB  00A2               	movwf	(?_send_dec+2)
  2781  0EBC  085E               	movf	(_currentChannel+1),w
  2782  0EBD  00A1               	movwf	(?_send_dec+1)
  2783  0EBE  085D               	movf	(_currentChannel),w
  2784  0EBF  00A0               	movwf	(?_send_dec)
  2785                           
  2786  0EC0  120A  118A  266B   	fcall	_send_dec
              120A  158A         
  2787                           	line	288
  2788                           	
  2789  0EC5                     l5324:	
  2790                           ;PR31_final.c: 288: delay(1500);
  2791  0EC5  3000               	movlw	0
  2792  0EC6  00F3               	movwf	(?_delay+3)
  2793  0EC7  3000               	movlw	0
  2794  0EC8  00F2               	movwf	(?_delay+2)
  2795  0EC9  3005               	movlw	05h
  2796  0ECA  00F1               	movwf	(?_delay+1)
  2797  0ECB  30DC               	movlw	0DCh
  2798  0ECC  00F0               	movwf	(?_delay)
  2799                           
  2800  0ECD  120A  118A  202B   	fcall	_delay
              120A  158A         
  2801                           	line	289
  2802                           	
  2803  0ED2                     l805:	
  2804  0ED2  0008               	return
  2805                           	opt stack 0
  2806                           GLOBAL	__end_of_decrease_chan
  2807  0ED3                     	__end_of_decrease_chan:
  2808 ;; =============== function _decrease_chan ends ============
  2809                           
  2810                           	signat	_decrease_chan,88
  2811                           	global	_switch_channel
  2812                           psect	text626,local,class=CODE,delta=2
  2813                           global __ptext626
  2814  0D23                     __ptext626:
  2815                           
  2816 ;; *************** function _switch_channel *****************
  2817 ;; Defined at:
  2818 ;;		line 192 in file "../../Source file/PR31_final.c"
  2819 ;; Parameters:    Size  Location     Type
  2820 ;;		None
  2821 ;; Auto vars:     Size  Location     Type
  2822 ;;		None
  2823 ;; Return value:  Size  Location     Type
  2824 ;;		None               void
  2825 ;; Registers used:
  2826 ;;		wreg, fsr0l, fsr0h, status,2, status,0, btemp+1, pclath, cstack
  2827 ;; Tracked objects:
  2828 ;;		On entry : 0/0
  2829 ;;		On exit  : 0/0
  2830 ;;		Unchanged: 0/0
  2831 ;; Data sizes:     COMMON   BANK0   BANK1   BANK3   BANK2
  2832 ;;      Params:         0       0       0       0       0
  2833 ;;      Locals:         0       0       0       0       0
  2834 ;;      Temps:          0       1       0       0       0
  2835 ;;      Totals:         0       1       0       0       0
  2836 ;;Total ram usage:        1 bytes
  2837 ;; Hardware stack levels used:    1
  2838 ;; Hardware stack levels required when called:    5
  2839 ;; This function calls:
  2840 ;;		_lcd_clr
  2841 ;;		_send_string
  2842 ;;		_uart_tx
  2843 ;;		_uart_sendstr
  2844 ;;		_send_char
  2845 ;;		_eprom_read
  2846 ;;		_setAR1000
  2847 ;;		_send_dec
  2848 ;; This function is called by:
  2849 ;;		_main
  2850 ;;		_adjust_channel
  2851 ;; This function uses a non-reentrant model
  2852 ;;
  2853                           psect	text626
  2854                           	file	"../../Source file/PR31_final.c"
  2855                           	line	192
  2856                           	global	__size_of_switch_channel
  2857  0064                     	__size_of_switch_channel	equ	__end_of_switch_channel-_switch_channel
  2858                           	
  2859  0D23                     _switch_channel:	
  2860                           	opt	stack 1
  2861                           ; Regs used in _switch_channel: [wreg-fsr0h+status,2+status,0+btemp+1+pclath+cstack]
  2862                           	line	193
  2863                           	
  2864  0D23                     l5286:	
  2865                           ;PR31_final.c: 193: m++;
  2866  0D23  3001               	movlw	(01h)
  2867  0D24  1283               	bcf	status, 5	;RP0=0, select bank0
  2868  0D25  1303               	bcf	status, 6	;RP1=0, select bank0
  2869  0D26  00BE               	movwf	(??_switch_channel+0)+0
  2870  0D27  083E               	movf	(??_switch_channel+0)+0,w
  2871  0D28  07E8               	addwf	(_m),f
  2872                           	line	194
  2873                           	
  2874  0D29                     l5288:	
  2875                           ;PR31_final.c: 194: if ( m > 6) m = 1;
  2876  0D29  3007               	movlw	(07h)
  2877  0D2A  0268               	subwf	(_m),w
  2878  0D2B  1C03               	skipc
  2879  0D2C  2D2E               	goto	u4021
  2880  0D2D  2D2F               	goto	u4020
  2881  0D2E                     u4021:
  2882  0D2E  2D33               	goto	l5292
  2883  0D2F                     u4020:
  2884                           	
  2885  0D2F                     l5290:	
  2886  0D2F  01E8               	clrf	(_m)
  2887  0D30  1403               	bsf	status,0
  2888  0D31  0DE8               	rlf	(_m),f
  2889  0D32  2D33               	goto	l5292
  2890                           	
  2891  0D33                     l772:	
  2892                           	line	196
  2893                           	
  2894  0D33                     l5292:	
  2895                           ;PR31_final.c: 196: lcd_clr();
  2896  0D33  120A  158A  238B   	fcall	_lcd_clr
              120A  158A         
  2897                           	line	197
  2898                           	
  2899  0D38                     l5294:	
  2900                           ;PR31_final.c: 197: send_string("channel ");
  2901  0D38  304D               	movlw	((STR_10-__stringbase))&0ffh
  2902  0D39  120A  118A  2004   	fcall	_send_string
              120A  158A         
  2903                           	line	198
  2904                           	
  2905  0D3E                     l5296:	
  2906                           ;PR31_final.c: 198: uart_tx(0x0C);
  2907  0D3E  300C               	movlw	(0Ch)
  2908  0D3F  120A  158A  2304   	fcall	_uart_tx
              120A  158A         
  2909                           	line	199
  2910                           	
  2911  0D44                     l5298:	
  2912                           ;PR31_final.c: 199: uart_sendstr("Channel ");
  2913  0D44  3044               	movlw	((STR_11-__stringbase))&0ffh
  2914  0D45  120A  158A  246C   	fcall	_uart_sendstr
              120A  158A         
  2915                           	line	200
  2916                           	
  2917  0D4A                     l5300:	
  2918                           ;PR31_final.c: 200: send_char(0x30+m);
  2919  0D4A  1283               	bcf	status, 5	;RP0=0, select bank0
  2920  0D4B  1303               	bcf	status, 6	;RP1=0, select bank0
  2921  0D4C  0868               	movf	(_m),w
  2922  0D4D  3E30               	addlw	030h
  2923  0D4E  120A  158A  2372   	fcall	_send_char
              120A  158A         
  2924                           	line	201
  2925                           	
  2926  0D53                     l5302:	
  2927                           ;PR31_final.c: 201: uart_tx(0x30+m);
  2928  0D53  1283               	bcf	status, 5	;RP0=0, select bank0
  2929  0D54  1303               	bcf	status, 6	;RP1=0, select bank0
  2930  0D55  0868               	movf	(_m),w
  2931  0D56  3E30               	addlw	030h
  2932  0D57  120A  158A  2304   	fcall	_uart_tx
              120A  158A         
  2933                           	line	202
  2934                           	
  2935  0D5C                     l5304:	
  2936                           ;PR31_final.c: 202: currentChannel = eprom_read(m);
  2937  0D5C  1283               	bcf	status, 5	;RP0=0, select bank0
  2938  0D5D  1303               	bcf	status, 6	;RP1=0, select bank0
  2939  0D5E  0868               	movf	(_m),w
  2940  0D5F  120A  158A  23FF   	fcall	_eprom_read
              120A  158A         
  2941  0D64  0870               	movf	(0+(?_eprom_read)),w
  2942  0D65  1283               	bcf	status, 5	;RP0=0, select bank0
  2943  0D66  1303               	bcf	status, 6	;RP1=0, select bank0
  2944  0D67  00DD               	movwf	(_currentChannel)
  2945  0D68  0871               	movf	(1+(?_eprom_read)),w
  2946  0D69  00DE               	movwf	((_currentChannel))+1
  2947  0D6A  01DF               	clrf	2+((_currentChannel))
  2948  0D6B  01E0               	clrf	3+((_currentChannel))
  2949                           	line	203
  2950                           	
  2951  0D6C                     l5306:	
  2952                           ;PR31_final.c: 203: setAR1000(currentChannel);
  2953  0D6C  085E               	movf	(_currentChannel+1),w
  2954  0D6D  01AA               	clrf	(?_setAR1000+1)
  2955  0D6E  07AA               	addwf	(?_setAR1000+1)
  2956  0D6F  085D               	movf	(_currentChannel),w
  2957  0D70  01A9               	clrf	(?_setAR1000)
  2958  0D71  07A9               	addwf	(?_setAR1000)
  2959                           
  2960  0D72  120A  118A  21B1   	fcall	_setAR1000
              120A  158A         
  2961                           	line	204
  2962                           	
  2963  0D77                     l5308:	
  2964                           ;PR31_final.c: 204: send_dec(currentChannel);
  2965  0D77  1283               	bcf	status, 5	;RP0=0, select bank0
  2966  0D78  1303               	bcf	status, 6	;RP1=0, select bank0
  2967  0D79  0860               	movf	(_currentChannel+3),w
  2968  0D7A  00A3               	movwf	(?_send_dec+3)
  2969  0D7B  085F               	movf	(_currentChannel+2),w
  2970  0D7C  00A2               	movwf	(?_send_dec+2)
  2971  0D7D  085E               	movf	(_currentChannel+1),w
  2972  0D7E  00A1               	movwf	(?_send_dec+1)
  2973  0D7F  085D               	movf	(_currentChannel),w
  2974  0D80  00A0               	movwf	(?_send_dec)
  2975                           
  2976  0D81  120A  118A  266B   	fcall	_send_dec
              120A  158A         
  2977                           	line	205
  2978                           	
  2979  0D86                     l773:	
  2980  0D86  0008               	return
  2981                           	opt stack 0
  2982                           GLOBAL	__end_of_switch_channel
  2983  0D87                     	__end_of_switch_channel:
  2984 ;; =============== function _switch_channel ends ============
  2985                           
  2986                           	signat	_switch_channel,88
  2987                           	global	_send_dec
  2988                           psect	text627,local,class=CODE,delta=2
  2989                           global __ptext627
  2990  066B                     __ptext627:
  2991                           
  2992 ;; *************** function _send_dec *****************
  2993 ;; Defined at:
  2994 ;;		line 305 in file "../../Source file/PR31_final.c"
  2995 ;; Parameters:    Size  Location     Type
  2996 ;;  data            4    0[BANK0 ] unsigned long 
  2997 ;; Auto vars:     Size  Location     Type
  2998 ;;  no             20    8[BANK0 ] unsigned long [5]
  2999 ;;  i               2   28[BANK0 ] unsigned short 
  3000 ;;  press           2    0        unsigned int 
  3001 ;; Return value:  Size  Location     Type
  3002 ;;		None               void
  3003 ;; Registers used:
  3004 ;;		wreg, fsr0l, fsr0h, status,2, status,0, pclath, cstack
  3005 ;; Tracked objects:
  3006 ;;		On entry : 0/0
  3007 ;;		On exit  : 0/0
  3008 ;;		Unchanged: 0/0
  3009 ;; Data sizes:     COMMON   BANK0   BANK1   BANK3   BANK2
  3010 ;;      Params:         0       4       0       0       0
  3011 ;;      Locals:         0      22       0       0       0
  3012 ;;      Temps:          0       4       0       0       0
  3013 ;;      Totals:         0      30       0       0       0
  3014 ;;Total ram usage:       30 bytes
  3015 ;; Hardware stack levels used:    1
  3016 ;; Hardware stack levels required when called:    4
  3017 ;; This function calls:
  3018 ;;		___lldiv
  3019 ;;		___llmod
  3020 ;;		_lcd_goto
  3021 ;;		_send_string
  3022 ;;		_uart_sendstr
  3023 ;;		_send_char
  3024 ;;		_uart_tx
  3025 ;;		_delay
  3026 ;; This function is called by:
  3027 ;;		_switch_channel
  3028 ;;		_adjust_channel
  3029 ;;		_decrease_chan
  3030 ;;		_increase_chan
  3031 ;; This function uses a non-reentrant model
  3032 ;;
  3033                           psect	text627
  3034                           	file	"../../Source file/PR31_final.c"
  3035                           	line	305
  3036                           	global	__size_of_send_dec
  3037  0195                     	__size_of_send_dec	equ	__end_of_send_dec-_send_dec
  3038                           	
  3039  066B                     _send_dec:	
  3040                           	opt	stack 1
  3041                           ; Regs used in _send_dec: [wreg-fsr0h+status,2+status,0+pclath+cstack]
  3042                           	line	308
  3043                           	
  3044  066B                     l5260:	
  3045                           ;PR31_final.c: 306: unsigned int press;
  3046                           ;PR31_final.c: 307: unsigned short i;
  3047                           ;PR31_final.c: 308: no[0]=(data/1000+0x30);
  3048  066B  3030               	movlw	030h
  3049  066C  1283               	bcf	status, 5	;RP0=0, select bank0
  3050  066D  1303               	bcf	status, 6	;RP1=0, select bank0
  3051  066E  00A4               	movwf	((??_send_dec+0)+0)
  3052  066F  3000               	movlw	0
  3053  0670  00A5               	movwf	((??_send_dec+0)+0+1)
  3054  0671  3000               	movlw	0
  3055  0672  00A6               	movwf	((??_send_dec+0)+0+2)
  3056  0673  3000               	movlw	0
  3057  0674  00A7               	movwf	((??_send_dec+0)+0+3)
  3058  0675  3000               	movlw	0
  3059  0676  00F3               	movwf	(?___lldiv+3)
  3060  0677  3000               	movlw	0
  3061  0678  00F2               	movwf	(?___lldiv+2)
  3062  0679  3003               	movlw	03h
  3063  067A  00F1               	movwf	(?___lldiv+1)
  3064  067B  30E8               	movlw	0E8h
  3065  067C  00F0               	movwf	(?___lldiv)
  3066                           
  3067  067D  0823               	movf	(send_dec@data+3),w
  3068  067E  00F7               	movwf	3+(?___lldiv)+04h
  3069  067F  0822               	movf	(send_dec@data+2),w
  3070  0680  00F6               	movwf	2+(?___lldiv)+04h
  3071  0681  0821               	movf	(send_dec@data+1),w
  3072  0682  00F5               	movwf	1+(?___lldiv)+04h
  3073  0683  0820               	movf	(send_dec@data),w
  3074  0684  00F4               	movwf	0+(?___lldiv)+04h
  3075                           
  3076  0685  120A  158A  25EF   	fcall	___lldiv
              120A  118A         
  3077  068A  0870               	movf	(0+(?___lldiv)),w
  3078  068B  1283               	bcf	status, 5	;RP0=0, select bank0
  3079  068C  1303               	bcf	status, 6	;RP1=0, select bank0
  3080  068D  07A4               	addwf	(??_send_dec+0)+0,f
  3081  068E  0871               	movf	(1+(?___lldiv)),w
  3082  068F  1803               	skipnc
  3083  0690  0F71               	incfsz	(1+(?___lldiv)),w
  3084  0691  2E93               	goto	u3940
  3085  0692  2E94               	goto	u3941
  3086  0693                     u3940:
  3087  0693  07A5               	addwf	(??_send_dec+0)+1,f
  3088  0694                     u3941:
  3089  0694  0872               	movf	(2+(?___lldiv)),w
  3090  0695  1803               	skipnc
  3091  0696  0F72               	incfsz	(2+(?___lldiv)),w
  3092  0697  2E99               	goto	u3942
  3093  0698  2E9A               	goto	u3943
  3094  0699                     u3942:
  3095  0699  07A6               	addwf	(??_send_dec+0)+2,f
  3096  069A                     u3943:
  3097  069A  0873               	movf	(3+(?___lldiv)),w
  3098  069B  1803               	skipnc
  3099  069C  0A73               	incf	(3+(?___lldiv)),w
  3100  069D  07A7               	addwf	(??_send_dec+0)+3,f
  3101  069E  0827               	movf	3+(??_send_dec+0)+0,w
  3102  069F  00AB               	movwf	(send_dec@no+3)
  3103  06A0  0826               	movf	2+(??_send_dec+0)+0,w
  3104  06A1  00AA               	movwf	(send_dec@no+2)
  3105  06A2  0825               	movf	1+(??_send_dec+0)+0,w
  3106  06A3  00A9               	movwf	(send_dec@no+1)
  3107  06A4  0824               	movf	0+(??_send_dec+0)+0,w
  3108  06A5  00A8               	movwf	(send_dec@no)
  3109                           
  3110                           	line	309
  3111                           ;PR31_final.c: 309: data=data%1000;
  3112  06A6  3000               	movlw	0
  3113  06A7  00F3               	movwf	(?___llmod+3)
  3114  06A8  3000               	movlw	0
  3115  06A9  00F2               	movwf	(?___llmod+2)
  3116  06AA  3003               	movlw	03h
  3117  06AB  00F1               	movwf	(?___llmod+1)
  3118  06AC  30E8               	movlw	0E8h
  3119  06AD  00F0               	movwf	(?___llmod)
  3120                           
  3121  06AE  0823               	movf	(send_dec@data+3),w
  3122  06AF  00F7               	movwf	3+(?___llmod)+04h
  3123  06B0  0822               	movf	(send_dec@data+2),w
  3124  06B1  00F6               	movwf	2+(?___llmod)+04h
  3125  06B2  0821               	movf	(send_dec@data+1),w
  3126  06B3  00F5               	movwf	1+(?___llmod)+04h
  3127  06B4  0820               	movf	(send_dec@data),w
  3128  06B5  00F4               	movwf	0+(?___llmod)+04h
  3129                           
  3130  06B6  120A  158A  24C7   	fcall	___llmod
              120A  118A         
  3131  06BB  0873               	movf	(3+(?___llmod)),w
  3132  06BC  1283               	bcf	status, 5	;RP0=0, select bank0
  3133  06BD  1303               	bcf	status, 6	;RP1=0, select bank0
  3134  06BE  00A3               	movwf	(send_dec@data+3)
  3135  06BF  0872               	movf	(2+(?___llmod)),w
  3136  06C0  00A2               	movwf	(send_dec@data+2)
  3137  06C1  0871               	movf	(1+(?___llmod)),w
  3138  06C2  00A1               	movwf	(send_dec@data+1)
  3139  06C3  0870               	movf	(0+(?___llmod)),w
  3140  06C4  00A0               	movwf	(send_dec@data)
  3141                           
  3142                           	line	310
  3143                           ;PR31_final.c: 310: no[1]=(data/100+0x30);
  3144  06C5  3030               	movlw	030h
  3145  06C6  00A4               	movwf	((??_send_dec+0)+0)
  3146  06C7  3000               	movlw	0
  3147  06C8  00A5               	movwf	((??_send_dec+0)+0+1)
  3148  06C9  3000               	movlw	0
  3149  06CA  00A6               	movwf	((??_send_dec+0)+0+2)
  3150  06CB  3000               	movlw	0
  3151  06CC  00A7               	movwf	((??_send_dec+0)+0+3)
  3152  06CD  3000               	movlw	0
  3153  06CE  00F3               	movwf	(?___lldiv+3)
  3154  06CF  3000               	movlw	0
  3155  06D0  00F2               	movwf	(?___lldiv+2)
  3156  06D1  3000               	movlw	0
  3157  06D2  00F1               	movwf	(?___lldiv+1)
  3158  06D3  3064               	movlw	064h
  3159  06D4  00F0               	movwf	(?___lldiv)
  3160                           
  3161  06D5  0823               	movf	(send_dec@data+3),w
  3162  06D6  00F7               	movwf	3+(?___lldiv)+04h
  3163  06D7  0822               	movf	(send_dec@data+2),w
  3164  06D8  00F6               	movwf	2+(?___lldiv)+04h
  3165  06D9  0821               	movf	(send_dec@data+1),w
  3166  06DA  00F5               	movwf	1+(?___lldiv)+04h
  3167  06DB  0820               	movf	(send_dec@data),w
  3168  06DC  00F4               	movwf	0+(?___lldiv)+04h
  3169                           
  3170  06DD  120A  158A  25EF   	fcall	___lldiv
              120A  118A         
  3171  06E2  0870               	movf	(0+(?___lldiv)),w
  3172  06E3  1283               	bcf	status, 5	;RP0=0, select bank0
  3173  06E4  1303               	bcf	status, 6	;RP1=0, select bank0
  3174  06E5  07A4               	addwf	(??_send_dec+0)+0,f
  3175  06E6  0871               	movf	(1+(?___lldiv)),w
  3176  06E7  1803               	skipnc
  3177  06E8  0F71               	incfsz	(1+(?___lldiv)),w
  3178  06E9  2EEB               	goto	u3950
  3179  06EA  2EEC               	goto	u3951
  3180  06EB                     u3950:
  3181  06EB  07A5               	addwf	(??_send_dec+0)+1,f
  3182  06EC                     u3951:
  3183  06EC  0872               	movf	(2+(?___lldiv)),w
  3184  06ED  1803               	skipnc
  3185  06EE  0F72               	incfsz	(2+(?___lldiv)),w
  3186  06EF  2EF1               	goto	u3952
  3187  06F0  2EF2               	goto	u3953
  3188  06F1                     u3952:
  3189  06F1  07A6               	addwf	(??_send_dec+0)+2,f
  3190  06F2                     u3953:
  3191  06F2  0873               	movf	(3+(?___lldiv)),w
  3192  06F3  1803               	skipnc
  3193  06F4  0A73               	incf	(3+(?___lldiv)),w
  3194  06F5  07A7               	addwf	(??_send_dec+0)+3,f
  3195  06F6  0827               	movf	3+(??_send_dec+0)+0,w
  3196  06F7  00AF               	movwf	3+(send_dec@no)+04h
  3197  06F8  0826               	movf	2+(??_send_dec+0)+0,w
  3198  06F9  00AE               	movwf	2+(send_dec@no)+04h
  3199  06FA  0825               	movf	1+(??_send_dec+0)+0,w
  3200  06FB  00AD               	movwf	1+(send_dec@no)+04h
  3201  06FC  0824               	movf	0+(??_send_dec+0)+0,w
  3202  06FD  00AC               	movwf	0+(send_dec@no)+04h
  3203                           
  3204                           	line	311
  3205                           ;PR31_final.c: 311: data=data%100;
  3206  06FE  3000               	movlw	0
  3207  06FF  00F3               	movwf	(?___llmod+3)
  3208  0700  3000               	movlw	0
  3209  0701  00F2               	movwf	(?___llmod+2)
  3210  0702  3000               	movlw	0
  3211  0703  00F1               	movwf	(?___llmod+1)
  3212  0704  3064               	movlw	064h
  3213  0705  00F0               	movwf	(?___llmod)
  3214                           
  3215  0706  0823               	movf	(send_dec@data+3),w
  3216  0707  00F7               	movwf	3+(?___llmod)+04h
  3217  0708  0822               	movf	(send_dec@data+2),w
  3218  0709  00F6               	movwf	2+(?___llmod)+04h
  3219  070A  0821               	movf	(send_dec@data+1),w
  3220  070B  00F5               	movwf	1+(?___llmod)+04h
  3221  070C  0820               	movf	(send_dec@data),w
  3222  070D  00F4               	movwf	0+(?___llmod)+04h
  3223                           
  3224  070E  120A  158A  24C7   	fcall	___llmod
              120A  118A         
  3225  0713  0873               	movf	(3+(?___llmod)),w
  3226  0714  1283               	bcf	status, 5	;RP0=0, select bank0
  3227  0715  1303               	bcf	status, 6	;RP1=0, select bank0
  3228  0716  00A3               	movwf	(send_dec@data+3)
  3229  0717  0872               	movf	(2+(?___llmod)),w
  3230  0718  00A2               	movwf	(send_dec@data+2)
  3231  0719  0871               	movf	(1+(?___llmod)),w
  3232  071A  00A1               	movwf	(send_dec@data+1)
  3233  071B  0870               	movf	(0+(?___llmod)),w
  3234  071C  00A0               	movwf	(send_dec@data)
  3235                           
  3236                           	line	312
  3237                           ;PR31_final.c: 312: no[2]=(data/10+0x30);
  3238  071D  3030               	movlw	030h
  3239  071E  00A4               	movwf	((??_send_dec+0)+0)
  3240  071F  3000               	movlw	0
  3241  0720  00A5               	movwf	((??_send_dec+0)+0+1)
  3242  0721  3000               	movlw	0
  3243  0722  00A6               	movwf	((??_send_dec+0)+0+2)
  3244  0723  3000               	movlw	0
  3245  0724  00A7               	movwf	((??_send_dec+0)+0+3)
  3246  0725  3000               	movlw	0
  3247  0726  00F3               	movwf	(?___lldiv+3)
  3248  0727  3000               	movlw	0
  3249  0728  00F2               	movwf	(?___lldiv+2)
  3250  0729  3000               	movlw	0
  3251  072A  00F1               	movwf	(?___lldiv+1)
  3252  072B  300A               	movlw	0Ah
  3253  072C  00F0               	movwf	(?___lldiv)
  3254                           
  3255  072D  0823               	movf	(send_dec@data+3),w
  3256  072E  00F7               	movwf	3+(?___lldiv)+04h
  3257  072F  0822               	movf	(send_dec@data+2),w
  3258  0730  00F6               	movwf	2+(?___lldiv)+04h
  3259  0731  0821               	movf	(send_dec@data+1),w
  3260  0732  00F5               	movwf	1+(?___lldiv)+04h
  3261  0733  0820               	movf	(send_dec@data),w
  3262  0734  00F4               	movwf	0+(?___lldiv)+04h
  3263                           
  3264  0735  120A  158A  25EF   	fcall	___lldiv
              120A  118A         
  3265  073A  0870               	movf	(0+(?___lldiv)),w
  3266  073B  1283               	bcf	status, 5	;RP0=0, select bank0
  3267  073C  1303               	bcf	status, 6	;RP1=0, select bank0
  3268  073D  07A4               	addwf	(??_send_dec+0)+0,f
  3269  073E  0871               	movf	(1+(?___lldiv)),w
  3270  073F  1803               	skipnc
  3271  0740  0F71               	incfsz	(1+(?___lldiv)),w
  3272  0741  2F43               	goto	u3960
  3273  0742  2F44               	goto	u3961
  3274  0743                     u3960:
  3275  0743  07A5               	addwf	(??_send_dec+0)+1,f
  3276  0744                     u3961:
  3277  0744  0872               	movf	(2+(?___lldiv)),w
  3278  0745  1803               	skipnc
  3279  0746  0F72               	incfsz	(2+(?___lldiv)),w
  3280  0747  2F49               	goto	u3962
  3281  0748  2F4A               	goto	u3963
  3282  0749                     u3962:
  3283  0749  07A6               	addwf	(??_send_dec+0)+2,f
  3284  074A                     u3963:
  3285  074A  0873               	movf	(3+(?___lldiv)),w
  3286  074B  1803               	skipnc
  3287  074C  0A73               	incf	(3+(?___lldiv)),w
  3288  074D  07A7               	addwf	(??_send_dec+0)+3,f
  3289  074E  0827               	movf	3+(??_send_dec+0)+0,w
  3290  074F  00B3               	movwf	3+(send_dec@no)+08h
  3291  0750  0826               	movf	2+(??_send_dec+0)+0,w
  3292  0751  00B2               	movwf	2+(send_dec@no)+08h
  3293  0752  0825               	movf	1+(??_send_dec+0)+0,w
  3294  0753  00B1               	movwf	1+(send_dec@no)+08h
  3295  0754  0824               	movf	0+(??_send_dec+0)+0,w
  3296  0755  00B0               	movwf	0+(send_dec@no)+08h
  3297                           
  3298                           	line	313
  3299                           	
  3300  0756                     l5262:	
  3301                           ;PR31_final.c: 313: no[3]=0x2E;
  3302  0756  3000               	movlw	0
  3303  0757  00B7               	movwf	3+(send_dec@no)+0Ch
  3304  0758  3000               	movlw	0
  3305  0759  00B6               	movwf	2+(send_dec@no)+0Ch
  3306  075A  3000               	movlw	0
  3307  075B  00B5               	movwf	1+(send_dec@no)+0Ch
  3308  075C  302E               	movlw	02Eh
  3309  075D  00B4               	movwf	0+(send_dec@no)+0Ch
  3310                           
  3311                           	line	314
  3312                           	
  3313  075E                     l5264:	
  3314                           ;PR31_final.c: 314: no[4]=(data%10+0x30);
  3315  075E  3030               	movlw	030h
  3316  075F  00A4               	movwf	((??_send_dec+0)+0)
  3317  0760  3000               	movlw	0
  3318  0761  00A5               	movwf	((??_send_dec+0)+0+1)
  3319  0762  3000               	movlw	0
  3320  0763  00A6               	movwf	((??_send_dec+0)+0+2)
  3321  0764  3000               	movlw	0
  3322  0765  00A7               	movwf	((??_send_dec+0)+0+3)
  3323  0766  3000               	movlw	0
  3324  0767  00F3               	movwf	(?___llmod+3)
  3325  0768  3000               	movlw	0
  3326  0769  00F2               	movwf	(?___llmod+2)
  3327  076A  3000               	movlw	0
  3328  076B  00F1               	movwf	(?___llmod+1)
  3329  076C  300A               	movlw	0Ah
  3330  076D  00F0               	movwf	(?___llmod)
  3331                           
  3332  076E  0823               	movf	(send_dec@data+3),w
  3333  076F  00F7               	movwf	3+(?___llmod)+04h
  3334  0770  0822               	movf	(send_dec@data+2),w
  3335  0771  00F6               	movwf	2+(?___llmod)+04h
  3336  0772  0821               	movf	(send_dec@data+1),w
  3337  0773  00F5               	movwf	1+(?___llmod)+04h
  3338  0774  0820               	movf	(send_dec@data),w
  3339  0775  00F4               	movwf	0+(?___llmod)+04h
  3340                           
  3341  0776  120A  158A  24C7   	fcall	___llmod
              120A  118A         
  3342  077B  0870               	movf	(0+(?___llmod)),w
  3343  077C  1283               	bcf	status, 5	;RP0=0, select bank0
  3344  077D  1303               	bcf	status, 6	;RP1=0, select bank0
  3345  077E  07A4               	addwf	(??_send_dec+0)+0,f
  3346  077F  0871               	movf	(1+(?___llmod)),w
  3347  0780  1803               	skipnc
  3348  0781  0F71               	incfsz	(1+(?___llmod)),w
  3349  0782  2F84               	goto	u3970
  3350  0783  2F85               	goto	u3971
  3351  0784                     u3970:
  3352  0784  07A5               	addwf	(??_send_dec+0)+1,f
  3353  0785                     u3971:
  3354  0785  0872               	movf	(2+(?___llmod)),w
  3355  0786  1803               	skipnc
  3356  0787  0F72               	incfsz	(2+(?___llmod)),w
  3357  0788  2F8A               	goto	u3972
  3358  0789  2F8B               	goto	u3973
  3359  078A                     u3972:
  3360  078A  07A6               	addwf	(??_send_dec+0)+2,f
  3361  078B                     u3973:
  3362  078B  0873               	movf	(3+(?___llmod)),w
  3363  078C  1803               	skipnc
  3364  078D  0A73               	incf	(3+(?___llmod)),w
  3365  078E  07A7               	addwf	(??_send_dec+0)+3,f
  3366  078F  0827               	movf	3+(??_send_dec+0)+0,w
  3367  0790  00BB               	movwf	3+(send_dec@no)+010h
  3368  0791  0826               	movf	2+(??_send_dec+0)+0,w
  3369  0792  00BA               	movwf	2+(send_dec@no)+010h
  3370  0793  0825               	movf	1+(??_send_dec+0)+0,w
  3371  0794  00B9               	movwf	1+(send_dec@no)+010h
  3372  0795  0824               	movf	0+(??_send_dec+0)+0,w
  3373  0796  00B8               	movwf	0+(send_dec@no)+010h
  3374                           
  3375                           	line	315
  3376                           	
  3377  0797                     l5266:	
  3378                           ;PR31_final.c: 315: lcd_goto(20);
  3379  0797  3014               	movlw	(014h)
  3380  0798  120A  158A  23A5   	fcall	_lcd_goto
              120A  118A         
  3381                           	line	316
  3382                           	
  3383  079D                     l5268:	
  3384                           ;PR31_final.c: 316: send_string("FM=");
  3385  079D  3065               	movlw	((STR_20-__stringbase))&0ffh
  3386  079E  120A  118A  2004   	fcall	_send_string
              120A  118A         
  3387                           	line	317
  3388                           	
  3389  07A3                     l5270:	
  3390                           ;PR31_final.c: 317: uart_sendstr("FM=");
  3391  07A3  3065               	movlw	((STR_21-__stringbase))&0ffh
  3392  07A4  120A  158A  246C   	fcall	_uart_sendstr
              120A  118A         
  3393                           	line	318
  3394                           	
  3395  07A9                     l5272:	
  3396                           ;PR31_final.c: 318: for (i=0;i<5;i++)
  3397  07A9  1283               	bcf	status, 5	;RP0=0, select bank0
  3398  07AA  1303               	bcf	status, 6	;RP1=0, select bank0
  3399  07AB  01BC               	clrf	(send_dec@i)
  3400  07AC  01BD               	clrf	(send_dec@i+1)
  3401                           	
  3402  07AD                     l5274:	
  3403  07AD  3000               	movlw	high(05h)
  3404  07AE  023D               	subwf	(send_dec@i+1),w
  3405  07AF  3005               	movlw	low(05h)
  3406  07B0  1903               	skipnz
  3407  07B1  023C               	subwf	(send_dec@i),w
  3408  07B2  1C03               	skipc
  3409  07B3  2FB5               	goto	u3981
  3410  07B4  2FB6               	goto	u3980
  3411  07B5                     u3981:
  3412  07B5  2FB8               	goto	l5278
  3413  07B6                     u3980:
  3414  07B6  2FF2               	goto	l5284
  3415                           	
  3416  07B7                     l5276:	
  3417  07B7  2FF2               	goto	l5284
  3418                           	line	319
  3419                           	
  3420  07B8                     l812:	
  3421                           	line	320
  3422                           	
  3423  07B8                     l5278:	
  3424                           ;PR31_final.c: 319: {
  3425                           ;PR31_final.c: 320: send_char(no[i]);
  3426  07B8  083C               	movf	(send_dec@i),w
  3427  07B9  00A4               	movwf	(??_send_dec+0)+0
  3428  07BA  3001               	movlw	(02h)-1
  3429  07BB                     u3995:
  3430  07BB  1003               	clrc
  3431  07BC  0DA4               	rlf	(??_send_dec+0)+0,f
  3432  07BD  3EFF               	addlw	-1
  3433  07BE  1D03               	skipz
  3434  07BF  2FBB               	goto	u3995
  3435  07C0  1003               	clrc
  3436  07C1  0D24               	rlf	(??_send_dec+0)+0,w
  3437  07C2  3E28               	addlw	send_dec@no&0ffh
  3438  07C3  0084               	movwf	fsr0
  3439  07C4  1383               	bcf	status, 7	;select IRP bank0
  3440  07C5  0800               	movf	indf,w
  3441  07C6  120A  158A  2372   	fcall	_send_char
              120A  118A         
  3442                           	line	321
  3443                           ;PR31_final.c: 321: uart_tx(no[i]);
  3444  07CB  1283               	bcf	status, 5	;RP0=0, select bank0
  3445  07CC  1303               	bcf	status, 6	;RP1=0, select bank0
  3446  07CD  083C               	movf	(send_dec@i),w
  3447  07CE  00A4               	movwf	(??_send_dec+0)+0
  3448  07CF  3001               	movlw	(02h)-1
  3449  07D0                     u4005:
  3450  07D0  1003               	clrc
  3451  07D1  0DA4               	rlf	(??_send_dec+0)+0,f
  3452  07D2  3EFF               	addlw	-1
  3453  07D3  1D03               	skipz
  3454  07D4  2FD0               	goto	u4005
  3455  07D5  1003               	clrc
  3456  07D6  0D24               	rlf	(??_send_dec+0)+0,w
  3457  07D7  3E28               	addlw	send_dec@no&0ffh
  3458  07D8  0084               	movwf	fsr0
  3459  07D9  1383               	bcf	status, 7	;select IRP bank0
  3460  07DA  0800               	movf	indf,w
  3461  07DB  120A  158A  2304   	fcall	_uart_tx
              120A  118A         
  3462                           	line	318
  3463                           	
  3464  07E0                     l5280:	
  3465  07E0  3001               	movlw	low(01h)
  3466  07E1  1283               	bcf	status, 5	;RP0=0, select bank0
  3467  07E2  1303               	bcf	status, 6	;RP1=0, select bank0
  3468  07E3  07BC               	addwf	(send_dec@i),f
  3469  07E4  1803               	skipnc
  3470  07E5  0ABD               	incf	(send_dec@i+1),f
  3471  07E6  3000               	movlw	high(01h)
  3472  07E7  07BD               	addwf	(send_dec@i+1),f
  3473                           	
  3474  07E8                     l5282:	
  3475  07E8  3000               	movlw	high(05h)
  3476  07E9  023D               	subwf	(send_dec@i+1),w
  3477  07EA  3005               	movlw	low(05h)
  3478  07EB  1903               	skipnz
  3479  07EC  023C               	subwf	(send_dec@i),w
  3480  07ED  1C03               	skipc
  3481  07EE  2FF0               	goto	u4011
  3482  07EF  2FF1               	goto	u4010
  3483  07F0                     u4011:
  3484  07F0  2FB8               	goto	l5278
  3485  07F1                     u4010:
  3486  07F1  2FF2               	goto	l5284
  3487                           	
  3488  07F2                     l813:	
  3489                           	line	323
  3490                           	
  3491  07F2                     l5284:	
  3492                           ;PR31_final.c: 322: }
  3493                           ;PR31_final.c: 323: delay(1000);
  3494  07F2  3000               	movlw	0
  3495  07F3  00F3               	movwf	(?_delay+3)
  3496  07F4  3000               	movlw	0
  3497  07F5  00F2               	movwf	(?_delay+2)
  3498  07F6  3003               	movlw	03h
  3499  07F7  00F1               	movwf	(?_delay+1)
  3500  07F8  30E8               	movlw	0E8h
  3501  07F9  00F0               	movwf	(?_delay)
  3502                           
  3503  07FA  120A  118A  202B   	fcall	_delay
              120A  118A         
  3504                           	line	324
  3505                           	
  3506  07FF                     l814:	
  3507  07FF  0008               	return
  3508                           	opt stack 0
  3509                           GLOBAL	__end_of_send_dec
  3510  0800                     	__end_of_send_dec:
  3511 ;; =============== function _send_dec ends ============
  3512                           
  3513                           	signat	_send_dec,4216
  3514                           	global	_adjust_vol
  3515                           psect	text628,local,class=CODE,delta=2
  3516                           global __ptext628
  3517  0106                     __ptext628:
  3518                           
  3519 ;; *************** function _adjust_vol *****************
  3520 ;; Defined at:
  3521 ;;		line 344 in file "../../Source file/PR31_final.c"
  3522 ;; Parameters:    Size  Location     Type
  3523 ;;		None
  3524 ;; Auto vars:     Size  Location     Type
  3525 ;;  vol_default     1    6[BANK0 ] unsigned char 
  3526 ;;  check           1    5[BANK0 ] unsigned char 
  3527 ;; Return value:  Size  Location     Type
  3528 ;;		None               void
  3529 ;; Registers used:
  3530 ;;		wreg, fsr0l, fsr0h, status,2, status,0, btemp+1, pclath, cstack
  3531 ;; Tracked objects:
  3532 ;;		On entry : 0/0
  3533 ;;		On exit  : 0/0
  3534 ;;		Unchanged: 0/0
  3535 ;; Data sizes:     COMMON   BANK0   BANK1   BANK3   BANK2
  3536 ;;      Params:         0       0       0       0       0
  3537 ;;      Locals:         0       2       0       0       0
  3538 ;;      Temps:          0       1       0       0       0
  3539 ;;      Totals:         0       3       0       0       0
  3540 ;;Total ram usage:        3 bytes
  3541 ;; Hardware stack levels used:    1
  3542 ;; Hardware stack levels required when called:    4
  3543 ;; This function calls:
  3544 ;;		_lcd_goto
  3545 ;;		_send_char
  3546 ;;		_uart_tx
  3547 ;;		_delay
  3548 ;;		_set_vol
  3549 ;; This function is called by:
  3550 ;;		_main
  3551 ;;		_adjust_channel
  3552 ;; This function uses a non-reentrant model
  3553 ;;
  3554                           psect	text628
  3555                           	file	"../../Source file/PR31_final.c"
  3556                           	line	344
  3557                           	global	__size_of_adjust_vol
  3558  00AB                     	__size_of_adjust_vol	equ	__end_of_adjust_vol-_adjust_vol
  3559                           	
  3560  0106                     _adjust_vol:	
  3561                           	opt	stack 3
  3562                           ; Regs used in _adjust_vol: [wreg-fsr0h+status,2+status,0+btemp+1+pclath+cstack]
  3563                           	line	346
  3564                           ;PR31_final.c: 346: while (1){
  3565                           	
  3566  0106                     l820:	
  3567                           	line	347
  3568                           ;PR31_final.c: 347: check = 0;
  3569  0106  1283               	bcf	status, 5	;RP0=0, select bank0
  3570  0107  1303               	bcf	status, 6	;RP1=0, select bank0
  3571  0108  01A5               	clrf	(adjust_vol@check)
  3572                           	line	348
  3573                           	
  3574  0109                     l5214:	
  3575                           ;PR31_final.c: 348: lcd_goto(13);
  3576  0109  300D               	movlw	(0Dh)
  3577  010A  120A  158A  23A5   	fcall	_lcd_goto
              120A  118A         
  3578                           	line	349
  3579                           	
  3580  010F                     l5216:	
  3581                           ;PR31_final.c: 349: vol_default = vol;
  3582  010F  1283               	bcf	status, 5	;RP0=0, select bank0
  3583  0110  1303               	bcf	status, 6	;RP1=0, select bank0
  3584  0111  0869               	movf	(_vol),w
  3585  0112  00A4               	movwf	(??_adjust_vol+0)+0
  3586  0113  0824               	movf	(??_adjust_vol+0)+0,w
  3587  0114  00A6               	movwf	(adjust_vol@vol_default)
  3588                           	line	350
  3589                           	
  3590  0115                     l5218:	
  3591                           ;PR31_final.c: 350: send_char(0x30+vol);
  3592  0115  0869               	movf	(_vol),w
  3593  0116  3E30               	addlw	030h
  3594  0117  120A  158A  2372   	fcall	_send_char
              120A  118A         
  3595                           	line	351
  3596                           	
  3597  011C                     l5220:	
  3598                           ;PR31_final.c: 351: uart_tx(0x30+vol);
  3599  011C  1283               	bcf	status, 5	;RP0=0, select bank0
  3600  011D  1303               	bcf	status, 6	;RP1=0, select bank0
  3601  011E  0869               	movf	(_vol),w
  3602  011F  3E30               	addlw	030h
  3603  0120  120A  158A  2304   	fcall	_uart_tx
              120A  118A         
  3604                           	line	352
  3605                           	
  3606  0125                     l5222:	
  3607                           ;PR31_final.c: 352: delay(10);
  3608  0125  3000               	movlw	0
  3609  0126  00F3               	movwf	(?_delay+3)
  3610  0127  3000               	movlw	0
  3611  0128  00F2               	movwf	(?_delay+2)
  3612  0129  3000               	movlw	0
  3613  012A  00F1               	movwf	(?_delay+1)
  3614  012B  300A               	movlw	0Ah
  3615  012C  00F0               	movwf	(?_delay)
  3616                           
  3617  012D  120A  118A  202B   	fcall	_delay
              120A  118A         
  3618                           	line	355
  3619                           ;PR31_final.c: 355: while(check==0)
  3620  0132  29A1               	goto	l5256
  3621                           	
  3622  0133                     l822:	
  3623                           	line	357
  3624                           ;PR31_final.c: 356: {
  3625                           ;PR31_final.c: 357: if (RB3 == 0)
  3626  0133  1986               	btfsc	(51/8),(51)&7
  3627  0134  2936               	goto	u3861
  3628  0135  2937               	goto	u3860
  3629  0136                     u3861:
  3630  0136  295E               	goto	l5236
  3631  0137                     u3860:
  3632  0137  2939               	goto	l824
  3633                           	line	359
  3634                           	
  3635  0138                     l5224:	
  3636                           ;PR31_final.c: 358: {
  3637                           ;PR31_final.c: 359: while (RB3==0);
  3638  0138  2939               	goto	l824
  3639                           	
  3640  0139                     l825:	
  3641                           	
  3642  0139                     l824:	
  3643  0139  1D86               	btfss	(51/8),(51)&7
  3644  013A  293C               	goto	u3871
  3645  013B  293D               	goto	u3870
  3646  013C                     u3871:
  3647  013C  2939               	goto	l824
  3648  013D                     u3870:
  3649  013D  293E               	goto	l5226
  3650                           	
  3651  013E                     l826:	
  3652                           	line	360
  3653                           	
  3654  013E                     l5226:	
  3655                           ;PR31_final.c: 360: vol -=1;
  3656  013E  3001               	movlw	low(01h)
  3657  013F  02E9               	subwf	(_vol),f
  3658                           	line	361
  3659                           	
  3660  0140                     l5228:	
  3661                           ;PR31_final.c: 361: if ( vol <= 1 )
  3662  0140  3002               	movlw	(02h)
  3663  0141  0269               	subwf	(_vol),w
  3664  0142  1803               	skipnc
  3665  0143  2945               	goto	u3881
  3666  0144  2946               	goto	u3880
  3667  0145                     u3881:
  3668  0145  294A               	goto	l5232
  3669  0146                     u3880:
  3670                           	line	362
  3671                           	
  3672  0146                     l5230:	
  3673                           ;PR31_final.c: 362: vol = 1;
  3674  0146  01E9               	clrf	(_vol)
  3675  0147  1403               	bsf	status,0
  3676  0148  0DE9               	rlf	(_vol),f
  3677  0149  294A               	goto	l5232
  3678                           	
  3679  014A                     l827:	
  3680                           	line	363
  3681                           	
  3682  014A                     l5232:	
  3683                           ;PR31_final.c: 363: set_vol (vol);
  3684  014A  0869               	movf	(_vol),w
  3685  014B  120A  118A  205B   	fcall	_set_vol
              120A  118A         
  3686                           	line	364
  3687                           	
  3688  0150                     l5234:	
  3689                           ;PR31_final.c: 364: delay(100);
  3690  0150  3000               	movlw	0
  3691  0151  00F3               	movwf	(?_delay+3)
  3692  0152  3000               	movlw	0
  3693  0153  00F2               	movwf	(?_delay+2)
  3694  0154  3000               	movlw	0
  3695  0155  00F1               	movwf	(?_delay+1)
  3696  0156  3064               	movlw	064h
  3697  0157  00F0               	movwf	(?_delay)
  3698                           
  3699  0158  120A  118A  202B   	fcall	_delay
              120A  118A         
  3700  015D  295E               	goto	l5236
  3701                           	line	365
  3702                           	
  3703  015E                     l823:	
  3704                           	line	367
  3705                           	
  3706  015E                     l5236:	
  3707                           ;PR31_final.c: 365: }
  3708                           ;PR31_final.c: 367: if (RB2 == 0)
  3709  015E  1283               	bcf	status, 5	;RP0=0, select bank0
  3710  015F  1303               	bcf	status, 6	;RP1=0, select bank0
  3711  0160  1906               	btfsc	(50/8),(50)&7
  3712  0161  2963               	goto	u3891
  3713  0162  2964               	goto	u3890
  3714  0163                     u3891:
  3715  0163  298E               	goto	l5250
  3716  0164                     u3890:
  3717  0164  2966               	goto	l829
  3718                           	line	369
  3719                           	
  3720  0165                     l5238:	
  3721                           ;PR31_final.c: 368: {
  3722                           ;PR31_final.c: 369: while (RB2==0);
  3723  0165  2966               	goto	l829
  3724                           	
  3725  0166                     l830:	
  3726                           	
  3727  0166                     l829:	
  3728  0166  1D06               	btfss	(50/8),(50)&7
  3729  0167  2969               	goto	u3901
  3730  0168  296A               	goto	u3900
  3731  0169                     u3901:
  3732  0169  2966               	goto	l829
  3733  016A                     u3900:
  3734  016A  296B               	goto	l5240
  3735                           	
  3736  016B                     l831:	
  3737                           	line	370
  3738                           	
  3739  016B                     l5240:	
  3740                           ;PR31_final.c: 370: vol +=1;
  3741  016B  3001               	movlw	(01h)
  3742  016C  00A4               	movwf	(??_adjust_vol+0)+0
  3743  016D  0824               	movf	(??_adjust_vol+0)+0,w
  3744  016E  07E9               	addwf	(_vol),f
  3745                           	line	371
  3746                           	
  3747  016F                     l5242:	
  3748                           ;PR31_final.c: 371: if (vol >= 9)
  3749  016F  3009               	movlw	(09h)
  3750  0170  0269               	subwf	(_vol),w
  3751  0171  1C03               	skipc
  3752  0172  2974               	goto	u3911
  3753  0173  2975               	goto	u3910
  3754  0174                     u3911:
  3755  0174  297A               	goto	l5246
  3756  0175                     u3910:
  3757                           	line	372
  3758                           	
  3759  0175                     l5244:	
  3760                           ;PR31_final.c: 372: vol = 9;
  3761  0175  3009               	movlw	(09h)
  3762  0176  00A4               	movwf	(??_adjust_vol+0)+0
  3763  0177  0824               	movf	(??_adjust_vol+0)+0,w
  3764  0178  00E9               	movwf	(_vol)
  3765  0179  297A               	goto	l5246
  3766                           	
  3767  017A                     l832:	
  3768                           	line	373
  3769                           	
  3770  017A                     l5246:	
  3771                           ;PR31_final.c: 373: set_vol (vol);
  3772  017A  0869               	movf	(_vol),w
  3773  017B  120A  118A  205B   	fcall	_set_vol
              120A  118A         
  3774                           	line	374
  3775                           	
  3776  0180                     l5248:	
  3777                           ;PR31_final.c: 374: delay(100);
  3778  0180  3000               	movlw	0
  3779  0181  00F3               	movwf	(?_delay+3)
  3780  0182  3000               	movlw	0
  3781  0183  00F2               	movwf	(?_delay+2)
  3782  0184  3000               	movlw	0
  3783  0185  00F1               	movwf	(?_delay+1)
  3784  0186  3064               	movlw	064h
  3785  0187  00F0               	movwf	(?_delay)
  3786                           
  3787  0188  120A  118A  202B   	fcall	_delay
              120A  118A         
  3788  018D  298E               	goto	l5250
  3789                           	line	375
  3790                           	
  3791  018E                     l828:	
  3792                           	line	377
  3793                           	
  3794  018E                     l5250:	
  3795                           ;PR31_final.c: 375: }
  3796                           ;PR31_final.c: 377: if (RB0==0)
  3797  018E  1283               	bcf	status, 5	;RP0=0, select bank0
  3798  018F  1303               	bcf	status, 6	;RP1=0, select bank0
  3799  0190  1806               	btfsc	(48/8),(48)&7
  3800  0191  2993               	goto	u3921
  3801  0192  2994               	goto	u3920
  3802  0193                     u3921:
  3803  0193  2996               	goto	l5254
  3804  0194                     u3920:
  3805  0194  29B0               	goto	l834
  3806                           	line	379
  3807                           	
  3808  0195                     l5252:	
  3809                           ;PR31_final.c: 378: {
  3810                           ;PR31_final.c: 379: return;
  3811  0195  29B0               	goto	l834
  3812                           	line	380
  3813                           	
  3814  0196                     l833:	
  3815                           	line	382
  3816                           	
  3817  0196                     l5254:	
  3818                           ;PR31_final.c: 380: }
  3819                           ;PR31_final.c: 382: check = vol & ~(vol_default);
  3820  0196  0926               	comf	(adjust_vol@vol_default),w
  3821  0197  0569               	andwf	(_vol),w
  3822  0198  00A4               	movwf	(??_adjust_vol+0)+0
  3823  0199  0824               	movf	(??_adjust_vol+0)+0,w
  3824  019A  00A5               	movwf	(adjust_vol@check)
  3825                           	line	383
  3826                           ;PR31_final.c: 383: check |= ~vol & vol_default;
  3827  019B  0969               	comf	(_vol),w
  3828  019C  0526               	andwf	(adjust_vol@vol_default),w
  3829  019D  00A4               	movwf	(??_adjust_vol+0)+0
  3830  019E  0824               	movf	(??_adjust_vol+0)+0,w
  3831  019F  04A5               	iorwf	(adjust_vol@check),f
  3832  01A0  29A1               	goto	l5256
  3833                           	line	385
  3834                           	
  3835  01A1                     l821:	
  3836                           	line	355
  3837                           	
  3838  01A1                     l5256:	
  3839  01A1  1283               	bcf	status, 5	;RP0=0, select bank0
  3840  01A2  1303               	bcf	status, 6	;RP1=0, select bank0
  3841  01A3  0825               	movf	(adjust_vol@check),w
  3842  01A4  1D03               	skipz
  3843  01A5  29A7               	goto	u3930
  3844  01A6  2933               	goto	l822
  3845  01A7                     u3930:
  3846  01A7  29A8               	goto	l5258
  3847                           	
  3848  01A8                     l835:	
  3849                           	line	386
  3850                           	
  3851  01A8                     l5258:	
  3852                           ;PR31_final.c: 385: }
  3853                           ;PR31_final.c: 386: uart_tx(0x08);
  3854  01A8  3008               	movlw	(08h)
  3855  01A9  120A  158A  2304   	fcall	_uart_tx
              120A  118A         
  3856  01AE  2906               	goto	l820
  3857                           	line	387
  3858                           	
  3859  01AF                     l836:	
  3860                           	line	346
  3861  01AF  2906               	goto	l820
  3862                           	
  3863  01B0                     l837:	
  3864                           	line	388
  3865                           	
  3866  01B0                     l834:	
  3867  01B0  0008               	return
  3868                           	opt stack 0
  3869                           GLOBAL	__end_of_adjust_vol
  3870  01B1                     	__end_of_adjust_vol:
  3871 ;; =============== function _adjust_vol ends ============
  3872                           
  3873                           	signat	_adjust_vol,88
  3874                           	global	_lcd_clr
  3875                           psect	text629,local,class=CODE,delta=2
  3876                           global __ptext629
  3877  0B8B                     __ptext629:
  3878                           
  3879 ;; *************** function _lcd_clr *****************
  3880 ;; Defined at:
  3881 ;;		line 500 in file "../../Source file/PR31_final.c"
  3882 ;; Parameters:    Size  Location     Type
  3883 ;;		None
  3884 ;; Auto vars:     Size  Location     Type
  3885 ;;		None
  3886 ;; Return value:  Size  Location     Type
  3887 ;;		None               void
  3888 ;; Registers used:
  3889 ;;		wreg, status,2, status,0, pclath, cstack
  3890 ;; Tracked objects:
  3891 ;;		On entry : 0/0
  3892 ;;		On exit  : 0/0
  3893 ;;		Unchanged: 0/0
  3894 ;; Data sizes:     COMMON   BANK0   BANK1   BANK3   BANK2
  3895 ;;      Params:         0       0       0       0       0
  3896 ;;      Locals:         0       0       0       0       0
  3897 ;;      Temps:          0       0       0       0       0
  3898 ;;      Totals:         0       0       0       0       0
  3899 ;;Total ram usage:        0 bytes
  3900 ;; Hardware stack levels used:    1
  3901 ;; Hardware stack levels required when called:    3
  3902 ;; This function calls:
  3903 ;;		_send_config
  3904 ;;		_delay
  3905 ;; This function is called by:
  3906 ;;		_main
  3907 ;;		_switch_channel
  3908 ;;		_adjust_channel
  3909 ;; This function uses a non-reentrant model
  3910 ;;
  3911                           psect	text629
  3912                           	file	"../../Source file/PR31_final.c"
  3913                           	line	500
  3914                           	global	__size_of_lcd_clr
  3915  001A                     	__size_of_lcd_clr	equ	__end_of_lcd_clr-_lcd_clr
  3916                           	
  3917  0B8B                     _lcd_clr:	
  3918                           	opt	stack 2
  3919                           ; Regs used in _lcd_clr: [wreg+status,2+status,0+pclath+cstack]
  3920                           	line	501
  3921                           	
  3922  0B8B                     l5212:	
  3923                           ;PR31_final.c: 501: send_config(0b00000001);
  3924  0B8B  3001               	movlw	(01h)
  3925  0B8C  120A  158A  2359   	fcall	_send_config
              120A  158A         
  3926                           	line	502
  3927                           ;PR31_final.c: 502: send_config(0b00000010);
  3928  0B91  3002               	movlw	(02h)
  3929  0B92  120A  158A  2359   	fcall	_send_config
              120A  158A         
  3930                           	line	503
  3931                           ;PR31_final.c: 503: delay(350);
  3932  0B97  3000               	movlw	0
  3933  0B98  00F3               	movwf	(?_delay+3)
  3934  0B99  3000               	movlw	0
  3935  0B9A  00F2               	movwf	(?_delay+2)
  3936  0B9B  3001               	movlw	01h
  3937  0B9C  00F1               	movwf	(?_delay+1)
  3938  0B9D  305E               	movlw	05Eh
  3939  0B9E  00F0               	movwf	(?_delay)
  3940                           
  3941  0B9F  120A  118A  202B   	fcall	_delay
              120A  158A         
  3942                           	line	504
  3943                           	
  3944  0BA4                     l873:	
  3945  0BA4  0008               	return
  3946                           	opt stack 0
  3947                           GLOBAL	__end_of_lcd_clr
  3948  0BA5                     	__end_of_lcd_clr:
  3949 ;; =============== function _lcd_clr ends ============
  3950                           
  3951                           	signat	_lcd_clr,88
  3952                           	global	_lcd_goto
  3953                           psect	text630,local,class=CODE,delta=2
  3954                           global __ptext630
  3955  0BA5                     __ptext630:
  3956                           
  3957 ;; *************** function _lcd_goto *****************
  3958 ;; Defined at:
  3959 ;;		line 488 in file "../../Source file/PR31_final.c"
  3960 ;; Parameters:    Size  Location     Type
  3961 ;;  data            1    wreg     unsigned char 
  3962 ;; Auto vars:     Size  Location     Type
  3963 ;;  data            1   10[COMMON] unsigned char 
  3964 ;; Return value:  Size  Location     Type
  3965 ;;		None               void
  3966 ;; Registers used:
  3967 ;;		wreg, status,2, status,0, pclath, cstack
  3968 ;; Tracked objects:
  3969 ;;		On entry : 0/0
  3970 ;;		On exit  : 0/0
  3971 ;;		Unchanged: 0/0
  3972 ;; Data sizes:     COMMON   BANK0   BANK1   BANK3   BANK2
  3973 ;;      Params:         0       0       0       0       0
  3974 ;;      Locals:         1       0       0       0       0
  3975 ;;      Temps:          1       0       0       0       0
  3976 ;;      Totals:         2       0       0       0       0
  3977 ;;Total ram usage:        2 bytes
  3978 ;; Hardware stack levels used:    1
  3979 ;; Hardware stack levels required when called:    3
  3980 ;; This function calls:
  3981 ;;		_send_config
  3982 ;; This function is called by:
  3983 ;;		_main
  3984 ;;		_adjust_channel
  3985 ;;		_send_dec
  3986 ;;		_adjust_vol
  3987 ;; This function uses a non-reentrant model
  3988 ;;
  3989                           psect	text630
  3990                           	file	"../../Source file/PR31_final.c"
  3991                           	line	488
  3992                           	global	__size_of_lcd_goto
  3993  001D                     	__size_of_lcd_goto	equ	__end_of_lcd_goto-_lcd_goto
  3994                           	
  3995  0BA5                     _lcd_goto:	
  3996                           	opt	stack 3
  3997                           ; Regs used in _lcd_goto: [wreg+status,2+status,0+pclath+cstack]
  3998                           ;lcd_goto@data stored from wreg
  3999  0BA5  00FA               	movwf	(lcd_goto@data)
  4000                           	line	489
  4001                           	
  4002  0BA6                     l5204:	
  4003                           ;PR31_final.c: 489: if(data<16)
  4004  0BA6  3010               	movlw	(010h)
  4005  0BA7  027A               	subwf	(lcd_goto@data),w
  4006  0BA8  1803               	skipnc
  4007  0BA9  2BAB               	goto	u3851
  4008  0BAA  2BAC               	goto	u3850
  4009  0BAB                     u3851:
  4010  0BAB  2BB4               	goto	l5208
  4011  0BAC                     u3850:
  4012                           	line	491
  4013                           	
  4014  0BAC                     l5206:	
  4015                           ;PR31_final.c: 490: {
  4016                           ;PR31_final.c: 491: send_config(0x80+data);
  4017  0BAC  087A               	movf	(lcd_goto@data),w
  4018  0BAD  3E80               	addlw	080h
  4019  0BAE  120A  158A  2359   	fcall	_send_config
              120A  158A         
  4020                           	line	492
  4021                           ;PR31_final.c: 492: }
  4022  0BB3  2BC1               	goto	l870
  4023                           	line	493
  4024                           	
  4025  0BB4                     l868:	
  4026                           	line	495
  4027                           	
  4028  0BB4                     l5208:	
  4029                           ;PR31_final.c: 493: else
  4030                           ;PR31_final.c: 494: {
  4031                           ;PR31_final.c: 495: data=data-20;
  4032  0BB4  087A               	movf	(lcd_goto@data),w
  4033  0BB5  3EEC               	addlw	0ECh
  4034  0BB6  00F9               	movwf	(??_lcd_goto+0)+0
  4035  0BB7  0879               	movf	(??_lcd_goto+0)+0,w
  4036  0BB8  00FA               	movwf	(lcd_goto@data)
  4037                           	line	496
  4038                           	
  4039  0BB9                     l5210:	
  4040                           ;PR31_final.c: 496: send_config(0xc0+data);
  4041  0BB9  087A               	movf	(lcd_goto@data),w
  4042  0BBA  3EC0               	addlw	0C0h
  4043  0BBB  120A  158A  2359   	fcall	_send_config
              120A  158A         
  4044  0BC0  2BC1               	goto	l870
  4045                           	line	497
  4046                           	
  4047  0BC1                     l869:	
  4048                           	line	498
  4049                           	
  4050  0BC1                     l870:	
  4051  0BC1  0008               	return
  4052                           	opt stack 0
  4053                           GLOBAL	__end_of_lcd_goto
  4054  0BC2                     	__end_of_lcd_goto:
  4055 ;; =============== function _lcd_goto ends ============
  4056                           
  4057                           	signat	_lcd_goto,4216
  4058                           	global	_send_string
  4059                           psect	text631,local,class=CODE,delta=2
  4060                           global __ptext631
  4061  0004                     __ptext631:
  4062                           
  4063 ;; *************** function _send_string *****************
  4064 ;; Defined at:
  4065 ;;		line 506 in file "../../Source file/PR31_final.c"
  4066 ;; Parameters:    Size  Location     Type
  4067 ;;  s               1    wreg     PTR const unsigned char 
  4068 ;;		 -> STR_20(4), STR_16(17), STR_14(8), STR_12(9), 
  4069 ;;		 -> STR_10(9), STR_8(17), STR_6(12), STR_4(17), 
  4070 ;;		 -> STR_2(14), STR_1(7), 
  4071 ;; Auto vars:     Size  Location     Type
  4072 ;;  s               1   11[COMMON] PTR const unsigned char 
  4073 ;;		 -> STR_20(4), STR_16(17), STR_14(8), STR_12(9), 
  4074 ;;		 -> STR_10(9), STR_8(17), STR_6(12), STR_4(17), 
  4075 ;;		 -> STR_2(14), STR_1(7), 
  4076 ;;  i               1   10[COMMON] unsigned char 
  4077 ;; Return value:  Size  Location     Type
  4078 ;;		None               void
  4079 ;; Registers used:
  4080 ;;		wreg, fsr0l, fsr0h, status,2, status,0, pclath, cstack
  4081 ;; Tracked objects:
  4082 ;;		On entry : 0/0
  4083 ;;		On exit  : 0/0
  4084 ;;		Unchanged: 0/0
  4085 ;; Data sizes:     COMMON   BANK0   BANK1   BANK3   BANK2
  4086 ;;      Params:         0       0       0       0       0
  4087 ;;      Locals:         2       0       0       0       0
  4088 ;;      Temps:          1       0       0       0       0
  4089 ;;      Totals:         3       0       0       0       0
  4090 ;;Total ram usage:        3 bytes
  4091 ;; Hardware stack levels used:    1
  4092 ;; Hardware stack levels required when called:    3
  4093 ;; This function calls:
  4094 ;;		_send_char
  4095 ;; This function is called by:
  4096 ;;		_main
  4097 ;;		_switch_channel
  4098 ;;		_adjust_channel
  4099 ;;		_send_dec
  4100 ;; This function uses a non-reentrant model
  4101 ;;
  4102                           psect	text631
  4103                           	file	"../../Source file/PR31_final.c"
  4104                           	line	506
  4105                           	global	__size_of_send_string
  4106  0027                     	__size_of_send_string	equ	__end_of_send_string-_send_string
  4107                           	
  4108  0004                     _send_string:	
  4109                           	opt	stack 1
  4110                           ; Regs used in _send_string: [wreg-fsr0h+status,2+status,0+pclath+cstack]
  4111                           ;send_string@s stored from wreg
  4112  0004  00FB               	movwf	(send_string@s)
  4113                           	line	507
  4114                           	
  4115  0005                     l5194:	
  4116                           ;PR31_final.c: 507: unsigned char i=0;
  4117  0005  01FA               	clrf	(send_string@i)
  4118                           	line	508
  4119                           ;PR31_final.c: 508: while (s && *s)send_char (*s++);
  4120  0006  2818               	goto	l5200
  4121                           	
  4122  0007                     l877:	
  4123                           	
  4124  0007                     l5196:	
  4125  0007  087B               	movf	(send_string@s),w
  4126  0008  0084               	movwf	fsr0
  4127  0009  120A  158A  2000   	fcall	stringdir
              120A  118A         
  4128  000E  120A  158A  2372   	fcall	_send_char
              120A  118A         
  4129                           	
  4130  0013                     l5198:	
  4131  0013  3001               	movlw	(01h)
  4132  0014  00F9               	movwf	(??_send_string+0)+0
  4133  0015  0879               	movf	(??_send_string+0)+0,w
  4134  0016  07FB               	addwf	(send_string@s),f
  4135  0017  2818               	goto	l5200
  4136                           	
  4137  0018                     l876:	
  4138                           	
  4139  0018                     l5200:	
  4140  0018  087B               	movf	(send_string@s),w
  4141  0019  1D03               	skipz
  4142  001A  281C               	goto	u3830
  4143  001B  282A               	goto	l881
  4144  001C                     u3830:
  4145                           	
  4146  001C                     l5202:	
  4147  001C  087B               	movf	(send_string@s),w
  4148  001D  0084               	movwf	fsr0
  4149  001E  120A  158A  2000   	fcall	stringdir
              120A  118A         
  4150  0023  3800               	iorlw	0
  4151  0024  1D03               	skipz
  4152  0025  2827               	goto	u3841
  4153  0026  2828               	goto	u3840
  4154  0027                     u3841:
  4155  0027  2807               	goto	l5196
  4156  0028                     u3840:
  4157  0028  282A               	goto	l881
  4158                           	
  4159  0029                     l879:	
  4160  0029  282A               	goto	l881
  4161                           	
  4162  002A                     l880:	
  4163                           	line	509
  4164                           	
  4165  002A                     l881:	
  4166  002A  0008               	return
  4167                           	opt stack 0
  4168                           GLOBAL	__end_of_send_string
  4169  002B                     	__end_of_send_string:
  4170 ;; =============== function _send_string ends ============
  4171                           
  4172                           	signat	_send_string,4216
  4173                           	global	_send_char
  4174                           psect	text632,local,class=CODE,delta=2
  4175                           global __ptext632
  4176  0B72                     __ptext632:
  4177                           
  4178 ;; *************** function _send_char *****************
  4179 ;; Defined at:
  4180 ;;		line 474 in file "../../Source file/PR31_final.c"
  4181 ;; Parameters:    Size  Location     Type
  4182 ;;  data            1    wreg     unsigned char 
  4183 ;; Auto vars:     Size  Location     Type
  4184 ;;  data            1    8[COMMON] unsigned char 
  4185 ;; Return value:  Size  Location     Type
  4186 ;;		None               void
  4187 ;; Registers used:
  4188 ;;		wreg, status,2, status,0, pclath, cstack
  4189 ;; Tracked objects:
  4190 ;;		On entry : 0/0
  4191 ;;		On exit  : 0/0
  4192 ;;		Unchanged: 0/0
  4193 ;; Data sizes:     COMMON   BANK0   BANK1   BANK3   BANK2
  4194 ;;      Params:         0       0       0       0       0
  4195 ;;      Locals:         1       0       0       0       0
  4196 ;;      Temps:          0       0       0       0       0
  4197 ;;      Totals:         1       0       0       0       0
  4198 ;;Total ram usage:        1 bytes
  4199 ;; Hardware stack levels used:    1
  4200 ;; Hardware stack levels required when called:    2
  4201 ;; This function calls:
  4202 ;;		_delay
  4203 ;;		_e_pulse
  4204 ;; This function is called by:
  4205 ;;		_switch_channel
  4206 ;;		_adjust_channel
  4207 ;;		_send_dec
  4208 ;;		_adjust_vol
  4209 ;;		_send_string
  4210 ;; This function uses a non-reentrant model
  4211 ;;
  4212                           psect	text632
  4213                           	file	"../../Source file/PR31_final.c"
  4214                           	line	474
  4215                           	global	__size_of_send_char
  4216  0019                     	__size_of_send_char	equ	__end_of_send_char-_send_char
  4217                           	
  4218  0B72                     _send_char:	
  4219                           	opt	stack 4
  4220                           ; Regs used in _send_char: [wreg+status,2+status,0+pclath+cstack]
  4221                           ;send_char@data stored from wreg
  4222  0B72  00F8               	movwf	(send_char@data)
  4223                           	line	475
  4224                           	
  4225  0B73                     l5186:	
  4226                           ;PR31_final.c: 475: RB4=1;
  4227  0B73  1283               	bcf	status, 5	;RP0=0, select bank0
  4228  0B74  1303               	bcf	status, 6	;RP1=0, select bank0
  4229  0B75  1606               	bsf	(52/8),(52)&7
  4230                           	line	476
  4231                           	
  4232  0B76                     l5188:	
  4233                           ;PR31_final.c: 476: PORTD=data;
  4234  0B76  0878               	movf	(send_char@data),w
  4235  0B77  0088               	movwf	(8)	;volatile
  4236                           	line	477
  4237                           	
  4238  0B78                     l5190:	
  4239                           ;PR31_final.c: 477: delay(300);
  4240  0B78  3000               	movlw	0
  4241  0B79  00F3               	movwf	(?_delay+3)
  4242  0B7A  3000               	movlw	0
  4243  0B7B  00F2               	movwf	(?_delay+2)
  4244  0B7C  3001               	movlw	01h
  4245  0B7D  00F1               	movwf	(?_delay+1)
  4246  0B7E  302C               	movlw	02Ch
  4247  0B7F  00F0               	movwf	(?_delay)
  4248                           
  4249  0B80  120A  118A  202B   	fcall	_delay
              120A  158A         
  4250                           	line	478
  4251                           	
  4252  0B85                     l5192:	
  4253                           ;PR31_final.c: 478: e_pulse();
  4254  0B85  120A  158A  241F   	fcall	_e_pulse
              120A  158A         
  4255                           	line	479
  4256                           	
  4257  0B8A                     l862:	
  4258  0B8A  0008               	return
  4259                           	opt stack 0
  4260                           GLOBAL	__end_of_send_char
  4261  0B8B                     	__end_of_send_char:
  4262 ;; =============== function _send_char ends ============
  4263                           
  4264                           	signat	_send_char,4216
  4265                           	global	_send_config
  4266                           psect	text633,local,class=CODE,delta=2
  4267                           global __ptext633
  4268  0B59                     __ptext633:
  4269                           
  4270 ;; *************** function _send_config *****************
  4271 ;; Defined at:
  4272 ;;		line 467 in file "../../Source file/PR31_final.c"
  4273 ;; Parameters:    Size  Location     Type
  4274 ;;  data            1    wreg     unsigned char 
  4275 ;; Auto vars:     Size  Location     Type
  4276 ;;  data            1    8[COMMON] unsigned char 
  4277 ;; Return value:  Size  Location     Type
  4278 ;;		None               void
  4279 ;; Registers used:
  4280 ;;		wreg, status,2, status,0, pclath, cstack
  4281 ;; Tracked objects:
  4282 ;;		On entry : 0/0
  4283 ;;		On exit  : 0/0
  4284 ;;		Unchanged: 0/0
  4285 ;; Data sizes:     COMMON   BANK0   BANK1   BANK3   BANK2
  4286 ;;      Params:         0       0       0       0       0
  4287 ;;      Locals:         1       0       0       0       0
  4288 ;;      Temps:          0       0       0       0       0
  4289 ;;      Totals:         1       0       0       0       0
  4290 ;;Total ram usage:        1 bytes
  4291 ;; Hardware stack levels used:    1
  4292 ;; Hardware stack levels required when called:    2
  4293 ;; This function calls:
  4294 ;;		_delay
  4295 ;;		_e_pulse
  4296 ;; This function is called by:
  4297 ;;		_main
  4298 ;;		_lcd_goto
  4299 ;;		_lcd_clr
  4300 ;; This function uses a non-reentrant model
  4301 ;;
  4302                           psect	text633
  4303                           	file	"../../Source file/PR31_final.c"
  4304                           	line	467
  4305                           	global	__size_of_send_config
  4306  0019                     	__size_of_send_config	equ	__end_of_send_config-_send_config
  4307                           	
  4308  0B59                     _send_config:	
  4309                           	opt	stack 3
  4310                           ; Regs used in _send_config: [wreg+status,2+status,0+pclath+cstack]
  4311                           ;send_config@data stored from wreg
  4312  0B59  00F8               	movwf	(send_config@data)
  4313                           	line	468
  4314                           	
  4315  0B5A                     l5178:	
  4316                           ;PR31_final.c: 468: RB4=0;
  4317  0B5A  1283               	bcf	status, 5	;RP0=0, select bank0
  4318  0B5B  1303               	bcf	status, 6	;RP1=0, select bank0
  4319  0B5C  1206               	bcf	(52/8),(52)&7
  4320                           	line	469
  4321                           	
  4322  0B5D                     l5180:	
  4323                           ;PR31_final.c: 469: PORTD=data;
  4324  0B5D  0878               	movf	(send_config@data),w
  4325  0B5E  0088               	movwf	(8)	;volatile
  4326                           	line	470
  4327                           	
  4328  0B5F                     l5182:	
  4329                           ;PR31_final.c: 470: delay(300);
  4330  0B5F  3000               	movlw	0
  4331  0B60  00F3               	movwf	(?_delay+3)
  4332  0B61  3000               	movlw	0
  4333  0B62  00F2               	movwf	(?_delay+2)
  4334  0B63  3001               	movlw	01h
  4335  0B64  00F1               	movwf	(?_delay+1)
  4336  0B65  302C               	movlw	02Ch
  4337  0B66  00F0               	movwf	(?_delay)
  4338                           
  4339  0B67  120A  118A  202B   	fcall	_delay
              120A  158A         
  4340                           	line	471
  4341                           	
  4342  0B6C                     l5184:	
  4343                           ;PR31_final.c: 471: e_pulse();
  4344  0B6C  120A  158A  241F   	fcall	_e_pulse
              120A  158A         
  4345                           	line	472
  4346                           	
  4347  0B71                     l859:	
  4348  0B71  0008               	return
  4349                           	opt stack 0
  4350                           GLOBAL	__end_of_send_config
  4351  0B72                     	__end_of_send_config:
  4352 ;; =============== function _send_config ends ============
  4353                           
  4354                           	signat	_send_config,4216
  4355                           	global	_e_pulse
  4356                           psect	text634,local,class=CODE,delta=2
  4357                           global __ptext634
  4358  0C1F                     __ptext634:
  4359                           
  4360 ;; *************** function _e_pulse *****************
  4361 ;; Defined at:
  4362 ;;		line 481 in file "../../Source file/PR31_final.c"
  4363 ;; Parameters:    Size  Location     Type
  4364 ;;		None
  4365 ;; Auto vars:     Size  Location     Type
  4366 ;;		None
  4367 ;; Return value:  Size  Location     Type
  4368 ;;		None               void
  4369 ;; Registers used:
  4370 ;;		wreg, status,2, status,0, pclath, cstack
  4371 ;; Tracked objects:
  4372 ;;		On entry : 0/0
  4373 ;;		On exit  : 0/0
  4374 ;;		Unchanged: 0/0
  4375 ;; Data sizes:     COMMON   BANK0   BANK1   BANK3   BANK2
  4376 ;;      Params:         0       0       0       0       0
  4377 ;;      Locals:         0       0       0       0       0
  4378 ;;      Temps:          0       0       0       0       0
  4379 ;;      Totals:         0       0       0       0       0
  4380 ;;Total ram usage:        0 bytes
  4381 ;; Hardware stack levels used:    1
  4382 ;; Hardware stack levels required when called:    1
  4383 ;; This function calls:
  4384 ;;		_delay
  4385 ;; This function is called by:
  4386 ;;		_send_config
  4387 ;;		_send_char
  4388 ;; This function uses a non-reentrant model
  4389 ;;
  4390                           psect	text634
  4391                           	file	"../../Source file/PR31_final.c"
  4392                           	line	481
  4393                           	global	__size_of_e_pulse
  4394  0021                     	__size_of_e_pulse	equ	__end_of_e_pulse-_e_pulse
  4395                           	
  4396  0C1F                     _e_pulse:	
  4397                           	opt	stack 4
  4398                           ; Regs used in _e_pulse: [wreg+status,2+status,0+pclath+cstack]
  4399                           	line	482
  4400                           	
  4401  0C1F                     l5172:	
  4402                           ;PR31_final.c: 482: RB5=1;
  4403  0C1F  1283               	bcf	status, 5	;RP0=0, select bank0
  4404  0C20  1303               	bcf	status, 6	;RP1=0, select bank0
  4405  0C21  1686               	bsf	(53/8),(53)&7
  4406                           	line	483
  4407                           	
  4408  0C22                     l5174:	
  4409                           ;PR31_final.c: 483: delay(300);
  4410  0C22  3000               	movlw	0
  4411  0C23  00F3               	movwf	(?_delay+3)
  4412  0C24  3000               	movlw	0
  4413  0C25  00F2               	movwf	(?_delay+2)
  4414  0C26  3001               	movlw	01h
  4415  0C27  00F1               	movwf	(?_delay+1)
  4416  0C28  302C               	movlw	02Ch
  4417  0C29  00F0               	movwf	(?_delay)
  4418                           
  4419  0C2A  120A  118A  202B   	fcall	_delay
              120A  158A         
  4420                           	line	484
  4421                           	
  4422  0C2F                     l5176:	
  4423                           ;PR31_final.c: 484: RB5=0;
  4424  0C2F  1283               	bcf	status, 5	;RP0=0, select bank0
  4425  0C30  1303               	bcf	status, 6	;RP1=0, select bank0
  4426  0C31  1286               	bcf	(53/8),(53)&7
  4427                           	line	485
  4428                           ;PR31_final.c: 485: delay(300);
  4429  0C32  3000               	movlw	0
  4430  0C33  00F3               	movwf	(?_delay+3)
  4431  0C34  3000               	movlw	0
  4432  0C35  00F2               	movwf	(?_delay+2)
  4433  0C36  3001               	movlw	01h
  4434  0C37  00F1               	movwf	(?_delay+1)
  4435  0C38  302C               	movlw	02Ch
  4436  0C39  00F0               	movwf	(?_delay)
  4437                           
  4438  0C3A  120A  118A  202B   	fcall	_delay
              120A  158A         
  4439                           	line	486
  4440                           	
  4441  0C3F                     l865:	
  4442  0C3F  0008               	return
  4443                           	opt stack 0
  4444                           GLOBAL	__end_of_e_pulse
  4445  0C40                     	__end_of_e_pulse:
  4446 ;; =============== function _e_pulse ends ============
  4447                           
  4448                           	signat	_e_pulse,88
  4449                           	global	_setAR1000
  4450                           psect	text635,local,class=CODE,delta=2
  4451                           global __ptext635
  4452  01B1                     __ptext635:
  4453                           
  4454 ;; *************** function _setAR1000 *****************
  4455 ;; Defined at:
  4456 ;;		line 416 in file "../../Source file/PR31_final.c"
  4457 ;; Parameters:    Size  Location     Type
  4458 ;;  freq_kHz        2    9[BANK0 ] unsigned int 
  4459 ;; Auto vars:     Size  Location     Type
  4460 ;;		None
  4461 ;; Return value:  Size  Location     Type
  4462 ;;		None               void
  4463 ;; Registers used:
  4464 ;;		wreg, status,2, status,0, btemp+1, pclath, cstack
  4465 ;; Tracked objects:
  4466 ;;		On entry : 0/0
  4467 ;;		On exit  : 0/0
  4468 ;;		Unchanged: 0/0
  4469 ;; Data sizes:     COMMON   BANK0   BANK1   BANK3   BANK2
  4470 ;;      Params:         0       2       0       0       0
  4471 ;;      Locals:         0       0       0       0       0
  4472 ;;      Temps:          0       3       0       0       0
  4473 ;;      Totals:         0       5       0       0       0
  4474 ;;Total ram usage:        5 bytes
  4475 ;; Hardware stack levels used:    1
  4476 ;; Hardware stack levels required when called:    1
  4477 ;; This function calls:
  4478 ;;		_ar_i2c_write
  4479 ;;		_ar_i2c_read
  4480 ;;		_delay
  4481 ;; This function is called by:
  4482 ;;		_switch_channel
  4483 ;;		_decrease_chan
  4484 ;;		_increase_chan
  4485 ;; This function uses a non-reentrant model
  4486 ;;
  4487                           psect	text635
  4488                           	file	"../../Source file/PR31_final.c"
  4489                           	line	416
  4490                           	global	__size_of_setAR1000
  4491  0111                     	__size_of_setAR1000	equ	__end_of_setAR1000-_setAR1000
  4492                           	
  4493  01B1                     _setAR1000:	
  4494                           	opt	stack 4
  4495                           ; Regs used in _setAR1000: [wreg+status,2+status,0+btemp+1+pclath+cstack]
  4496                           	line	417
  4497                           	
  4498  01B1                     l5136:	
  4499                           ;PR31_final.c: 417: freq_kHz -= 690;
  4500  01B1  30B2               	movlw	low(02B2h)
  4501  01B2  1283               	bcf	status, 5	;RP0=0, select bank0
  4502  01B3  1303               	bcf	status, 6	;RP1=0, select bank0
  4503  01B4  02A9               	subwf	(setAR1000@freq_kHz),f
  4504  01B5  3002               	movlw	high(02B2h)
  4505  01B6  1C03               	skipc
  4506  01B7  03AA               	decf	(setAR1000@freq_kHz+1),f
  4507  01B8  02AA               	subwf	(setAR1000@freq_kHz+1),f
  4508                           	line	419
  4509                           	
  4510  01B9                     l5138:	
  4511                           ;PR31_final.c: 419: register_values[1] |= (1<<1);
  4512  01B9  1683               	bsf	status, 5	;RP0=1, select bank1
  4513  01BA  1303               	bcf	status, 6	;RP1=0, select bank1
  4514  01BB  14AC               	bsf	0+(_register_values)^080h+02h+(1/8),(1)&7
  4515                           	line	420
  4516                           	
  4517  01BC                     l5140:	
  4518                           ;PR31_final.c: 420: ar_i2c_write(0x20, 1, register_values[1]);
  4519  01BC  01F0               	clrf	(?_ar_i2c_write)
  4520  01BD  1403               	bsf	status,0
  4521  01BE  0DF0               	rlf	(?_ar_i2c_write),f
  4522  01BF  082C               	movf	0+(_register_values)^080h+02h,w
  4523  01C0  00F1               	movwf	0+(?_ar_i2c_write)+01h
  4524  01C1  082D               	movf	1+(_register_values)^080h+02h,w
  4525  01C2  00F2               	movwf	(0+(?_ar_i2c_write)+01h)+1
  4526  01C3  01F3               	clrf	2+(0+(?_ar_i2c_write)+01h)
  4527  01C4  01F4               	clrf	3+(0+(?_ar_i2c_write)+01h)
  4528  01C5  3020               	movlw	(020h)
  4529  01C6  120A  158A  26D3   	fcall	_ar_i2c_write
              120A  118A         
  4530                           	line	423
  4531                           	
  4532  01CB                     l5142:	
  4533                           ;PR31_final.c: 423: register_values[2] &= ~(0x01FF | 0x0200);
  4534  01CB  3000               	movlw	low(0FC00h)
  4535  01CC  1683               	bsf	status, 5	;RP0=1, select bank1
  4536  01CD  1303               	bcf	status, 6	;RP1=0, select bank1
  4537  01CE  05AE               	andwf	0+(_register_values)^080h+04h,f
  4538  01CF  30FC               	movlw	high(0FC00h)
  4539  01D0  05AF               	andwf	1+(_register_values)^080h+04h,f
  4540                           	line	424
  4541                           ;PR31_final.c: 424: ar_i2c_write(0x20, 2, register_values[2]);
  4542  01D1  3002               	movlw	(02h)
  4543  01D2  1283               	bcf	status, 5	;RP0=0, select bank0
  4544  01D3  1303               	bcf	status, 6	;RP1=0, select bank0
  4545  01D4  00AB               	movwf	(??_setAR1000+0)+0
  4546  01D5  082B               	movf	(??_setAR1000+0)+0,w
  4547  01D6  00F0               	movwf	(?_ar_i2c_write)
  4548  01D7  1683               	bsf	status, 5	;RP0=1, select bank1
  4549  01D8  1303               	bcf	status, 6	;RP1=0, select bank1
  4550  01D9  082E               	movf	0+(_register_values)^080h+04h,w
  4551  01DA  00F1               	movwf	0+(?_ar_i2c_write)+01h
  4552  01DB  082F               	movf	1+(_register_values)^080h+04h,w
  4553  01DC  00F2               	movwf	(0+(?_ar_i2c_write)+01h)+1
  4554  01DD  01F3               	clrf	2+(0+(?_ar_i2c_write)+01h)
  4555  01DE  01F4               	clrf	3+(0+(?_ar_i2c_write)+01h)
  4556  01DF  3020               	movlw	(020h)
  4557  01E0  120A  158A  26D3   	fcall	_ar_i2c_write
              120A  118A         
  4558                           	line	427
  4559                           	
  4560  01E5                     l5144:	
  4561                           ;PR31_final.c: 427: register_values[3] &= ~(1<<14);
  4562  01E5  30FF               	movlw	low(0BFFFh)
  4563  01E6  1683               	bsf	status, 5	;RP0=1, select bank1
  4564  01E7  1303               	bcf	status, 6	;RP1=0, select bank1
  4565  01E8  05B0               	andwf	0+(_register_values)^080h+06h,f
  4566  01E9  30BF               	movlw	high(0BFFFh)
  4567  01EA  05B1               	andwf	1+(_register_values)^080h+06h,f
  4568                           	line	428
  4569                           	
  4570  01EB                     l5146:	
  4571                           ;PR31_final.c: 428: ar_i2c_write(0x20, 3,register_values[3]);
  4572  01EB  3003               	movlw	(03h)
  4573  01EC  1283               	bcf	status, 5	;RP0=0, select bank0
  4574  01ED  1303               	bcf	status, 6	;RP1=0, select bank0
  4575  01EE  00AB               	movwf	(??_setAR1000+0)+0
  4576  01EF  082B               	movf	(??_setAR1000+0)+0,w
  4577  01F0  00F0               	movwf	(?_ar_i2c_write)
  4578  01F1  1683               	bsf	status, 5	;RP0=1, select bank1
  4579  01F2  1303               	bcf	status, 6	;RP1=0, select bank1
  4580  01F3  0830               	movf	0+(_register_values)^080h+06h,w
  4581  01F4  00F1               	movwf	0+(?_ar_i2c_write)+01h
  4582  01F5  0831               	movf	1+(_register_values)^080h+06h,w
  4583  01F6  00F2               	movwf	(0+(?_ar_i2c_write)+01h)+1
  4584  01F7  01F3               	clrf	2+(0+(?_ar_i2c_write)+01h)
  4585  01F8  01F4               	clrf	3+(0+(?_ar_i2c_write)+01h)
  4586  01F9  3020               	movlw	(020h)
  4587  01FA  120A  158A  26D3   	fcall	_ar_i2c_write
              120A  118A         
  4588                           	line	431
  4589                           	
  4590  01FF                     l5148:	
  4591                           ;PR31_final.c: 431: register_values[3] |= (1<<13);
  4592  01FF  1683               	bsf	status, 5	;RP0=1, select bank1
  4593  0200  1303               	bcf	status, 6	;RP1=0, select bank1
  4594  0201  16B1               	bsf	0+(_register_values)^080h+06h+(13/8),(13)&7
  4595                           	line	432
  4596                           	
  4597  0202                     l5150:	
  4598                           ;PR31_final.c: 432: ar_i2c_write(0x20, 3,register_values[3]);
  4599  0202  3003               	movlw	(03h)
  4600  0203  1283               	bcf	status, 5	;RP0=0, select bank0
  4601  0204  1303               	bcf	status, 6	;RP1=0, select bank0
  4602  0205  00AB               	movwf	(??_setAR1000+0)+0
  4603  0206  082B               	movf	(??_setAR1000+0)+0,w
  4604  0207  00F0               	movwf	(?_ar_i2c_write)
  4605  0208  1683               	bsf	status, 5	;RP0=1, select bank1
  4606  0209  1303               	bcf	status, 6	;RP1=0, select bank1
  4607  020A  0830               	movf	0+(_register_values)^080h+06h,w
  4608  020B  00F1               	movwf	0+(?_ar_i2c_write)+01h
  4609  020C  0831               	movf	1+(_register_values)^080h+06h,w
  4610  020D  00F2               	movwf	(0+(?_ar_i2c_write)+01h)+1
  4611  020E  01F3               	clrf	2+(0+(?_ar_i2c_write)+01h)
  4612  020F  01F4               	clrf	3+(0+(?_ar_i2c_write)+01h)
  4613  0210  3020               	movlw	(020h)
  4614  0211  120A  158A  26D3   	fcall	_ar_i2c_write
              120A  118A         
  4615                           	line	435
  4616                           	
  4617  0216                     l5152:	
  4618                           ;PR31_final.c: 435: register_values[2] |= freq_kHz;
  4619  0216  1283               	bcf	status, 5	;RP0=0, select bank0
  4620  0217  1303               	bcf	status, 6	;RP1=0, select bank0
  4621  0218  0829               	movf	(setAR1000@freq_kHz),w
  4622  0219  1683               	bsf	status, 5	;RP0=1, select bank1
  4623  021A  1303               	bcf	status, 6	;RP1=0, select bank1
  4624  021B  04AE               	iorwf	0+(_register_values)^080h+04h,f
  4625  021C  1283               	bcf	status, 5	;RP0=0, select bank0
  4626  021D  1303               	bcf	status, 6	;RP1=0, select bank0
  4627  021E  082A               	movf	(setAR1000@freq_kHz+1),w
  4628  021F  1683               	bsf	status, 5	;RP0=1, select bank1
  4629  0220  1303               	bcf	status, 6	;RP1=0, select bank1
  4630  0221  04AF               	iorwf	1+(_register_values)^080h+04h,f
  4631                           	line	436
  4632                           ;PR31_final.c: 436: ar_i2c_write(0x20, 2,register_values[2]);
  4633  0222  3002               	movlw	(02h)
  4634  0223  1283               	bcf	status, 5	;RP0=0, select bank0
  4635  0224  1303               	bcf	status, 6	;RP1=0, select bank0
  4636  0225  00AB               	movwf	(??_setAR1000+0)+0
  4637  0226  082B               	movf	(??_setAR1000+0)+0,w
  4638  0227  00F0               	movwf	(?_ar_i2c_write)
  4639  0228  1683               	bsf	status, 5	;RP0=1, select bank1
  4640  0229  1303               	bcf	status, 6	;RP1=0, select bank1
  4641  022A  082E               	movf	0+(_register_values)^080h+04h,w
  4642  022B  00F1               	movwf	0+(?_ar_i2c_write)+01h
  4643  022C  082F               	movf	1+(_register_values)^080h+04h,w
  4644  022D  00F2               	movwf	(0+(?_ar_i2c_write)+01h)+1
  4645  022E  01F3               	clrf	2+(0+(?_ar_i2c_write)+01h)
  4646  022F  01F4               	clrf	3+(0+(?_ar_i2c_write)+01h)
  4647  0230  3020               	movlw	(020h)
  4648  0231  120A  158A  26D3   	fcall	_ar_i2c_write
              120A  118A         
  4649                           	line	439
  4650                           	
  4651  0236                     l5154:	
  4652                           ;PR31_final.c: 439: register_values[2] |= (1<<9);
  4653  0236  1683               	bsf	status, 5	;RP0=1, select bank1
  4654  0237  1303               	bcf	status, 6	;RP1=0, select bank1
  4655  0238  14AF               	bsf	0+(_register_values)^080h+04h+(9/8),(9)&7
  4656                           	line	440
  4657                           ;PR31_final.c: 440: ar_i2c_write(0x20, 2,register_values[2]);
  4658  0239  3002               	movlw	(02h)
  4659  023A  1283               	bcf	status, 5	;RP0=0, select bank0
  4660  023B  1303               	bcf	status, 6	;RP1=0, select bank0
  4661  023C  00AB               	movwf	(??_setAR1000+0)+0
  4662  023D  082B               	movf	(??_setAR1000+0)+0,w
  4663  023E  00F0               	movwf	(?_ar_i2c_write)
  4664  023F  1683               	bsf	status, 5	;RP0=1, select bank1
  4665  0240  1303               	bcf	status, 6	;RP1=0, select bank1
  4666  0241  082E               	movf	0+(_register_values)^080h+04h,w
  4667  0242  00F1               	movwf	0+(?_ar_i2c_write)+01h
  4668  0243  082F               	movf	1+(_register_values)^080h+04h,w
  4669  0244  00F2               	movwf	(0+(?_ar_i2c_write)+01h)+1
  4670  0245  01F3               	clrf	2+(0+(?_ar_i2c_write)+01h)
  4671  0246  01F4               	clrf	3+(0+(?_ar_i2c_write)+01h)
  4672  0247  3020               	movlw	(020h)
  4673  0248  120A  158A  26D3   	fcall	_ar_i2c_write
              120A  118A         
  4674                           	line	442
  4675                           ;PR31_final.c: 442: while(STC == 0)
  4676  024D  2A74               	goto	l5162
  4677                           	
  4678  024E                     l849:	
  4679                           	line	444
  4680                           	
  4681  024E                     l5156:	
  4682                           ;PR31_final.c: 443: {
  4683                           ;PR31_final.c: 444: STC = ar_i2c_read(0x20, 0x13);
  4684  024E  3013               	movlw	(013h)
  4685  024F  1283               	bcf	status, 5	;RP0=0, select bank0
  4686  0250  1303               	bcf	status, 6	;RP1=0, select bank0
  4687  0251  00AB               	movwf	(??_setAR1000+0)+0
  4688  0252  082B               	movf	(??_setAR1000+0)+0,w
  4689  0253  00F0               	movwf	(?_ar_i2c_read)
  4690  0254  3020               	movlw	(020h)
  4691  0255  120A  118A  23EE   	fcall	_ar_i2c_read
              120A  118A         
  4692  025A  0871               	movf	(1+(?_ar_i2c_read)),w
  4693  025B  1283               	bcf	status, 5	;RP0=0, select bank0
  4694  025C  1303               	bcf	status, 6	;RP1=0, select bank0
  4695  025D  01E6               	clrf	(_STC+1)
  4696  025E  07E6               	addwf	(_STC+1)
  4697  025F  0870               	movf	(0+(?_ar_i2c_read)),w
  4698  0260  01E5               	clrf	(_STC)
  4699  0261  07E5               	addwf	(_STC)
  4700                           
  4701                           	line	445
  4702                           	
  4703  0262                     l5158:	
  4704                           ;PR31_final.c: 445: STC &= (1<<5);
  4705  0262  3020               	movlw	low(020h)
  4706  0263  05E5               	andwf	(_STC),f
  4707  0264  3000               	movlw	high(020h)
  4708  0265  05E6               	andwf	(_STC+1),f
  4709                           	line	446
  4710                           	
  4711  0266                     l5160:	
  4712                           ;PR31_final.c: 446: delay(10);
  4713  0266  3000               	movlw	0
  4714  0267  00F3               	movwf	(?_delay+3)
  4715  0268  3000               	movlw	0
  4716  0269  00F2               	movwf	(?_delay+2)
  4717  026A  3000               	movlw	0
  4718  026B  00F1               	movwf	(?_delay+1)
  4719  026C  300A               	movlw	0Ah
  4720  026D  00F0               	movwf	(?_delay)
  4721                           
  4722  026E  120A  118A  202B   	fcall	_delay
              120A  118A         
  4723  0273  2A74               	goto	l5162
  4724                           	line	447
  4725                           	
  4726  0274                     l848:	
  4727                           	line	442
  4728                           	
  4729  0274                     l5162:	
  4730  0274  1283               	bcf	status, 5	;RP0=0, select bank0
  4731  0275  1303               	bcf	status, 6	;RP1=0, select bank0
  4732  0276  0866               	movf	(_STC+1),w
  4733  0277  0465               	iorwf	(_STC),w
  4734  0278  1903               	skipnz
  4735  0279  2A7B               	goto	u3811
  4736  027A  2A7C               	goto	u3810
  4737  027B                     u3811:
  4738  027B  2A4E               	goto	l5156
  4739  027C                     u3810:
  4740  027C  2A7D               	goto	l5164
  4741                           	
  4742  027D                     l850:	
  4743                           	line	451
  4744                           	
  4745  027D                     l5164:	
  4746                           ;PR31_final.c: 447: }
  4747                           ;PR31_final.c: 451: register_values[1] &= ~(1<<1);
  4748  027D  30FD               	movlw	low(0FFFDh)
  4749  027E  1683               	bsf	status, 5	;RP0=1, select bank1
  4750  027F  1303               	bcf	status, 6	;RP1=0, select bank1
  4751  0280  05AC               	andwf	0+(_register_values)^080h+02h,f
  4752  0281  30FF               	movlw	high(0FFFDh)
  4753  0282  05AD               	andwf	1+(_register_values)^080h+02h,f
  4754                           	line	452
  4755                           	
  4756  0283                     l5166:	
  4757                           ;PR31_final.c: 452: ar_i2c_write(0x20, 1,register_values[1]);
  4758  0283  01F0               	clrf	(?_ar_i2c_write)
  4759  0284  1403               	bsf	status,0
  4760  0285  0DF0               	rlf	(?_ar_i2c_write),f
  4761  0286  082C               	movf	0+(_register_values)^080h+02h,w
  4762  0287  00F1               	movwf	0+(?_ar_i2c_write)+01h
  4763  0288  082D               	movf	1+(_register_values)^080h+02h,w
  4764  0289  00F2               	movwf	(0+(?_ar_i2c_write)+01h)+1
  4765  028A  01F3               	clrf	2+(0+(?_ar_i2c_write)+01h)
  4766  028B  01F4               	clrf	3+(0+(?_ar_i2c_write)+01h)
  4767  028C  3020               	movlw	(020h)
  4768  028D  120A  158A  26D3   	fcall	_ar_i2c_write
              120A  118A         
  4769                           	line	454
  4770                           	
  4771  0292                     l5168:	
  4772                           ;PR31_final.c: 454: currentChannel = (ar_i2c_read(0x20, 0x13)&0xFF80)>>7;
  4773  0292  3013               	movlw	(013h)
  4774  0293  1283               	bcf	status, 5	;RP0=0, select bank0
  4775  0294  1303               	bcf	status, 6	;RP1=0, select bank0
  4776  0295  00AB               	movwf	(??_setAR1000+0)+0
  4777  0296  082B               	movf	(??_setAR1000+0)+0,w
  4778  0297  00F0               	movwf	(?_ar_i2c_read)
  4779  0298  3020               	movlw	(020h)
  4780  0299  120A  118A  23EE   	fcall	_ar_i2c_read
              120A  118A         
  4781  029E  0870               	movf	(0+?_ar_i2c_read),w
  4782  029F  1283               	bcf	status, 5	;RP0=0, select bank0
  4783  02A0  1303               	bcf	status, 6	;RP1=0, select bank0
  4784  02A1  00AC               	movwf	(??_setAR1000+1)+0
  4785  02A2  0871               	movf	(1+?_ar_i2c_read),w
  4786  02A3  00AD               	movwf	((??_setAR1000+1)+0+1)
  4787  02A4  3007               	movlw	07h
  4788  02A5                     u3825:
  4789  02A5  1003               	clrc
  4790  02A6  0CAD               	rrf	(??_setAR1000+1)+1,f
  4791  02A7  0CAC               	rrf	(??_setAR1000+1)+0,f
  4792  02A8  3EFF               	addlw	-1
  4793  02A9  1D03               	skipz
  4794  02AA  2AA5               	goto	u3825
  4795  02AB  30FF               	movlw	low(01FFh)
  4796  02AC  052C               	andwf	0+(??_setAR1000+1)+0,w
  4797  02AD  00DD               	movwf	(_currentChannel)
  4798  02AE  3001               	movlw	high(01FFh)
  4799  02AF  052D               	andwf	1+(??_setAR1000+1)+0,w
  4800  02B0  00DE               	movwf	1+(_currentChannel)
  4801  02B1  01DF               	clrf	2+(_currentChannel)
  4802  02B2  01E0               	clrf	3+(_currentChannel)
  4803                           	line	455
  4804                           	
  4805  02B3                     l5170:	
  4806                           ;PR31_final.c: 455: currentChannel += 690;
  4807  02B3  30B2               	movlw	0B2h
  4808  02B4  07DD               	addwf	(_currentChannel),f
  4809  02B5  3002               	movlw	02h
  4810  02B6  1803               	skipnc
  4811  02B7  3003               movlw 3
  4812  02B8  07DE               	addwf	(_currentChannel+1),f
  4813  02B9  3000               	movlw	0
  4814  02BA  1803               	skipnc
  4815  02BB  3001               movlw 1
  4816  02BC  07DF               	addwf	(_currentChannel+2),f
  4817  02BD  3000               	movlw	0
  4818  02BE  1803               	skipnc
  4819  02BF  3001               movlw 1
  4820  02C0  07E0               	addwf	(_currentChannel+3),f
  4821                           	line	456
  4822                           	
  4823  02C1                     l851:	
  4824  02C1  0008               	return
  4825                           	opt stack 0
  4826                           GLOBAL	__end_of_setAR1000
  4827  02C2                     	__end_of_setAR1000:
  4828 ;; =============== function _setAR1000 ends ============
  4829                           
  4830                           	signat	_setAR1000,4216
  4831                           	global	_set_vol
  4832                           psect	text636,local,class=CODE,delta=2
  4833                           global __ptext636
  4834  005B                     __ptext636:
  4835                           
  4836 ;; *************** function _set_vol *****************
  4837 ;; Defined at:
  4838 ;;		line 327 in file "../../Source file/PR31_final.c"
  4839 ;; Parameters:    Size  Location     Type
  4840 ;;  key             1    wreg     unsigned char 
  4841 ;; Auto vars:     Size  Location     Type
  4842 ;;  key             1   13[COMMON] unsigned char 
  4843 ;; Return value:  Size  Location     Type
  4844 ;;		None               void
  4845 ;; Registers used:
  4846 ;;		wreg, fsr0l, fsr0h, status,2, status,0, btemp+1, pclath, cstack
  4847 ;; Tracked objects:
  4848 ;;		On entry : 0/0
  4849 ;;		On exit  : 0/0
  4850 ;;		Unchanged: 0/0
  4851 ;; Data sizes:     COMMON   BANK0   BANK1   BANK3   BANK2
  4852 ;;      Params:         0       0       0       0       0
  4853 ;;      Locals:         1       0       0       0       0
  4854 ;;      Temps:          0       4       0       0       0
  4855 ;;      Totals:         1       4       0       0       0
  4856 ;;Total ram usage:        5 bytes
  4857 ;; Hardware stack levels used:    1
  4858 ;; Hardware stack levels required when called:    1
  4859 ;; This function calls:
  4860 ;;		_ar_i2c_write
  4861 ;; This function is called by:
  4862 ;;		_main
  4863 ;;		_adjust_vol
  4864 ;; This function uses a non-reentrant model
  4865 ;;
  4866                           psect	text636
  4867                           	file	"../../Source file/PR31_final.c"
  4868                           	line	327
  4869                           	global	__size_of_set_vol
  4870  00AB                     	__size_of_set_vol	equ	__end_of_set_vol-_set_vol
  4871                           	
  4872  005B                     _set_vol:	
  4873                           	opt	stack 5
  4874                           ; Regs used in _set_vol: [wreg-fsr0h+status,2+status,0+btemp+1+pclath+cstack]
  4875                           ;set_vol@key stored from wreg
  4876  005B  00FD               	movwf	(set_vol@key)
  4877                           	line	328
  4878                           	
  4879  005C                     l5120:	
  4880                           ;PR31_final.c: 328: vol = key;
  4881  005C  087D               	movf	(set_vol@key),w
  4882  005D  1283               	bcf	status, 5	;RP0=0, select bank0
  4883  005E  1303               	bcf	status, 6	;RP1=0, select bank0
  4884  005F  00A0               	movwf	(??_set_vol+0)+0
  4885  0060  0820               	movf	(??_set_vol+0)+0,w
  4886  0061  00E9               	movwf	(_vol)
  4887                           	line	330
  4888                           	
  4889  0062                     l5122:	
  4890                           ;PR31_final.c: 330: register_values[1] |= (1<<1);
  4891  0062  1683               	bsf	status, 5	;RP0=1, select bank1
  4892  0063  1303               	bcf	status, 6	;RP1=0, select bank1
  4893  0064  14AC               	bsf	0+(_register_values)^080h+02h+(1/8),(1)&7
  4894                           	line	331
  4895                           	
  4896  0065                     l5124:	
  4897                           ;PR31_final.c: 331: ar_i2c_write(0x20, 1, register_values[1]);
  4898  0065  01F0               	clrf	(?_ar_i2c_write)
  4899  0066  1403               	bsf	status,0
  4900  0067  0DF0               	rlf	(?_ar_i2c_write),f
  4901  0068  082C               	movf	0+(_register_values)^080h+02h,w
  4902  0069  00F1               	movwf	0+(?_ar_i2c_write)+01h
  4903  006A  082D               	movf	1+(_register_values)^080h+02h,w
  4904  006B  00F2               	movwf	(0+(?_ar_i2c_write)+01h)+1
  4905  006C  01F3               	clrf	2+(0+(?_ar_i2c_write)+01h)
  4906  006D  01F4               	clrf	3+(0+(?_ar_i2c_write)+01h)
  4907  006E  3020               	movlw	(020h)
  4908  006F  120A  158A  26D3   	fcall	_ar_i2c_write
              120A  118A         
  4909                           	line	333
  4910                           	
  4911  0074                     l5126:	
  4912                           ;PR31_final.c: 333: register_values[3] = (register_values[3] & ~0x0780) | (v1[key] << 7)
                                 ;
  4913  0074  087D               	movf	(set_vol@key),w
  4914  0075  3EA0               	addlw	_v1&0ffh
  4915  0076  0084               	movwf	fsr0
  4916  0077  1383               	bcf	status, 7	;select IRP bank1
  4917  0078  0800               	movf	indf,w
  4918  0079  1283               	bcf	status, 5	;RP0=0, select bank0
  4919  007A  1303               	bcf	status, 6	;RP1=0, select bank0
  4920  007B  00A0               	movwf	(??_set_vol+0)+0
  4921  007C  01A1               	clrf	(??_set_vol+0)+0+1
  4922  007D  3007               	movlw	07h
  4923  007E  00FF               	movwf	btemp+1
  4924  007F                     u3795:
  4925  007F  1003               	clrc
  4926  0080  0DA0               	rlf	(??_set_vol+0)+0,f
  4927  0081  0DA1               	rlf	(??_set_vol+0)+1,f
  4928  0082  0BFF               	decfsz	btemp+1,f
  4929  0083  287F               	goto	u3795
  4930  0084  307F               	movlw	low(0F87Fh)
  4931  0085  1683               	bsf	status, 5	;RP0=1, select bank1
  4932  0086  1303               	bcf	status, 6	;RP1=0, select bank1
  4933  0087  0530               	andwf	0+(_register_values)^080h+06h,w
  4934  0088  1283               	bcf	status, 5	;RP0=0, select bank0
  4935  0089  1303               	bcf	status, 6	;RP1=0, select bank0
  4936  008A  00A2               	movwf	(??_set_vol+2)+0
  4937  008B  30F8               	movlw	high(0F87Fh)
  4938  008C  1683               	bsf	status, 5	;RP0=1, select bank1
  4939  008D  1303               	bcf	status, 6	;RP1=0, select bank1
  4940  008E  0531               	andwf	1+(_register_values)^080h+06h,w
  4941  008F  1283               	bcf	status, 5	;RP0=0, select bank0
  4942  0090  1303               	bcf	status, 6	;RP1=0, select bank0
  4943  0091  00A3               	movwf	1+(??_set_vol+2)+0
  4944  0092  0820               	movf	0+(??_set_vol+0)+0,w
  4945  0093  0422               	iorwf	0+(??_set_vol+2)+0,w
  4946  0094  1683               	bsf	status, 5	;RP0=1, select bank1
  4947  0095  1303               	bcf	status, 6	;RP1=0, select bank1
  4948  0096  00B0               	movwf	0+(_register_values)^080h+06h
  4949  0097  1283               	bcf	status, 5	;RP0=0, select bank0
  4950  0098  1303               	bcf	status, 6	;RP1=0, select bank0
  4951  0099  0821               	movf	1+(??_set_vol+0)+0,w
  4952  009A  0423               	iorwf	1+(??_set_vol+2)+0,w
  4953  009B  1683               	bsf	status, 5	;RP0=1, select bank1
  4954  009C  1303               	bcf	status, 6	;RP1=0, select bank1
  4955  009D  00B1               	movwf	1+0+(_register_values)^080h+06h
  4956                           	line	334
  4957                           	
  4958  009E                     l5128:	
  4959                           ;PR31_final.c: 334: ar_i2c_write(0x20, 3, register_values[3]);
  4960  009E  3003               	movlw	(03h)
  4961  009F  1283               	bcf	status, 5	;RP0=0, select bank0
  4962  00A0  1303               	bcf	status, 6	;RP1=0, select bank0
  4963  00A1  00A0               	movwf	(??_set_vol+0)+0
  4964  00A2  0820               	movf	(??_set_vol+0)+0,w
  4965  00A3  00F0               	movwf	(?_ar_i2c_write)
  4966  00A4  1683               	bsf	status, 5	;RP0=1, select bank1
  4967  00A5  1303               	bcf	status, 6	;RP1=0, select bank1
  4968  00A6  0830               	movf	0+(_register_values)^080h+06h,w
  4969  00A7  00F1               	movwf	0+(?_ar_i2c_write)+01h
  4970  00A8  0831               	movf	1+(_register_values)^080h+06h,w
  4971  00A9  00F2               	movwf	(0+(?_ar_i2c_write)+01h)+1
  4972  00AA  01F3               	clrf	2+(0+(?_ar_i2c_write)+01h)
  4973  00AB  01F4               	clrf	3+(0+(?_ar_i2c_write)+01h)
  4974  00AC  3020               	movlw	(020h)
  4975  00AD  120A  158A  26D3   	fcall	_ar_i2c_write
              120A  118A         
  4976                           	line	336
  4977                           	
  4978  00B2                     l5130:	
  4979                           ;PR31_final.c: 336: register_values[14] = (register_values[14] & ~0xF000)| (v2[key]<< 12
                                 );
  4980  00B2  087D               	movf	(set_vol@key),w
  4981  00B3  3E4C               	addlw	_v2&0ffh
  4982  00B4  0084               	movwf	fsr0
  4983  00B5  1383               	bcf	status, 7	;select IRP bank0
  4984  00B6  0800               	movf	indf,w
  4985  00B7  1283               	bcf	status, 5	;RP0=0, select bank0
  4986  00B8  1303               	bcf	status, 6	;RP1=0, select bank0
  4987  00B9  00A0               	movwf	(??_set_vol+0)+0
  4988  00BA  01A1               	clrf	(??_set_vol+0)+0+1
  4989  00BB  300C               	movlw	0Ch
  4990  00BC  00FF               	movwf	btemp+1
  4991  00BD                     u3805:
  4992  00BD  1003               	clrc
  4993  00BE  0DA0               	rlf	(??_set_vol+0)+0,f
  4994  00BF  0DA1               	rlf	(??_set_vol+0)+1,f
  4995  00C0  0BFF               	decfsz	btemp+1,f
  4996  00C1  28BD               	goto	u3805
  4997  00C2  30FF               	movlw	low(0FFFh)
  4998  00C3  1683               	bsf	status, 5	;RP0=1, select bank1
  4999  00C4  1303               	bcf	status, 6	;RP1=0, select bank1
  5000  00C5  0546               	andwf	0+(_register_values)^080h+01Ch,w
  5001  00C6  1283               	bcf	status, 5	;RP0=0, select bank0
  5002  00C7  1303               	bcf	status, 6	;RP1=0, select bank0
  5003  00C8  00A2               	movwf	(??_set_vol+2)+0
  5004  00C9  300F               	movlw	high(0FFFh)
  5005  00CA  1683               	bsf	status, 5	;RP0=1, select bank1
  5006  00CB  1303               	bcf	status, 6	;RP1=0, select bank1
  5007  00CC  0547               	andwf	1+(_register_values)^080h+01Ch,w
  5008  00CD  1283               	bcf	status, 5	;RP0=0, select bank0
  5009  00CE  1303               	bcf	status, 6	;RP1=0, select bank0
  5010  00CF  00A3               	movwf	1+(??_set_vol+2)+0
  5011  00D0  0820               	movf	0+(??_set_vol+0)+0,w
  5012  00D1  0422               	iorwf	0+(??_set_vol+2)+0,w
  5013  00D2  1683               	bsf	status, 5	;RP0=1, select bank1
  5014  00D3  1303               	bcf	status, 6	;RP1=0, select bank1
  5015  00D4  00C6               	movwf	0+(_register_values)^080h+01Ch
  5016  00D5  1283               	bcf	status, 5	;RP0=0, select bank0
  5017  00D6  1303               	bcf	status, 6	;RP1=0, select bank0
  5018  00D7  0821               	movf	1+(??_set_vol+0)+0,w
  5019  00D8  0423               	iorwf	1+(??_set_vol+2)+0,w
  5020  00D9  1683               	bsf	status, 5	;RP0=1, select bank1
  5021  00DA  1303               	bcf	status, 6	;RP1=0, select bank1
  5022  00DB  00C7               	movwf	1+0+(_register_values)^080h+01Ch
  5023                           	line	337
  5024                           	
  5025  00DC                     l5132:	
  5026                           ;PR31_final.c: 337: ar_i2c_write(0x20, 14, register_values[14]);
  5027  00DC  300E               	movlw	(0Eh)
  5028  00DD  1283               	bcf	status, 5	;RP0=0, select bank0
  5029  00DE  1303               	bcf	status, 6	;RP1=0, select bank0
  5030  00DF  00A0               	movwf	(??_set_vol+0)+0
  5031  00E0  0820               	movf	(??_set_vol+0)+0,w
  5032  00E1  00F0               	movwf	(?_ar_i2c_write)
  5033  00E2  1683               	bsf	status, 5	;RP0=1, select bank1
  5034  00E3  1303               	bcf	status, 6	;RP1=0, select bank1
  5035  00E4  0846               	movf	0+(_register_values)^080h+01Ch,w
  5036  00E5  00F1               	movwf	0+(?_ar_i2c_write)+01h
  5037  00E6  0847               	movf	1+(_register_values)^080h+01Ch,w
  5038  00E7  00F2               	movwf	(0+(?_ar_i2c_write)+01h)+1
  5039  00E8  01F3               	clrf	2+(0+(?_ar_i2c_write)+01h)
  5040  00E9  01F4               	clrf	3+(0+(?_ar_i2c_write)+01h)
  5041  00EA  3020               	movlw	(020h)
  5042  00EB  120A  158A  26D3   	fcall	_ar_i2c_write
              120A  118A         
  5043                           	line	339
  5044                           	
  5045  00F0                     l5134:	
  5046                           ;PR31_final.c: 339: register_values[1] &= ~(1<<1);
  5047  00F0  30FD               	movlw	low(0FFFDh)
  5048  00F1  1683               	bsf	status, 5	;RP0=1, select bank1
  5049  00F2  1303               	bcf	status, 6	;RP1=0, select bank1
  5050  00F3  05AC               	andwf	0+(_register_values)^080h+02h,f
  5051  00F4  30FF               	movlw	high(0FFFDh)
  5052  00F5  05AD               	andwf	1+(_register_values)^080h+02h,f
  5053                           	line	340
  5054                           ;PR31_final.c: 340: ar_i2c_write(0x20, 1,register_values[1]);
  5055  00F6  01F0               	clrf	(?_ar_i2c_write)
  5056  00F7  1403               	bsf	status,0
  5057  00F8  0DF0               	rlf	(?_ar_i2c_write),f
  5058  00F9  082C               	movf	0+(_register_values)^080h+02h,w
  5059  00FA  00F1               	movwf	0+(?_ar_i2c_write)+01h
  5060  00FB  082D               	movf	1+(_register_values)^080h+02h,w
  5061  00FC  00F2               	movwf	(0+(?_ar_i2c_write)+01h)+1
  5062  00FD  01F3               	clrf	2+(0+(?_ar_i2c_write)+01h)
  5063  00FE  01F4               	clrf	3+(0+(?_ar_i2c_write)+01h)
  5064  00FF  3020               	movlw	(020h)
  5065  0100  120A  158A  26D3   	fcall	_ar_i2c_write
              120A  118A         
  5066                           	line	341
  5067                           	
  5068  0105                     l817:	
  5069  0105  0008               	return
  5070                           	opt stack 0
  5071                           GLOBAL	__end_of_set_vol
  5072  0106                     	__end_of_set_vol:
  5073 ;; =============== function _set_vol ends ============
  5074                           
  5075                           	signat	_set_vol,4216
  5076                           	global	_uart_sendstr
  5077                           psect	text637,local,class=CODE,delta=2
  5078                           global __ptext637
  5079  0C6C                     __ptext637:
  5080                           
  5081 ;; *************** function _uart_sendstr *****************
  5082 ;; Defined at:
  5083 ;;		line 545 in file "../../Source file/PR31_final.c"
  5084 ;; Parameters:    Size  Location     Type
  5085 ;;  s               1    wreg     PTR const unsigned char 
  5086 ;;		 -> STR_21(4), STR_19(9), STR_18(9), STR_17(17), 
  5087 ;;		 -> STR_15(8), STR_13(9), STR_11(9), STR_9(17), 
  5088 ;;		 -> STR_7(12), STR_5(17), STR_3(21), 
  5089 ;; Auto vars:     Size  Location     Type
  5090 ;;  s               1    2[COMMON] PTR const unsigned char 
  5091 ;;		 -> STR_21(4), STR_19(9), STR_18(9), STR_17(17), 
  5092 ;;		 -> STR_15(8), STR_13(9), STR_11(9), STR_9(17), 
  5093 ;;		 -> STR_7(12), STR_5(17), STR_3(21), 
  5094 ;; Return value:  Size  Location     Type
  5095 ;;		None               void
  5096 ;; Registers used:
  5097 ;;		wreg, fsr0l, fsr0h, status,2, status,0, pclath, cstack
  5098 ;; Tracked objects:
  5099 ;;		On entry : 0/0
  5100 ;;		On exit  : 0/0
  5101 ;;		Unchanged: 0/0
  5102 ;; Data sizes:     COMMON   BANK0   BANK1   BANK3   BANK2
  5103 ;;      Params:         0       0       0       0       0
  5104 ;;      Locals:         1       0       0       0       0
  5105 ;;      Temps:          1       0       0       0       0
  5106 ;;      Totals:         2       0       0       0       0
  5107 ;;Total ram usage:        2 bytes
  5108 ;; Hardware stack levels used:    1
  5109 ;; Hardware stack levels required when called:    1
  5110 ;; This function calls:
  5111 ;;		_uart_tx
  5112 ;; This function is called by:
  5113 ;;		_main
  5114 ;;		_switch_channel
  5115 ;;		_adjust_channel
  5116 ;;		_decrease_chan
  5117 ;;		_increase_chan
  5118 ;;		_send_dec
  5119 ;; This function uses a non-reentrant model
  5120 ;;
  5121                           psect	text637
  5122                           	file	"../../Source file/PR31_final.c"
  5123                           	line	545
  5124                           	global	__size_of_uart_sendstr
  5125  002D                     	__size_of_uart_sendstr	equ	__end_of_uart_sendstr-_uart_sendstr
  5126                           	
  5127  0C6C                     _uart_sendstr:	
  5128                           	opt	stack 3
  5129                           ; Regs used in _uart_sendstr: [wreg-fsr0h+status,2+status,0+pclath+cstack]
  5130                           ;uart_sendstr@s stored from wreg
  5131  0C6C  00F2               	movwf	(uart_sendstr@s)
  5132                           	line	546
  5133                           	
  5134  0C6D                     l5112:	
  5135                           ;PR31_final.c: 546: uart_tx(0x0A);
  5136  0C6D  300A               	movlw	(0Ah)
  5137  0C6E  120A  158A  2304   	fcall	_uart_tx
              120A  158A         
  5138                           	line	547
  5139                           ;PR31_final.c: 547: uart_tx(0x0D);
  5140  0C73  300D               	movlw	(0Dh)
  5141  0C74  120A  158A  2304   	fcall	_uart_tx
              120A  158A         
  5142                           	line	549
  5143                           ;PR31_final.c: 549: while (*s != '\0')
  5144  0C79  2C8B               	goto	l5118
  5145                           	
  5146  0C7A                     l901:	
  5147                           	line	551
  5148                           	
  5149  0C7A                     l5114:	
  5150                           ;PR31_final.c: 550: {
  5151                           ;PR31_final.c: 551: uart_tx(*s);
  5152  0C7A  0872               	movf	(uart_sendstr@s),w
  5153  0C7B  0084               	movwf	fsr0
  5154  0C7C  120A  158A  2000   	fcall	stringdir
              120A  158A         
  5155  0C81  120A  158A  2304   	fcall	_uart_tx
              120A  158A         
  5156                           	line	552
  5157                           	
  5158  0C86                     l5116:	
  5159                           ;PR31_final.c: 552: s++;
  5160  0C86  3001               	movlw	(01h)
  5161  0C87  00F1               	movwf	(??_uart_sendstr+0)+0
  5162  0C88  0871               	movf	(??_uart_sendstr+0)+0,w
  5163  0C89  07F2               	addwf	(uart_sendstr@s),f
  5164  0C8A  2C8B               	goto	l5118
  5165                           	line	553
  5166                           	
  5167  0C8B                     l900:	
  5168                           	line	549
  5169                           	
  5170  0C8B                     l5118:	
  5171  0C8B  0872               	movf	(uart_sendstr@s),w
  5172  0C8C  0084               	movwf	fsr0
  5173  0C8D  120A  158A  2000   	fcall	stringdir
              120A  158A         
  5174  0C92  3800               	iorlw	0
  5175  0C93  1D03               	skipz
  5176  0C94  2C96               	goto	u3781
  5177  0C95  2C97               	goto	u3780
  5178  0C96                     u3781:
  5179  0C96  2C7A               	goto	l5114
  5180  0C97                     u3780:
  5181  0C97  2C98               	goto	l903
  5182                           	
  5183  0C98                     l902:	
  5184                           	line	555
  5185                           	
  5186  0C98                     l903:	
  5187  0C98  0008               	return
  5188                           	opt stack 0
  5189                           GLOBAL	__end_of_uart_sendstr
  5190  0C99                     	__end_of_uart_sendstr:
  5191 ;; =============== function _uart_sendstr ends ============
  5192                           
  5193                           	signat	_uart_sendstr,4216
  5194                           	global	_ar1000_init
  5195                           psect	text638,local,class=CODE,delta=2
  5196                           global __ptext638
  5197  0F5A                     __ptext638:
  5198                           
  5199 ;; *************** function _ar1000_init *****************
  5200 ;; Defined at:
  5201 ;;		line 394 in file "../../Source file/PR31_final.c"
  5202 ;; Parameters:    Size  Location     Type
  5203 ;;		None
  5204 ;; Auto vars:     Size  Location     Type
  5205 ;;  i               2   13[BANK0 ] int 
  5206 ;; Return value:  Size  Location     Type
  5207 ;;		None               void
  5208 ;; Registers used:
  5209 ;;		wreg, fsr0l, fsr0h, status,2, status,0, btemp+1, pclath, cstack
  5210 ;; Tracked objects:
  5211 ;;		On entry : 0/0
  5212 ;;		On exit  : 0/0
  5213 ;;		Unchanged: 0/0
  5214 ;; Data sizes:     COMMON   BANK0   BANK1   BANK3   BANK2
  5215 ;;      Params:         0       0       0       0       0
  5216 ;;      Locals:         0       2       0       0       0
  5217 ;;      Temps:          0       4       0       0       0
  5218 ;;      Totals:         0       6       0       0       0
  5219 ;;Total ram usage:        6 bytes
  5220 ;; Hardware stack levels used:    1
  5221 ;; Hardware stack levels required when called:    1
  5222 ;; This function calls:
  5223 ;;		_delay
  5224 ;;		_ar_i2c_write
  5225 ;;		_ar_i2c_read
  5226 ;; This function is called by:
  5227 ;;		_main
  5228 ;; This function uses a non-reentrant model
  5229 ;;
  5230                           psect	text638
  5231                           	file	"../../Source file/PR31_final.c"
  5232                           	line	394
  5233                           	global	__size_of_ar1000_init
  5234  00A6                     	__size_of_ar1000_init	equ	__end_of_ar1000_init-_ar1000_init
  5235                           	
  5236  0F5A                     _ar1000_init:	
  5237                           	opt	stack 6
  5238                           ; Regs used in _ar1000_init: [wreg-fsr0h+status,2+status,0+btemp+1+pclath+cstack]
  5239                           	line	395
  5240                           	
  5241  0F5A                     l5088:	
  5242                           ;PR31_final.c: 395: delay(100);
  5243  0F5A  3000               	movlw	0
  5244  0F5B  00F3               	movwf	(?_delay+3)
  5245  0F5C  3000               	movlw	0
  5246  0F5D  00F2               	movwf	(?_delay+2)
  5247  0F5E  3000               	movlw	0
  5248  0F5F  00F1               	movwf	(?_delay+1)
  5249  0F60  3064               	movlw	064h
  5250  0F61  00F0               	movwf	(?_delay)
  5251                           
  5252  0F62  120A  118A  202B   	fcall	_delay
              120A  158A         
  5253                           	line	396
  5254                           ;PR31_final.c: 396: ar_i2c_write(0x20, 0, register_values[0] & 0xFFFE);
  5255  0F67  01F0               	clrf	(?_ar_i2c_write)
  5256  0F68  30FE               	movlw	low(0FFFEh)
  5257  0F69  1683               	bsf	status, 5	;RP0=1, select bank1
  5258  0F6A  1303               	bcf	status, 6	;RP1=0, select bank1
  5259  0F6B  052A               	andwf	(_register_values)^080h,w
  5260  0F6C  00F1               	movwf	0+(?_ar_i2c_write)+01h
  5261  0F6D  30FF               	movlw	high(0FFFEh)
  5262  0F6E  052B               	andwf	(_register_values+1)^080h,w
  5263  0F6F  00F2               	movwf	1+0+(?_ar_i2c_write)+01h
  5264  0F70  01F3               	clrf	2+0+(?_ar_i2c_write)+01h
  5265  0F71  01F4               	clrf	3+0+(?_ar_i2c_write)+01h
  5266  0F72  3020               	movlw	(020h)
  5267  0F73  120A  158A  26D3   	fcall	_ar_i2c_write
              120A  158A         
  5268                           	line	398
  5269                           	
  5270  0F78                     l5090:	
  5271                           ;PR31_final.c: 398: for(int i = 1 ; i < 18 ; i++)
  5272  0F78  3001               	movlw	low(01h)
  5273  0F79  1283               	bcf	status, 5	;RP0=0, select bank0
  5274  0F7A  1303               	bcf	status, 6	;RP1=0, select bank0
  5275  0F7B  00AD               	movwf	(ar1000_init@i)
  5276  0F7C  3000               	movlw	high(01h)
  5277  0F7D  00AE               	movwf	((ar1000_init@i))+1
  5278                           	
  5279  0F7E                     l5092:	
  5280  0F7E  082E               	movf	(ar1000_init@i+1),w
  5281  0F7F  3A80               	xorlw	80h
  5282  0F80  00FF               	movwf	btemp+1
  5283  0F81  3080               	movlw	(high(012h))^80h
  5284  0F82  027F               	subwf	btemp+1,w
  5285  0F83  1D03               	skipz
  5286  0F84  2F87               	goto	u3755
  5287  0F85  3012               	movlw	low(012h)
  5288  0F86  022D               	subwf	(ar1000_init@i),w
  5289  0F87                     u3755:
  5290                           
  5291  0F87  1C03               	skipc
  5292  0F88  2F8A               	goto	u3751
  5293  0F89  2F8B               	goto	u3750
  5294  0F8A                     u3751:
  5295  0F8A  2F8D               	goto	l5096
  5296  0F8B                     u3750:
  5297  0F8B  2FC0               	goto	l5102
  5298                           	
  5299  0F8C                     l5094:	
  5300  0F8C  2FC0               	goto	l5102
  5301                           	line	399
  5302                           	
  5303  0F8D                     l840:	
  5304                           	line	400
  5305                           	
  5306  0F8D                     l5096:	
  5307                           ;PR31_final.c: 399: {
  5308                           ;PR31_final.c: 400: ar_i2c_write(0x20, i, register_values[i]);
  5309  0F8D  1283               	bcf	status, 5	;RP0=0, select bank0
  5310  0F8E  1303               	bcf	status, 6	;RP1=0, select bank0
  5311  0F8F  082D               	movf	(ar1000_init@i),w
  5312  0F90  00A9               	movwf	(??_ar1000_init+0)+0
  5313  0F91  0829               	movf	(??_ar1000_init+0)+0,w
  5314  0F92  00F0               	movwf	(?_ar_i2c_write)
  5315  0F93  082D               	movf	(ar1000_init@i),w
  5316  0F94  00AA               	movwf	(??_ar1000_init+1)+0
  5317  0F95  072A               	addwf	(??_ar1000_init+1)+0,w
  5318  0F96  3EAA               	addlw	_register_values&0ffh
  5319  0F97  0084               	movwf	fsr0
  5320  0F98  1383               	bcf	status, 7	;select IRP bank1
  5321  0F99  0800               	movf	indf,w
  5322  0F9A  00AB               	movwf	(??_ar1000_init+2)+0+0
  5323  0F9B  0A84               	incf	fsr0,f
  5324  0F9C  0800               	movf	indf,w
  5325  0F9D  00AC               	movwf	(??_ar1000_init+2)+0+1
  5326  0F9E  082B               	movf	0+(??_ar1000_init+2)+0,w
  5327  0F9F  00F1               	movwf	0+(?_ar_i2c_write)+01h
  5328  0FA0  082C               	movf	1+(??_ar1000_init+2)+0,w
  5329  0FA1  00F2               	movwf	(0+(?_ar_i2c_write)+01h)+1
  5330  0FA2  01F3               	clrf	2+(0+(?_ar_i2c_write)+01h)
  5331  0FA3  01F4               	clrf	3+(0+(?_ar_i2c_write)+01h)
  5332  0FA4  3020               	movlw	(020h)
  5333  0FA5  120A  158A  26D3   	fcall	_ar_i2c_write
              120A  158A         
  5334                           	line	398
  5335                           	
  5336  0FAA                     l5098:	
  5337  0FAA  3001               	movlw	low(01h)
  5338  0FAB  1283               	bcf	status, 5	;RP0=0, select bank0
  5339  0FAC  1303               	bcf	status, 6	;RP1=0, select bank0
  5340  0FAD  07AD               	addwf	(ar1000_init@i),f
  5341  0FAE  1803               	skipnc
  5342  0FAF  0AAE               	incf	(ar1000_init@i+1),f
  5343  0FB0  3000               	movlw	high(01h)
  5344  0FB1  07AE               	addwf	(ar1000_init@i+1),f
  5345                           	
  5346  0FB2                     l5100:	
  5347  0FB2  082E               	movf	(ar1000_init@i+1),w
  5348  0FB3  3A80               	xorlw	80h
  5349  0FB4  00FF               	movwf	btemp+1
  5350  0FB5  3080               	movlw	(high(012h))^80h
  5351  0FB6  027F               	subwf	btemp+1,w
  5352  0FB7  1D03               	skipz
  5353  0FB8  2FBB               	goto	u3765
  5354  0FB9  3012               	movlw	low(012h)
  5355  0FBA  022D               	subwf	(ar1000_init@i),w
  5356  0FBB                     u3765:
  5357                           
  5358  0FBB  1C03               	skipc
  5359  0FBC  2FBE               	goto	u3761
  5360  0FBD  2FBF               	goto	u3760
  5361  0FBE                     u3761:
  5362  0FBE  2F8D               	goto	l5096
  5363  0FBF                     u3760:
  5364  0FBF  2FC0               	goto	l5102
  5365                           	
  5366  0FC0                     l841:	
  5367                           	line	403
  5368                           	
  5369  0FC0                     l5102:	
  5370                           ;PR31_final.c: 401: }
  5371                           ;PR31_final.c: 403: ar_i2c_write(0x20, 0, register_values[0]);
  5372  0FC0  01F0               	clrf	(?_ar_i2c_write)
  5373  0FC1  1683               	bsf	status, 5	;RP0=1, select bank1
  5374  0FC2  1303               	bcf	status, 6	;RP1=0, select bank1
  5375  0FC3  082A               	movf	(_register_values)^080h,w
  5376  0FC4  00F1               	movwf	0+(?_ar_i2c_write)+01h
  5377  0FC5  082B               	movf	(_register_values+1)^080h,w
  5378  0FC6  00F2               	movwf	(0+(?_ar_i2c_write)+01h)+1
  5379  0FC7  01F3               	clrf	2+(0+(?_ar_i2c_write)+01h)
  5380  0FC8  01F4               	clrf	3+(0+(?_ar_i2c_write)+01h)
  5381  0FC9  3020               	movlw	(020h)
  5382  0FCA  120A  158A  26D3   	fcall	_ar_i2c_write
              120A  158A         
  5383                           	line	405
  5384                           ;PR31_final.c: 405: while(STC == 0)
  5385  0FCF  2FF6               	goto	l5110
  5386                           	
  5387  0FD0                     l843:	
  5388                           	line	407
  5389                           	
  5390  0FD0                     l5104:	
  5391                           ;PR31_final.c: 406: {
  5392                           ;PR31_final.c: 407: STC = ar_i2c_read(0x20, 0x13);
  5393  0FD0  3013               	movlw	(013h)
  5394  0FD1  1283               	bcf	status, 5	;RP0=0, select bank0
  5395  0FD2  1303               	bcf	status, 6	;RP1=0, select bank0
  5396  0FD3  00A9               	movwf	(??_ar1000_init+0)+0
  5397  0FD4  0829               	movf	(??_ar1000_init+0)+0,w
  5398  0FD5  00F0               	movwf	(?_ar_i2c_read)
  5399  0FD6  3020               	movlw	(020h)
  5400  0FD7  120A  118A  23EE   	fcall	_ar_i2c_read
              120A  158A         
  5401  0FDC  0871               	movf	(1+(?_ar_i2c_read)),w
  5402  0FDD  1283               	bcf	status, 5	;RP0=0, select bank0
  5403  0FDE  1303               	bcf	status, 6	;RP1=0, select bank0
  5404  0FDF  01E6               	clrf	(_STC+1)
  5405  0FE0  07E6               	addwf	(_STC+1)
  5406  0FE1  0870               	movf	(0+(?_ar_i2c_read)),w
  5407  0FE2  01E5               	clrf	(_STC)
  5408  0FE3  07E5               	addwf	(_STC)
  5409                           
  5410                           	line	408
  5411                           	
  5412  0FE4                     l5106:	
  5413                           ;PR31_final.c: 408: STC &= (1<<5);
  5414  0FE4  3020               	movlw	low(020h)
  5415  0FE5  05E5               	andwf	(_STC),f
  5416  0FE6  3000               	movlw	high(020h)
  5417  0FE7  05E6               	andwf	(_STC+1),f
  5418                           	line	409
  5419                           	
  5420  0FE8                     l5108:	
  5421                           ;PR31_final.c: 409: delay(10);
  5422  0FE8  3000               	movlw	0
  5423  0FE9  00F3               	movwf	(?_delay+3)
  5424  0FEA  3000               	movlw	0
  5425  0FEB  00F2               	movwf	(?_delay+2)
  5426  0FEC  3000               	movlw	0
  5427  0FED  00F1               	movwf	(?_delay+1)
  5428  0FEE  300A               	movlw	0Ah
  5429  0FEF  00F0               	movwf	(?_delay)
  5430                           
  5431  0FF0  120A  118A  202B   	fcall	_delay
              120A  158A         
  5432  0FF5  2FF6               	goto	l5110
  5433                           	line	411
  5434                           	
  5435  0FF6                     l842:	
  5436                           	line	405
  5437                           	
  5438  0FF6                     l5110:	
  5439  0FF6  1283               	bcf	status, 5	;RP0=0, select bank0
  5440  0FF7  1303               	bcf	status, 6	;RP1=0, select bank0
  5441  0FF8  0866               	movf	(_STC+1),w
  5442  0FF9  0465               	iorwf	(_STC),w
  5443  0FFA  1903               	skipnz
  5444  0FFB  2FFD               	goto	u3771
  5445  0FFC  2FFE               	goto	u3770
  5446  0FFD                     u3771:
  5447  0FFD  2FD0               	goto	l5104
  5448  0FFE                     u3770:
  5449  0FFE  2FFF               	goto	l845
  5450                           	
  5451  0FFF                     l844:	
  5452                           	line	413
  5453                           	
  5454  0FFF                     l845:	
  5455  0FFF  0008               	return
  5456                           	opt stack 0
  5457                           GLOBAL	__end_of_ar1000_init
  5458  1000                     	__end_of_ar1000_init:
  5459 ;; =============== function _ar1000_init ends ============
  5460                           
  5461                           	signat	_ar1000_init,88
  5462                           	global	_uart_init
  5463                           psect	text639,local,class=CODE,delta=2
  5464                           global __ptext639
  5465  0B44                     __ptext639:
  5466                           
  5467 ;; *************** function _uart_init *****************
  5468 ;; Defined at:
  5469 ;;		line 516 in file "../../Source file/PR31_final.c"
  5470 ;; Parameters:    Size  Location     Type
  5471 ;;		None
  5472 ;; Auto vars:     Size  Location     Type
  5473 ;;		None
  5474 ;; Return value:  Size  Location     Type
  5475 ;;		None               void
  5476 ;; Registers used:
  5477 ;;		wreg, status,2, status,0, pclath, cstack
  5478 ;; Tracked objects:
  5479 ;;		On entry : 0/0
  5480 ;;		On exit  : 0/0
  5481 ;;		Unchanged: 0/0
  5482 ;; Data sizes:     COMMON   BANK0   BANK1   BANK3   BANK2
  5483 ;;      Params:         0       0       0       0       0
  5484 ;;      Locals:         0       0       0       0       0
  5485 ;;      Temps:          0       0       0       0       0
  5486 ;;      Totals:         0       0       0       0       0
  5487 ;;Total ram usage:        0 bytes
  5488 ;; Hardware stack levels used:    1
  5489 ;; Hardware stack levels required when called:    1
  5490 ;; This function calls:
  5491 ;;		_uart_tx
  5492 ;; This function is called by:
  5493 ;;		_main
  5494 ;; This function uses a non-reentrant model
  5495 ;;
  5496                           psect	text639
  5497                           	file	"../../Source file/PR31_final.c"
  5498                           	line	516
  5499                           	global	__size_of_uart_init
  5500  0015                     	__size_of_uart_init	equ	__end_of_uart_init-_uart_init
  5501                           	
  5502  0B44                     _uart_init:	
  5503                           	opt	stack 6
  5504                           ; Regs used in _uart_init: [wreg+status,2+status,0+pclath+cstack]
  5505                           	line	517
  5506                           	
  5507  0B44                     l5072:	
  5508                           ;PR31_final.c: 517: BRGH = 1;
  5509  0B44  1683               	bsf	status, 5	;RP0=1, select bank1
  5510  0B45  1303               	bcf	status, 6	;RP1=0, select bank1
  5511  0B46  1518               	bsf	(1218/8)^080h,(1218)&7
  5512                           	line	518
  5513                           	
  5514  0B47                     l5074:	
  5515                           ;PR31_final.c: 518: SPBRG = (20000000 / 16 / 9600) - 1;
  5516  0B47  3081               	movlw	(081h)
  5517  0B48  0099               	movwf	(153)^080h	;volatile
  5518                           	line	519
  5519                           	
  5520  0B49                     l5076:	
  5521                           ;PR31_final.c: 519: SPEN = 1;
  5522  0B49  1283               	bcf	status, 5	;RP0=0, select bank0
  5523  0B4A  1303               	bcf	status, 6	;RP1=0, select bank0
  5524  0B4B  1798               	bsf	(199/8),(199)&7
  5525                           	line	520
  5526                           	
  5527  0B4C                     l5078:	
  5528                           ;PR31_final.c: 520: CREN = 1;
  5529  0B4C  1618               	bsf	(196/8),(196)&7
  5530                           	line	521
  5531                           	
  5532  0B4D                     l5080:	
  5533                           ;PR31_final.c: 521: TXEN = 1;
  5534  0B4D  1683               	bsf	status, 5	;RP0=1, select bank1
  5535  0B4E  1303               	bcf	status, 6	;RP1=0, select bank1
  5536  0B4F  1698               	bsf	(1221/8)^080h,(1221)&7
  5537                           	line	522
  5538                           	
  5539  0B50                     l5082:	
  5540                           ;PR31_final.c: 522: TRISC6 = 0;
  5541  0B50  1307               	bcf	(1086/8)^080h,(1086)&7
  5542                           	line	523
  5543                           	
  5544  0B51                     l5084:	
  5545                           ;PR31_final.c: 523: TRISC7 = 1;
  5546  0B51  1787               	bsf	(1087/8)^080h,(1087)&7
  5547                           	line	524
  5548                           	
  5549  0B52                     l5086:	
  5550                           ;PR31_final.c: 524: uart_tx(0x0C);
  5551  0B52  300C               	movlw	(0Ch)
  5552  0B53  120A  158A  2304   	fcall	_uart_tx
              120A  158A         
  5553                           	line	525
  5554                           	
  5555  0B58                     l884:	
  5556  0B58  0008               	return
  5557                           	opt stack 0
  5558                           GLOBAL	__end_of_uart_init
  5559  0B59                     	__end_of_uart_init:
  5560 ;; =============== function _uart_init ends ============
  5561                           
  5562                           	signat	_uart_init,88
  5563                           	global	___lldiv
  5564                           psect	text640,local,class=CODE,delta=2
  5565                           global __ptext640
  5566  0DEF                     __ptext640:
  5567                           
  5568 ;; *************** function ___lldiv *****************
  5569 ;; Defined at:
  5570 ;;		line 5 in file "C:\Program Files\HI-TECH Software\PICC\9.83\sources\lldiv.c"
  5571 ;; Parameters:    Size  Location     Type
  5572 ;;  divisor         4    0[COMMON] unsigned long 
  5573 ;;  dividend        4    4[COMMON] unsigned long 
  5574 ;; Auto vars:     Size  Location     Type
  5575 ;;  quotient        4    9[COMMON] unsigned long 
  5576 ;;  counter         1   13[COMMON] unsigned char 
  5577 ;; Return value:  Size  Location     Type
  5578 ;;                  4    0[COMMON] unsigned long 
  5579 ;; Registers used:
  5580 ;;		wreg, status,2, status,0
  5581 ;; Tracked objects:
  5582 ;;		On entry : 0/0
  5583 ;;		On exit  : 0/0
  5584 ;;		Unchanged: 0/0
  5585 ;; Data sizes:     COMMON   BANK0   BANK1   BANK3   BANK2
  5586 ;;      Params:         8       0       0       0       0
  5587 ;;      Locals:         5       0       0       0       0
  5588 ;;      Temps:          1       0       0       0       0
  5589 ;;      Totals:        14       0       0       0       0
  5590 ;;Total ram usage:       14 bytes
  5591 ;; Hardware stack levels used:    1
  5592 ;; This function calls:
  5593 ;;		Nothing
  5594 ;; This function is called by:
  5595 ;;		_send_dec
  5596 ;; This function uses a non-reentrant model
  5597 ;;
  5598                           psect	text640
  5599                           	file	"C:\Program Files\HI-TECH Software\PICC\9.83\sources\lldiv.c"
  5600                           	line	5
  5601                           	global	__size_of___lldiv
  5602  006E                     	__size_of___lldiv	equ	__end_of___lldiv-___lldiv
  5603                           	
  5604  0DEF                     ___lldiv:	
  5605                           	opt	stack 4
  5606                           ; Regs used in ___lldiv: [wreg+status,2+status,0]
  5607                           	line	9
  5608                           	
  5609  0DEF                     l5048:	
  5610  0DEF  3000               	movlw	0
  5611  0DF0  00FC               	movwf	(___lldiv@quotient+3)
  5612  0DF1  3000               	movlw	0
  5613  0DF2  00FB               	movwf	(___lldiv@quotient+2)
  5614  0DF3  3000               	movlw	0
  5615  0DF4  00FA               	movwf	(___lldiv@quotient+1)
  5616  0DF5  3000               	movlw	0
  5617  0DF6  00F9               	movwf	(___lldiv@quotient)
  5618                           
  5619                           	line	10
  5620  0DF7  0873               	movf	(___lldiv@divisor+3),w
  5621  0DF8  0472               	iorwf	(___lldiv@divisor+2),w
  5622  0DF9  0471               	iorwf	(___lldiv@divisor+1),w
  5623  0DFA  0470               	iorwf	(___lldiv@divisor),w
  5624  0DFB  1903               	skipnz
  5625  0DFC  2DFE               	goto	u3681
  5626  0DFD  2DFF               	goto	u3680
  5627  0DFE                     u3681:
  5628  0DFE  2E53               	goto	l5068
  5629  0DFF                     u3680:
  5630                           	line	11
  5631                           	
  5632  0DFF                     l5050:	
  5633  0DFF  01FD               	clrf	(___lldiv@counter)
  5634  0E00  1403               	bsf	status,0
  5635  0E01  0DFD               	rlf	(___lldiv@counter),f
  5636                           	line	12
  5637  0E02  2E11               	goto	l5054
  5638                           	
  5639  0E03                     l3164:	
  5640                           	line	13
  5641                           	
  5642  0E03                     l5052:	
  5643  0E03  3001               	movlw	01h
  5644  0E04  00F8               	movwf	(??___lldiv+0)+0
  5645  0E05                     u3695:
  5646  0E05  1003               	clrc
  5647  0E06  0DF0               	rlf	(___lldiv@divisor),f
  5648  0E07  0DF1               	rlf	(___lldiv@divisor+1),f
  5649  0E08  0DF2               	rlf	(___lldiv@divisor+2),f
  5650  0E09  0DF3               	rlf	(___lldiv@divisor+3),f
  5651  0E0A  0BF8               	decfsz	(??___lldiv+0)+0
  5652  0E0B  2E05               	goto	u3695
  5653                           	line	14
  5654  0E0C  3001               	movlw	(01h)
  5655  0E0D  00F8               	movwf	(??___lldiv+0)+0
  5656  0E0E  0878               	movf	(??___lldiv+0)+0,w
  5657  0E0F  07FD               	addwf	(___lldiv@counter),f
  5658  0E10  2E11               	goto	l5054
  5659                           	line	15
  5660                           	
  5661  0E11                     l3163:	
  5662                           	line	12
  5663                           	
  5664  0E11                     l5054:	
  5665  0E11  1FF3               	btfss	(___lldiv@divisor+3),(31)&7
  5666  0E12  2E14               	goto	u3701
  5667  0E13  2E15               	goto	u3700
  5668  0E14                     u3701:
  5669  0E14  2E03               	goto	l5052
  5670  0E15                     u3700:
  5671  0E15  2E17               	goto	l5056
  5672                           	
  5673  0E16                     l3165:	
  5674  0E16  2E17               	goto	l5056
  5675                           	line	16
  5676                           	
  5677  0E17                     l3166:	
  5678                           	line	17
  5679                           	
  5680  0E17                     l5056:	
  5681  0E17  3001               	movlw	01h
  5682  0E18  00F8               	movwf	(??___lldiv+0)+0
  5683  0E19                     u3715:
  5684  0E19  1003               	clrc
  5685  0E1A  0DF9               	rlf	(___lldiv@quotient),f
  5686  0E1B  0DFA               	rlf	(___lldiv@quotient+1),f
  5687  0E1C  0DFB               	rlf	(___lldiv@quotient+2),f
  5688  0E1D  0DFC               	rlf	(___lldiv@quotient+3),f
  5689  0E1E  0BF8               	decfsz	(??___lldiv+0)+0
  5690  0E1F  2E19               	goto	u3715
  5691                           	line	18
  5692                           	
  5693  0E20                     l5058:	
  5694  0E20  0873               	movf	(___lldiv@divisor+3),w
  5695  0E21  0277               	subwf	(___lldiv@dividend+3),w
  5696  0E22  1D03               	skipz
  5697  0E23  2E2E               	goto	u3725
  5698  0E24  0872               	movf	(___lldiv@divisor+2),w
  5699  0E25  0276               	subwf	(___lldiv@dividend+2),w
  5700  0E26  1D03               	skipz
  5701  0E27  2E2E               	goto	u3725
  5702  0E28  0871               	movf	(___lldiv@divisor+1),w
  5703  0E29  0275               	subwf	(___lldiv@dividend+1),w
  5704  0E2A  1D03               	skipz
  5705  0E2B  2E2E               	goto	u3725
  5706  0E2C  0870               	movf	(___lldiv@divisor),w
  5707  0E2D  0274               	subwf	(___lldiv@dividend),w
  5708  0E2E                     u3725:
  5709  0E2E  1C03               	skipc
  5710  0E2F  2E31               	goto	u3721
  5711  0E30  2E32               	goto	u3720
  5712  0E31                     u3721:
  5713  0E31  2E42               	goto	l5064
  5714  0E32                     u3720:
  5715                           	line	19
  5716                           	
  5717  0E32                     l5060:	
  5718  0E32  0870               	movf	(___lldiv@divisor),w
  5719  0E33  02F4               	subwf	(___lldiv@dividend),f
  5720  0E34  0871               	movf	(___lldiv@divisor+1),w
  5721  0E35  1C03               	skipc
  5722  0E36  0F71               	incfsz	(___lldiv@divisor+1),w
  5723  0E37  02F5               	subwf	(___lldiv@dividend+1),f
  5724  0E38  0872               	movf	(___lldiv@divisor+2),w
  5725  0E39  1C03               	skipc
  5726  0E3A  0F72               	incfsz	(___lldiv@divisor+2),w
  5727  0E3B  02F6               	subwf	(___lldiv@dividend+2),f
  5728  0E3C  0873               	movf	(___lldiv@divisor+3),w
  5729  0E3D  1C03               	skipc
  5730  0E3E  0F73               	incfsz	(___lldiv@divisor+3),w
  5731  0E3F  02F7               	subwf	(___lldiv@dividend+3),f
  5732                           	line	20
  5733                           	
  5734  0E40                     l5062:	
  5735  0E40  1479               	bsf	(___lldiv@quotient)+(0/8),(0)&7
  5736  0E41  2E42               	goto	l5064
  5737                           	line	21
  5738                           	
  5739  0E42                     l3167:	
  5740                           	line	22
  5741                           	
  5742  0E42                     l5064:	
  5743  0E42  3001               	movlw	01h
  5744  0E43                     u3735:
  5745  0E43  1003               	clrc
  5746  0E44  0CF3               	rrf	(___lldiv@divisor+3),f
  5747  0E45  0CF2               	rrf	(___lldiv@divisor+2),f
  5748  0E46  0CF1               	rrf	(___lldiv@divisor+1),f
  5749  0E47  0CF0               	rrf	(___lldiv@divisor),f
  5750  0E48  3EFF               	addlw	-1
  5751  0E49  1D03               	skipz
  5752  0E4A  2E43               	goto	u3735
  5753                           
  5754                           	line	23
  5755                           	
  5756  0E4B                     l5066:	
  5757  0E4B  3001               	movlw	low(01h)
  5758  0E4C  02FD               	subwf	(___lldiv@counter),f
  5759  0E4D  1D03               	btfss	status,2
  5760  0E4E  2E50               	goto	u3741
  5761  0E4F  2E51               	goto	u3740
  5762  0E50                     u3741:
  5763  0E50  2E17               	goto	l5056
  5764  0E51                     u3740:
  5765  0E51  2E53               	goto	l5068
  5766                           	
  5767  0E52                     l3168:	
  5768  0E52  2E53               	goto	l5068
  5769                           	line	24
  5770                           	
  5771  0E53                     l3162:	
  5772                           	line	25
  5773                           	
  5774  0E53                     l5068:	
  5775  0E53  087C               	movf	(___lldiv@quotient+3),w
  5776  0E54  00F3               	movwf	(?___lldiv+3)
  5777  0E55  087B               	movf	(___lldiv@quotient+2),w
  5778  0E56  00F2               	movwf	(?___lldiv+2)
  5779  0E57  087A               	movf	(___lldiv@quotient+1),w
  5780  0E58  00F1               	movwf	(?___lldiv+1)
  5781  0E59  0879               	movf	(___lldiv@quotient),w
  5782  0E5A  00F0               	movwf	(?___lldiv)
  5783                           
  5784  0E5B  2E5C               	goto	l3169
  5785                           	
  5786  0E5C                     l5070:	
  5787                           	line	26
  5788                           	
  5789  0E5C                     l3169:	
  5790  0E5C  0008               	return
  5791                           	opt stack 0
  5792                           GLOBAL	__end_of___lldiv
  5793  0E5D                     	__end_of___lldiv:
  5794 ;; =============== function ___lldiv ends ============
  5795                           
  5796                           	signat	___lldiv,8316
  5797                           	global	___llmod
  5798                           psect	text641,local,class=CODE,delta=2
  5799                           global __ptext641
  5800  0CC7                     __ptext641:
  5801                           
  5802 ;; *************** function ___llmod *****************
  5803 ;; Defined at:
  5804 ;;		line 5 in file "C:\Program Files\HI-TECH Software\PICC\9.83\sources\llmod.c"
  5805 ;; Parameters:    Size  Location     Type
  5806 ;;  divisor         4    0[COMMON] unsigned long 
  5807 ;;  dividend        4    4[COMMON] unsigned long 
  5808 ;; Auto vars:     Size  Location     Type
  5809 ;;  counter         1    9[COMMON] unsigned char 
  5810 ;; Return value:  Size  Location     Type
  5811 ;;                  4    0[COMMON] unsigned long 
  5812 ;; Registers used:
  5813 ;;		wreg, status,2, status,0
  5814 ;; Tracked objects:
  5815 ;;		On entry : 0/0
  5816 ;;		On exit  : 0/0
  5817 ;;		Unchanged: 0/0
  5818 ;; Data sizes:     COMMON   BANK0   BANK1   BANK3   BANK2
  5819 ;;      Params:         8       0       0       0       0
  5820 ;;      Locals:         1       0       0       0       0
  5821 ;;      Temps:          1       0       0       0       0
  5822 ;;      Totals:        10       0       0       0       0
  5823 ;;Total ram usage:       10 bytes
  5824 ;; Hardware stack levels used:    1
  5825 ;; This function calls:
  5826 ;;		Nothing
  5827 ;; This function is called by:
  5828 ;;		_send_dec
  5829 ;; This function uses a non-reentrant model
  5830 ;;
  5831                           psect	text641
  5832                           	file	"C:\Program Files\HI-TECH Software\PICC\9.83\sources\llmod.c"
  5833                           	line	5
  5834                           	global	__size_of___llmod
  5835  005C                     	__size_of___llmod	equ	__end_of___llmod-___llmod
  5836                           	
  5837  0CC7                     ___llmod:	
  5838                           	opt	stack 4
  5839                           ; Regs used in ___llmod: [wreg+status,2+status,0]
  5840                           	line	8
  5841                           	
  5842  0CC7                     l5028:	
  5843  0CC7  0873               	movf	(___llmod@divisor+3),w
  5844  0CC8  0472               	iorwf	(___llmod@divisor+2),w
  5845  0CC9  0471               	iorwf	(___llmod@divisor+1),w
  5846  0CCA  0470               	iorwf	(___llmod@divisor),w
  5847  0CCB  1903               	skipnz
  5848  0CCC  2CCE               	goto	u3621
  5849  0CCD  2CCF               	goto	u3620
  5850  0CCE                     u3621:
  5851  0CCE  2D19               	goto	l5044
  5852  0CCF                     u3620:
  5853                           	line	9
  5854                           	
  5855  0CCF                     l5030:	
  5856  0CCF  01F9               	clrf	(___llmod@counter)
  5857  0CD0  1403               	bsf	status,0
  5858  0CD1  0DF9               	rlf	(___llmod@counter),f
  5859                           	line	10
  5860  0CD2  2CE1               	goto	l5034
  5861                           	
  5862  0CD3                     l3145:	
  5863                           	line	11
  5864                           	
  5865  0CD3                     l5032:	
  5866  0CD3  3001               	movlw	01h
  5867  0CD4  00F8               	movwf	(??___llmod+0)+0
  5868  0CD5                     u3635:
  5869  0CD5  1003               	clrc
  5870  0CD6  0DF0               	rlf	(___llmod@divisor),f
  5871  0CD7  0DF1               	rlf	(___llmod@divisor+1),f
  5872  0CD8  0DF2               	rlf	(___llmod@divisor+2),f
  5873  0CD9  0DF3               	rlf	(___llmod@divisor+3),f
  5874  0CDA  0BF8               	decfsz	(??___llmod+0)+0
  5875  0CDB  2CD5               	goto	u3635
  5876                           	line	12
  5877  0CDC  3001               	movlw	(01h)
  5878  0CDD  00F8               	movwf	(??___llmod+0)+0
  5879  0CDE  0878               	movf	(??___llmod+0)+0,w
  5880  0CDF  07F9               	addwf	(___llmod@counter),f
  5881  0CE0  2CE1               	goto	l5034
  5882                           	line	13
  5883                           	
  5884  0CE1                     l3144:	
  5885                           	line	10
  5886                           	
  5887  0CE1                     l5034:	
  5888  0CE1  1FF3               	btfss	(___llmod@divisor+3),(31)&7
  5889  0CE2  2CE4               	goto	u3641
  5890  0CE3  2CE5               	goto	u3640
  5891  0CE4                     u3641:
  5892  0CE4  2CD3               	goto	l5032
  5893  0CE5                     u3640:
  5894  0CE5  2CE7               	goto	l5036
  5895                           	
  5896  0CE6                     l3146:	
  5897  0CE6  2CE7               	goto	l5036
  5898                           	line	14
  5899                           	
  5900  0CE7                     l3147:	
  5901                           	line	15
  5902                           	
  5903  0CE7                     l5036:	
  5904  0CE7  0873               	movf	(___llmod@divisor+3),w
  5905  0CE8  0277               	subwf	(___llmod@dividend+3),w
  5906  0CE9  1D03               	skipz
  5907  0CEA  2CF5               	goto	u3655
  5908  0CEB  0872               	movf	(___llmod@divisor+2),w
  5909  0CEC  0276               	subwf	(___llmod@dividend+2),w
  5910  0CED  1D03               	skipz
  5911  0CEE  2CF5               	goto	u3655
  5912  0CEF  0871               	movf	(___llmod@divisor+1),w
  5913  0CF0  0275               	subwf	(___llmod@dividend+1),w
  5914  0CF1  1D03               	skipz
  5915  0CF2  2CF5               	goto	u3655
  5916  0CF3  0870               	movf	(___llmod@divisor),w
  5917  0CF4  0274               	subwf	(___llmod@dividend),w
  5918  0CF5                     u3655:
  5919  0CF5  1C03               	skipc
  5920  0CF6  2CF8               	goto	u3651
  5921  0CF7  2CF9               	goto	u3650
  5922  0CF8                     u3651:
  5923  0CF8  2D08               	goto	l5040
  5924  0CF9                     u3650:
  5925                           	line	16
  5926                           	
  5927  0CF9                     l5038:	
  5928  0CF9  0870               	movf	(___llmod@divisor),w
  5929  0CFA  02F4               	subwf	(___llmod@dividend),f
  5930  0CFB  0871               	movf	(___llmod@divisor+1),w
  5931  0CFC  1C03               	skipc
  5932  0CFD  0F71               	incfsz	(___llmod@divisor+1),w
  5933  0CFE  02F5               	subwf	(___llmod@dividend+1),f
  5934  0CFF  0872               	movf	(___llmod@divisor+2),w
  5935  0D00  1C03               	skipc
  5936  0D01  0F72               	incfsz	(___llmod@divisor+2),w
  5937  0D02  02F6               	subwf	(___llmod@dividend+2),f
  5938  0D03  0873               	movf	(___llmod@divisor+3),w
  5939  0D04  1C03               	skipc
  5940  0D05  0F73               	incfsz	(___llmod@divisor+3),w
  5941  0D06  02F7               	subwf	(___llmod@dividend+3),f
  5942  0D07  2D08               	goto	l5040
  5943                           	
  5944  0D08                     l3148:	
  5945                           	line	17
  5946                           	
  5947  0D08                     l5040:	
  5948  0D08  3001               	movlw	01h
  5949  0D09                     u3665:
  5950  0D09  1003               	clrc
  5951  0D0A  0CF3               	rrf	(___llmod@divisor+3),f
  5952  0D0B  0CF2               	rrf	(___llmod@divisor+2),f
  5953  0D0C  0CF1               	rrf	(___llmod@divisor+1),f
  5954  0D0D  0CF0               	rrf	(___llmod@divisor),f
  5955  0D0E  3EFF               	addlw	-1
  5956  0D0F  1D03               	skipz
  5957  0D10  2D09               	goto	u3665
  5958                           
  5959                           	line	18
  5960                           	
  5961  0D11                     l5042:	
  5962  0D11  3001               	movlw	low(01h)
  5963  0D12  02F9               	subwf	(___llmod@counter),f
  5964  0D13  1D03               	btfss	status,2
  5965  0D14  2D16               	goto	u3671
  5966  0D15  2D17               	goto	u3670
  5967  0D16                     u3671:
  5968  0D16  2CE7               	goto	l5036
  5969  0D17                     u3670:
  5970  0D17  2D19               	goto	l5044
  5971                           	
  5972  0D18                     l3149:	
  5973  0D18  2D19               	goto	l5044
  5974                           	line	19
  5975                           	
  5976  0D19                     l3143:	
  5977                           	line	20
  5978                           	
  5979  0D19                     l5044:	
  5980  0D19  0877               	movf	(___llmod@dividend+3),w
  5981  0D1A  00F3               	movwf	(?___llmod+3)
  5982  0D1B  0876               	movf	(___llmod@dividend+2),w
  5983  0D1C  00F2               	movwf	(?___llmod+2)
  5984  0D1D  0875               	movf	(___llmod@dividend+1),w
  5985  0D1E  00F1               	movwf	(?___llmod+1)
  5986  0D1F  0874               	movf	(___llmod@dividend),w
  5987  0D20  00F0               	movwf	(?___llmod)
  5988                           
  5989  0D21  2D22               	goto	l3150
  5990                           	
  5991  0D22                     l5046:	
  5992                           	line	21
  5993                           	
  5994  0D22                     l3150:	
  5995  0D22  0008               	return
  5996                           	opt stack 0
  5997                           GLOBAL	__end_of___llmod
  5998  0D23                     	__end_of___llmod:
  5999 ;; =============== function ___llmod ends ============
  6000                           
  6001                           	signat	___llmod,8316
  6002                           	global	_ar_i2c_read
  6003                           psect	text642,local,class=CODE,delta=2
  6004                           global __ptext642
  6005  03EE                     __ptext642:
  6006                           
  6007 ;; *************** function _ar_i2c_read *****************
  6008 ;; Defined at:
  6009 ;;		line 83 in file "../../Source file/i2c_ar1000.c"
  6010 ;; Parameters:    Size  Location     Type
  6011 ;;  ar_slave_add    1    wreg     unsigned char 
  6012 ;;  ar_register     1    0[COMMON] unsigned char 
  6013 ;; Auto vars:     Size  Location     Type
  6014 ;;  ar_slave_add    1    4[BANK0 ] unsigned char 
  6015 ;;  count           4    5[BANK0 ] unsigned long 
  6016 ;;  ar_received_    2    0[BANK0 ] unsigned int 
  6017 ;;  ar_received_    1    3[BANK0 ] unsigned char 
  6018 ;;  ar_received_    1    2[BANK0 ] unsigned char 
  6019 ;; Return value:  Size  Location     Type
  6020 ;;                  2    0[COMMON] unsigned int 
  6021 ;; Registers used:
  6022 ;;		wreg, status,2, status,0, btemp+1
  6023 ;; Tracked objects:
  6024 ;;		On entry : 0/0
  6025 ;;		On exit  : 0/0
  6026 ;;		Unchanged: 0/0
  6027 ;; Data sizes:     COMMON   BANK0   BANK1   BANK3   BANK2
  6028 ;;      Params:         2       0       0       0       0
  6029 ;;      Locals:         0       9       0       0       0
  6030 ;;      Temps:          4       0       0       0       0
  6031 ;;      Totals:         6       9       0       0       0
  6032 ;;Total ram usage:       15 bytes
  6033 ;; Hardware stack levels used:    1
  6034 ;; This function calls:
  6035 ;;		Nothing
  6036 ;; This function is called by:
  6037 ;;		_ar1000_init
  6038 ;;		_setAR1000
  6039 ;; This function uses a non-reentrant model
  6040 ;;
  6041                           psect	text642
  6042                           	file	"../../Source file/i2c_ar1000.c"
  6043                           	line	83
  6044                           	global	__size_of_ar_i2c_read
  6045  0130                     	__size_of_ar_i2c_read	equ	__end_of_ar_i2c_read-_ar_i2c_read
  6046                           	
  6047  03EE                     _ar_i2c_read:	
  6048                           	opt	stack 4
  6049                           ; Regs used in _ar_i2c_read: [wreg+status,2+status,0+btemp+1]
  6050                           ;ar_i2c_read@ar_slave_address stored from wreg
  6051                           	line	85
  6052  03EE  1283               	bcf	status, 5	;RP0=0, select bank0
  6053  03EF  1303               	bcf	status, 6	;RP1=0, select bank0
  6054  03F0  00A4               	movwf	(ar_i2c_read@ar_slave_address)
  6055                           	
  6056  03F1                     l4958:	
  6057                           ;i2c_ar1000.c: 85: unsigned char ar_received_byte1=0, ar_received_byte2=0;
  6058  03F1  01A2               	clrf	(ar_i2c_read@ar_received_byte1)
  6059  03F2  01A3               	clrf	(ar_i2c_read@ar_received_byte2)
  6060                           	line	86
  6061                           	
  6062  03F3                     l4960:	
  6063                           ;i2c_ar1000.c: 86: unsigned int ar_received_byte=0;
  6064  03F3  01A0               	clrf	(ar_i2c_read@ar_received_byte)
  6065  03F4  01A1               	clrf	(ar_i2c_read@ar_received_byte+1)
  6066                           	line	90
  6067                           	
  6068  03F5                     l4962:	
  6069                           ;i2c_ar1000.c: 90: SEN = 1;
  6070  03F5  1683               	bsf	status, 5	;RP0=1, select bank1
  6071  03F6  1303               	bcf	status, 6	;RP1=0, select bank1
  6072  03F7  1411               	bsf	(1160/8)^080h,(1160)&7
  6073                           	line	91
  6074                           ;i2c_ar1000.c: 91: while (SEN == 1);
  6075  03F8  2BF9               	goto	l1603
  6076                           	
  6077  03F9                     l1604:	
  6078                           	
  6079  03F9                     l1603:	
  6080  03F9  1811               	btfsc	(1160/8)^080h,(1160)&7
  6081  03FA  2BFC               	goto	u3401
  6082  03FB  2BFD               	goto	u3400
  6083  03FC                     u3401:
  6084  03FC  2BF9               	goto	l1603
  6085  03FD                     u3400:
  6086  03FD  2BFE               	goto	l4964
  6087                           	
  6088  03FE                     l1605:	
  6089                           	line	94
  6090                           	
  6091  03FE                     l4964:	
  6092                           ;i2c_ar1000.c: 94: SSPBUF = ar_slave_address | 0x00;
  6093  03FE  1283               	bcf	status, 5	;RP0=0, select bank0
  6094  03FF  1303               	bcf	status, 6	;RP1=0, select bank0
  6095  0400  0824               	movf	(ar_i2c_read@ar_slave_address),w
  6096  0401  0093               	movwf	(19)	;volatile
  6097                           	line	97
  6098                           ;i2c_ar1000.c: 97: while (R_W == 1);
  6099  0402  2C03               	goto	l1606
  6100                           	
  6101  0403                     l1607:	
  6102                           	
  6103  0403                     l1606:	
  6104  0403  1683               	bsf	status, 5	;RP0=1, select bank1
  6105  0404  1303               	bcf	status, 6	;RP1=0, select bank1
  6106  0405  1914               	btfsc	(1186/8)^080h,(1186)&7
  6107  0406  2C08               	goto	u3411
  6108  0407  2C09               	goto	u3410
  6109  0408                     u3411:
  6110  0408  2C03               	goto	l1606
  6111  0409                     u3410:
  6112                           	
  6113  0409                     l1608:	
  6114                           	line	100
  6115                           ;i2c_ar1000.c: 100: if (ACKSTAT == 1) {
  6116  0409  1F11               	btfss	(1166/8)^080h,(1166)&7
  6117  040A  2C0C               	goto	u3421
  6118  040B  2C0D               	goto	u3420
  6119  040C                     u3421:
  6120  040C  2C18               	goto	l4972
  6121  040D                     u3420:
  6122                           	line	102
  6123                           	
  6124  040D                     l4966:	
  6125                           ;i2c_ar1000.c: 102: PEN = 1;
  6126  040D  1511               	bsf	(1162/8)^080h,(1162)&7
  6127                           	line	103
  6128                           ;i2c_ar1000.c: 103: while (PEN == 1);
  6129  040E  2C0F               	goto	l1610
  6130                           	
  6131  040F                     l1611:	
  6132                           	
  6133  040F                     l1610:	
  6134  040F  1911               	btfsc	(1162/8)^080h,(1162)&7
  6135  0410  2C12               	goto	u3431
  6136  0411  2C13               	goto	u3430
  6137  0412                     u3431:
  6138  0412  2C0F               	goto	l1610
  6139  0413                     u3430:
  6140  0413  2C14               	goto	l4968
  6141                           	
  6142  0414                     l1612:	
  6143                           	line	105
  6144                           	
  6145  0414                     l4968:	
  6146                           ;i2c_ar1000.c: 105: return 0;
  6147  0414  01F0               	clrf	(?_ar_i2c_read)
  6148  0415  01F1               	clrf	(?_ar_i2c_read+1)
  6149  0416  2D1D               	goto	l1613
  6150                           	
  6151  0417                     l4970:	
  6152  0417  2D1D               	goto	l1613
  6153                           	line	106
  6154                           	
  6155  0418                     l1609:	
  6156                           	line	109
  6157                           	
  6158  0418                     l4972:	
  6159                           ;i2c_ar1000.c: 106: }
  6160                           ;i2c_ar1000.c: 109: SSPBUF = ar_register;
  6161  0418  0870               	movf	(ar_i2c_read@ar_register),w
  6162  0419  1283               	bcf	status, 5	;RP0=0, select bank0
  6163  041A  1303               	bcf	status, 6	;RP1=0, select bank0
  6164  041B  0093               	movwf	(19)	;volatile
  6165                           	line	112
  6166                           ;i2c_ar1000.c: 112: while (R_W == 1);
  6167  041C  2C1D               	goto	l1614
  6168                           	
  6169  041D                     l1615:	
  6170                           	
  6171  041D                     l1614:	
  6172  041D  1683               	bsf	status, 5	;RP0=1, select bank1
  6173  041E  1303               	bcf	status, 6	;RP1=0, select bank1
  6174  041F  1914               	btfsc	(1186/8)^080h,(1186)&7
  6175  0420  2C22               	goto	u3441
  6176  0421  2C23               	goto	u3440
  6177  0422                     u3441:
  6178  0422  2C1D               	goto	l1614
  6179  0423                     u3440:
  6180                           	
  6181  0423                     l1616:	
  6182                           	line	115
  6183                           ;i2c_ar1000.c: 115: if (ACKSTAT == 1) {
  6184  0423  1F11               	btfss	(1166/8)^080h,(1166)&7
  6185  0424  2C26               	goto	u3451
  6186  0425  2C27               	goto	u3450
  6187  0426                     u3451:
  6188  0426  2C32               	goto	l1617
  6189  0427                     u3450:
  6190                           	line	117
  6191                           	
  6192  0427                     l4974:	
  6193                           ;i2c_ar1000.c: 117: PEN = 1;
  6194  0427  1511               	bsf	(1162/8)^080h,(1162)&7
  6195                           	line	118
  6196                           ;i2c_ar1000.c: 118: while (PEN == 1);
  6197  0428  2C29               	goto	l1618
  6198                           	
  6199  0429                     l1619:	
  6200                           	
  6201  0429                     l1618:	
  6202  0429  1911               	btfsc	(1162/8)^080h,(1162)&7
  6203  042A  2C2C               	goto	u3461
  6204  042B  2C2D               	goto	u3460
  6205  042C                     u3461:
  6206  042C  2C29               	goto	l1618
  6207  042D                     u3460:
  6208  042D  2C2E               	goto	l4976
  6209                           	
  6210  042E                     l1620:	
  6211                           	line	120
  6212                           	
  6213  042E                     l4976:	
  6214                           ;i2c_ar1000.c: 120: return 0;
  6215  042E  01F0               	clrf	(?_ar_i2c_read)
  6216  042F  01F1               	clrf	(?_ar_i2c_read+1)
  6217  0430  2D1D               	goto	l1613
  6218                           	
  6219  0431                     l4978:	
  6220  0431  2D1D               	goto	l1613
  6221                           	line	121
  6222                           	
  6223  0432                     l1617:	
  6224                           	line	126
  6225                           ;i2c_ar1000.c: 121: }
  6226                           ;i2c_ar1000.c: 126: RSEN = 1;
  6227  0432  1491               	bsf	(1161/8)^080h,(1161)&7
  6228                           	line	127
  6229                           ;i2c_ar1000.c: 127: while (RSEN == 1);
  6230  0433  2C34               	goto	l1621
  6231                           	
  6232  0434                     l1622:	
  6233                           	
  6234  0434                     l1621:	
  6235  0434  1891               	btfsc	(1161/8)^080h,(1161)&7
  6236  0435  2C37               	goto	u3471
  6237  0436  2C38               	goto	u3470
  6238  0437                     u3471:
  6239  0437  2C34               	goto	l1621
  6240  0438                     u3470:
  6241  0438  2C39               	goto	l4980
  6242                           	
  6243  0439                     l1623:	
  6244                           	line	130
  6245                           	
  6246  0439                     l4980:	
  6247                           ;i2c_ar1000.c: 130: SSPBUF = ar_slave_address | 0x01;
  6248  0439  1283               	bcf	status, 5	;RP0=0, select bank0
  6249  043A  1303               	bcf	status, 6	;RP1=0, select bank0
  6250  043B  0824               	movf	(ar_i2c_read@ar_slave_address),w
  6251  043C  3801               	iorlw	01h
  6252  043D  0093               	movwf	(19)	;volatile
  6253                           	line	133
  6254                           ;i2c_ar1000.c: 133: while (R_W == 1);
  6255  043E  2C3F               	goto	l1624
  6256                           	
  6257  043F                     l1625:	
  6258                           	
  6259  043F                     l1624:	
  6260  043F  1683               	bsf	status, 5	;RP0=1, select bank1
  6261  0440  1303               	bcf	status, 6	;RP1=0, select bank1
  6262  0441  1914               	btfsc	(1186/8)^080h,(1186)&7
  6263  0442  2C44               	goto	u3481
  6264  0443  2C45               	goto	u3480
  6265  0444                     u3481:
  6266  0444  2C3F               	goto	l1624
  6267  0445                     u3480:
  6268                           	
  6269  0445                     l1626:	
  6270                           	line	136
  6271                           ;i2c_ar1000.c: 136: if (ACKSTAT == 1) {
  6272  0445  1F11               	btfss	(1166/8)^080h,(1166)&7
  6273  0446  2C48               	goto	u3491
  6274  0447  2C49               	goto	u3490
  6275  0448                     u3491:
  6276  0448  2C54               	goto	l1627
  6277  0449                     u3490:
  6278                           	line	138
  6279                           	
  6280  0449                     l4982:	
  6281                           ;i2c_ar1000.c: 138: PEN = 1;
  6282  0449  1511               	bsf	(1162/8)^080h,(1162)&7
  6283                           	line	139
  6284                           ;i2c_ar1000.c: 139: while (PEN == 1);
  6285  044A  2C4B               	goto	l1628
  6286                           	
  6287  044B                     l1629:	
  6288                           	
  6289  044B                     l1628:	
  6290  044B  1911               	btfsc	(1162/8)^080h,(1162)&7
  6291  044C  2C4E               	goto	u3501
  6292  044D  2C4F               	goto	u3500
  6293  044E                     u3501:
  6294  044E  2C4B               	goto	l1628
  6295  044F                     u3500:
  6296  044F  2C50               	goto	l4984
  6297                           	
  6298  0450                     l1630:	
  6299                           	line	141
  6300                           	
  6301  0450                     l4984:	
  6302                           ;i2c_ar1000.c: 141: return 0;
  6303  0450  01F0               	clrf	(?_ar_i2c_read)
  6304  0451  01F1               	clrf	(?_ar_i2c_read+1)
  6305  0452  2D1D               	goto	l1613
  6306                           	
  6307  0453                     l4986:	
  6308  0453  2D1D               	goto	l1613
  6309                           	line	142
  6310                           	
  6311  0454                     l1627:	
  6312                           	line	145
  6313                           ;i2c_ar1000.c: 142: }
  6314                           ;i2c_ar1000.c: 145: RCEN = 1;
  6315  0454  1591               	bsf	(1163/8)^080h,(1163)&7
  6316                           	line	148
  6317                           	
  6318  0455                     l4988:	
  6319                           ;i2c_ar1000.c: 148: unsigned long count = 10000L;
  6320  0455  3000               	movlw	0
  6321  0456  1283               	bcf	status, 5	;RP0=0, select bank0
  6322  0457  1303               	bcf	status, 6	;RP1=0, select bank0
  6323  0458  00A8               	movwf	(ar_i2c_read@count+3)
  6324  0459  3000               	movlw	0
  6325  045A  00A7               	movwf	(ar_i2c_read@count+2)
  6326  045B  3027               	movlw	027h
  6327  045C  00A6               	movwf	(ar_i2c_read@count+1)
  6328  045D  3010               	movlw	010h
  6329  045E  00A5               	movwf	(ar_i2c_read@count)
  6330                           
  6331                           	line	149
  6332                           ;i2c_ar1000.c: 149: while (BF == 0) {
  6333  045F  2C92               	goto	l1631
  6334                           	
  6335  0460                     l1632:	
  6336                           	line	152
  6337                           	
  6338  0460                     l4990:	
  6339                           ;i2c_ar1000.c: 152: if (--count == 0) {
  6340  0460  3001               	movlw	01h
  6341  0461  00F2               	movwf	((??_ar_i2c_read+0)+0)
  6342  0462  3000               	movlw	0
  6343  0463  00F3               	movwf	((??_ar_i2c_read+0)+0+1)
  6344  0464  3000               	movlw	0
  6345  0465  00F4               	movwf	((??_ar_i2c_read+0)+0+2)
  6346  0466  3000               	movlw	0
  6347  0467  00F5               	movwf	((??_ar_i2c_read+0)+0+3)
  6348  0468  0872               	movf	0+(??_ar_i2c_read+0)+0,w
  6349  0469  1283               	bcf	status, 5	;RP0=0, select bank0
  6350  046A  02A5               	subwf	(ar_i2c_read@count),f
  6351  046B  0873               	movf	1+(??_ar_i2c_read+0)+0,w
  6352  046C  1C03               	skipc
  6353  046D  0F73               	incfsz	1+(??_ar_i2c_read+0)+0,w
  6354  046E  2C70               	goto	u3515
  6355  046F  2C71               	goto	u3516
  6356  0470                     u3515:
  6357  0470  02A6               	subwf	(ar_i2c_read@count+1),f
  6358  0471                     u3516:
  6359  0471  0874               	movf	2+(??_ar_i2c_read+0)+0,w
  6360  0472  1C03               	skipc
  6361  0473  0F74               	incfsz	2+(??_ar_i2c_read+0)+0,w
  6362  0474  2C76               	goto	u3517
  6363  0475  2C77               	goto	u3518
  6364  0476                     u3517:
  6365  0476  02A7               	subwf	(ar_i2c_read@count+2),f
  6366  0477                     u3518:
  6367  0477  0875               	movf	3+(??_ar_i2c_read+0)+0,w
  6368  0478  1C03               	skipc
  6369  0479  0F75               	incfsz	3+(??_ar_i2c_read+0)+0,w
  6370  047A  2C7C               	goto	u3519
  6371  047B  2C7D               	goto	u3510
  6372  047C                     u3519:
  6373  047C  02A8               	subwf	(ar_i2c_read@count+3),f
  6374  047D                     u3510:
  6375                           
  6376  047D  0828               	movf	((ar_i2c_read@count+3)),w
  6377  047E  0427               	iorwf	((ar_i2c_read@count+2)),w
  6378  047F  0426               	iorwf	((ar_i2c_read@count+1)),w
  6379  0480  0425               	iorwf	((ar_i2c_read@count)),w
  6380  0481  1D03               	skipz
  6381  0482  2C84               	goto	u3521
  6382  0483  2C85               	goto	u3520
  6383  0484                     u3521:
  6384  0484  2C92               	goto	l1631
  6385  0485                     u3520:
  6386                           	line	154
  6387                           	
  6388  0485                     l4992:	
  6389                           ;i2c_ar1000.c: 154: PEN = 1;
  6390  0485  1683               	bsf	status, 5	;RP0=1, select bank1
  6391  0486  1303               	bcf	status, 6	;RP1=0, select bank1
  6392  0487  1511               	bsf	(1162/8)^080h,(1162)&7
  6393                           	line	155
  6394                           ;i2c_ar1000.c: 155: while (PEN == 1);
  6395  0488  2C89               	goto	l1634
  6396                           	
  6397  0489                     l1635:	
  6398                           	
  6399  0489                     l1634:	
  6400  0489  1911               	btfsc	(1162/8)^080h,(1162)&7
  6401  048A  2C8C               	goto	u3531
  6402  048B  2C8D               	goto	u3530
  6403  048C                     u3531:
  6404  048C  2C89               	goto	l1634
  6405  048D                     u3530:
  6406  048D  2C8E               	goto	l4994
  6407                           	
  6408  048E                     l1636:	
  6409                           	line	157
  6410                           	
  6411  048E                     l4994:	
  6412                           ;i2c_ar1000.c: 157: return 0;
  6413  048E  01F0               	clrf	(?_ar_i2c_read)
  6414  048F  01F1               	clrf	(?_ar_i2c_read+1)
  6415  0490  2D1D               	goto	l1613
  6416                           	
  6417  0491                     l4996:	
  6418  0491  2D1D               	goto	l1613
  6419                           	line	158
  6420                           	
  6421  0492                     l1633:	
  6422                           	line	159
  6423                           	
  6424  0492                     l1631:	
  6425                           	line	149
  6426  0492  1683               	bsf	status, 5	;RP0=1, select bank1
  6427  0493  1303               	bcf	status, 6	;RP1=0, select bank1
  6428  0494  1C14               	btfss	(1184/8)^080h,(1184)&7
  6429  0495  2C97               	goto	u3541
  6430  0496  2C98               	goto	u3540
  6431  0497                     u3541:
  6432  0497  2C60               	goto	l4990
  6433  0498                     u3540:
  6434  0498  2C99               	goto	l4998
  6435                           	
  6436  0499                     l1637:	
  6437                           	line	162
  6438                           	
  6439  0499                     l4998:	
  6440                           ;i2c_ar1000.c: 158: }
  6441                           ;i2c_ar1000.c: 159: }
  6442                           ;i2c_ar1000.c: 162: ar_received_byte1 = SSPBUF;
  6443  0499  1283               	bcf	status, 5	;RP0=0, select bank0
  6444  049A  1303               	bcf	status, 6	;RP1=0, select bank0
  6445  049B  0813               	movf	(19),w	;volatile
  6446  049C  00F2               	movwf	(??_ar_i2c_read+0)+0
  6447  049D  0872               	movf	(??_ar_i2c_read+0)+0,w
  6448  049E  00A2               	movwf	(ar_i2c_read@ar_received_byte1)
  6449                           	line	165
  6450                           	
  6451  049F                     l5000:	
  6452                           ;i2c_ar1000.c: 165: ACKDT = 0;
  6453  049F  1683               	bsf	status, 5	;RP0=1, select bank1
  6454  04A0  1303               	bcf	status, 6	;RP1=0, select bank1
  6455  04A1  1291               	bcf	(1165/8)^080h,(1165)&7
  6456                           	line	166
  6457                           	
  6458  04A2                     l5002:	
  6459                           ;i2c_ar1000.c: 166: ACKEN = 1;
  6460  04A2  1611               	bsf	(1164/8)^080h,(1164)&7
  6461                           	line	167
  6462                           ;i2c_ar1000.c: 167: while (ACKEN == 1);
  6463  04A3  2CA4               	goto	l1638
  6464                           	
  6465  04A4                     l1639:	
  6466                           	
  6467  04A4                     l1638:	
  6468  04A4  1A11               	btfsc	(1164/8)^080h,(1164)&7
  6469  04A5  2CA7               	goto	u3551
  6470  04A6  2CA8               	goto	u3550
  6471  04A7                     u3551:
  6472  04A7  2CA4               	goto	l1638
  6473  04A8                     u3550:
  6474                           	
  6475  04A8                     l1640:	
  6476                           	line	168
  6477                           ;i2c_ar1000.c: 168: RCEN = 1;
  6478  04A8  1591               	bsf	(1163/8)^080h,(1163)&7
  6479                           	line	170
  6480                           	
  6481  04A9                     l5004:	
  6482                           ;i2c_ar1000.c: 170: unsigned long count = 10000L;
  6483  04A9  3000               	movlw	0
  6484  04AA  1283               	bcf	status, 5	;RP0=0, select bank0
  6485  04AB  1303               	bcf	status, 6	;RP1=0, select bank0
  6486  04AC  00A8               	movwf	(ar_i2c_read@count+3)
  6487  04AD  3000               	movlw	0
  6488  04AE  00A7               	movwf	(ar_i2c_read@count+2)
  6489  04AF  3027               	movlw	027h
  6490  04B0  00A6               	movwf	(ar_i2c_read@count+1)
  6491  04B1  3010               	movlw	010h
  6492  04B2  00A5               	movwf	(ar_i2c_read@count)
  6493                           
  6494                           	line	171
  6495                           ;i2c_ar1000.c: 171: while (BF == 0) {
  6496  04B3  2CE6               	goto	l1641
  6497                           	
  6498  04B4                     l1642:	
  6499                           	line	174
  6500                           	
  6501  04B4                     l5006:	
  6502                           ;i2c_ar1000.c: 174: if (--count == 0) {
  6503  04B4  3001               	movlw	01h
  6504  04B5  00F2               	movwf	((??_ar_i2c_read+0)+0)
  6505  04B6  3000               	movlw	0
  6506  04B7  00F3               	movwf	((??_ar_i2c_read+0)+0+1)
  6507  04B8  3000               	movlw	0
  6508  04B9  00F4               	movwf	((??_ar_i2c_read+0)+0+2)
  6509  04BA  3000               	movlw	0
  6510  04BB  00F5               	movwf	((??_ar_i2c_read+0)+0+3)
  6511  04BC  0872               	movf	0+(??_ar_i2c_read+0)+0,w
  6512  04BD  1283               	bcf	status, 5	;RP0=0, select bank0
  6513  04BE  02A5               	subwf	(ar_i2c_read@count),f
  6514  04BF  0873               	movf	1+(??_ar_i2c_read+0)+0,w
  6515  04C0  1C03               	skipc
  6516  04C1  0F73               	incfsz	1+(??_ar_i2c_read+0)+0,w
  6517  04C2  2CC4               	goto	u3565
  6518  04C3  2CC5               	goto	u3566
  6519  04C4                     u3565:
  6520  04C4  02A6               	subwf	(ar_i2c_read@count+1),f
  6521  04C5                     u3566:
  6522  04C5  0874               	movf	2+(??_ar_i2c_read+0)+0,w
  6523  04C6  1C03               	skipc
  6524  04C7  0F74               	incfsz	2+(??_ar_i2c_read+0)+0,w
  6525  04C8  2CCA               	goto	u3567
  6526  04C9  2CCB               	goto	u3568
  6527  04CA                     u3567:
  6528  04CA  02A7               	subwf	(ar_i2c_read@count+2),f
  6529  04CB                     u3568:
  6530  04CB  0875               	movf	3+(??_ar_i2c_read+0)+0,w
  6531  04CC  1C03               	skipc
  6532  04CD  0F75               	incfsz	3+(??_ar_i2c_read+0)+0,w
  6533  04CE  2CD0               	goto	u3569
  6534  04CF  2CD1               	goto	u3560
  6535  04D0                     u3569:
  6536  04D0  02A8               	subwf	(ar_i2c_read@count+3),f
  6537  04D1                     u3560:
  6538                           
  6539  04D1  0828               	movf	((ar_i2c_read@count+3)),w
  6540  04D2  0427               	iorwf	((ar_i2c_read@count+2)),w
  6541  04D3  0426               	iorwf	((ar_i2c_read@count+1)),w
  6542  04D4  0425               	iorwf	((ar_i2c_read@count)),w
  6543  04D5  1D03               	skipz
  6544  04D6  2CD8               	goto	u3571
  6545  04D7  2CD9               	goto	u3570
  6546  04D8                     u3571:
  6547  04D8  2CE6               	goto	l1641
  6548  04D9                     u3570:
  6549                           	line	176
  6550                           	
  6551  04D9                     l5008:	
  6552                           ;i2c_ar1000.c: 176: PEN = 1;
  6553  04D9  1683               	bsf	status, 5	;RP0=1, select bank1
  6554  04DA  1303               	bcf	status, 6	;RP1=0, select bank1
  6555  04DB  1511               	bsf	(1162/8)^080h,(1162)&7
  6556                           	line	177
  6557                           ;i2c_ar1000.c: 177: while (PEN == 1);
  6558  04DC  2CDD               	goto	l1644
  6559                           	
  6560  04DD                     l1645:	
  6561                           	
  6562  04DD                     l1644:	
  6563  04DD  1911               	btfsc	(1162/8)^080h,(1162)&7
  6564  04DE  2CE0               	goto	u3581
  6565  04DF  2CE1               	goto	u3580
  6566  04E0                     u3581:
  6567  04E0  2CDD               	goto	l1644
  6568  04E1                     u3580:
  6569  04E1  2CE2               	goto	l5010
  6570                           	
  6571  04E2                     l1646:	
  6572                           	line	179
  6573                           	
  6574  04E2                     l5010:	
  6575                           ;i2c_ar1000.c: 179: return 0;
  6576  04E2  01F0               	clrf	(?_ar_i2c_read)
  6577  04E3  01F1               	clrf	(?_ar_i2c_read+1)
  6578  04E4  2D1D               	goto	l1613
  6579                           	
  6580  04E5                     l5012:	
  6581  04E5  2D1D               	goto	l1613
  6582                           	line	180
  6583                           	
  6584  04E6                     l1643:	
  6585                           	line	181
  6586                           	
  6587  04E6                     l1641:	
  6588                           	line	171
  6589  04E6  1683               	bsf	status, 5	;RP0=1, select bank1
  6590  04E7  1303               	bcf	status, 6	;RP1=0, select bank1
  6591  04E8  1C14               	btfss	(1184/8)^080h,(1184)&7
  6592  04E9  2CEB               	goto	u3591
  6593  04EA  2CEC               	goto	u3590
  6594  04EB                     u3591:
  6595  04EB  2CB4               	goto	l5006
  6596  04EC                     u3590:
  6597  04EC  2CED               	goto	l5014
  6598                           	
  6599  04ED                     l1647:	
  6600                           	line	184
  6601                           	
  6602  04ED                     l5014:	
  6603                           ;i2c_ar1000.c: 180: }
  6604                           ;i2c_ar1000.c: 181: }
  6605                           ;i2c_ar1000.c: 184: ar_received_byte2 = SSPBUF;
  6606  04ED  1283               	bcf	status, 5	;RP0=0, select bank0
  6607  04EE  1303               	bcf	status, 6	;RP1=0, select bank0
  6608  04EF  0813               	movf	(19),w	;volatile
  6609  04F0  00F2               	movwf	(??_ar_i2c_read+0)+0
  6610  04F1  0872               	movf	(??_ar_i2c_read+0)+0,w
  6611  04F2  00A3               	movwf	(ar_i2c_read@ar_received_byte2)
  6612                           	line	187
  6613                           	
  6614  04F3                     l5016:	
  6615                           ;i2c_ar1000.c: 187: ACKDT = 1;
  6616  04F3  1683               	bsf	status, 5	;RP0=1, select bank1
  6617  04F4  1303               	bcf	status, 6	;RP1=0, select bank1
  6618  04F5  1691               	bsf	(1165/8)^080h,(1165)&7
  6619                           	line	188
  6620                           	
  6621  04F6                     l5018:	
  6622                           ;i2c_ar1000.c: 188: ACKEN = 1;
  6623  04F6  1611               	bsf	(1164/8)^080h,(1164)&7
  6624                           	line	189
  6625                           ;i2c_ar1000.c: 189: while (ACKEN == 1);
  6626  04F7  2CF8               	goto	l1648
  6627                           	
  6628  04F8                     l1649:	
  6629                           	
  6630  04F8                     l1648:	
  6631  04F8  1A11               	btfsc	(1164/8)^080h,(1164)&7
  6632  04F9  2CFB               	goto	u3601
  6633  04FA  2CFC               	goto	u3600
  6634  04FB                     u3601:
  6635  04FB  2CF8               	goto	l1648
  6636  04FC                     u3600:
  6637                           	
  6638  04FC                     l1650:	
  6639                           	line	192
  6640                           ;i2c_ar1000.c: 192: PEN = 1;
  6641  04FC  1511               	bsf	(1162/8)^080h,(1162)&7
  6642                           	line	193
  6643                           ;i2c_ar1000.c: 193: while (PEN == 1);
  6644  04FD  2CFE               	goto	l1651
  6645                           	
  6646  04FE                     l1652:	
  6647                           	
  6648  04FE                     l1651:	
  6649  04FE  1911               	btfsc	(1162/8)^080h,(1162)&7
  6650  04FF  2D01               	goto	u3611
  6651  0500  2D02               	goto	u3610
  6652  0501                     u3611:
  6653  0501  2CFE               	goto	l1651
  6654  0502                     u3610:
  6655  0502  2D03               	goto	l5020
  6656                           	
  6657  0503                     l1653:	
  6658                           	line	195
  6659                           	
  6660  0503                     l5020:	
  6661                           ;i2c_ar1000.c: 195: ar_received_byte = (ar_received_byte1 << 8);
  6662  0503  1283               	bcf	status, 5	;RP0=0, select bank0
  6663  0504  1303               	bcf	status, 6	;RP1=0, select bank0
  6664  0505  0822               	movf	(ar_i2c_read@ar_received_byte1),w
  6665  0506  00F2               	movwf	(??_ar_i2c_read+0)+0
  6666  0507  01F3               	clrf	(??_ar_i2c_read+0)+0+1
  6667  0508  0872               	movf	(??_ar_i2c_read+0)+0,w
  6668  0509  00F3               	movwf	(??_ar_i2c_read+0)+1
  6669  050A  01F2               	clrf	(??_ar_i2c_read+0)+0
  6670  050B  0872               	movf	0+(??_ar_i2c_read+0)+0,w
  6671  050C  00A0               	movwf	(ar_i2c_read@ar_received_byte)
  6672  050D  0873               	movf	1+(??_ar_i2c_read+0)+0,w
  6673  050E  00A1               	movwf	(ar_i2c_read@ar_received_byte+1)
  6674                           	line	196
  6675                           	
  6676  050F                     l5022:	
  6677                           ;i2c_ar1000.c: 196: ar_received_byte |= ar_received_byte2;
  6678  050F  0823               	movf	(ar_i2c_read@ar_received_byte2),w
  6679  0510  00F2               	movwf	(??_ar_i2c_read+0)+0
  6680  0511  01F3               	clrf	(??_ar_i2c_read+0)+0+1
  6681  0512  0872               	movf	0+(??_ar_i2c_read+0)+0,w
  6682  0513  04A0               	iorwf	(ar_i2c_read@ar_received_byte),f
  6683  0514  0873               	movf	1+(??_ar_i2c_read+0)+0,w
  6684  0515  04A1               	iorwf	(ar_i2c_read@ar_received_byte+1),f
  6685                           	line	199
  6686                           	
  6687  0516                     l5024:	
  6688                           ;i2c_ar1000.c: 199: return ar_received_byte;
  6689  0516  0821               	movf	(ar_i2c_read@ar_received_byte+1),w
  6690  0517  01F1               	clrf	(?_ar_i2c_read+1)
  6691  0518  07F1               	addwf	(?_ar_i2c_read+1)
  6692  0519  0820               	movf	(ar_i2c_read@ar_received_byte),w
  6693  051A  01F0               	clrf	(?_ar_i2c_read)
  6694  051B  07F0               	addwf	(?_ar_i2c_read)
  6695                           
  6696  051C  2D1D               	goto	l1613
  6697                           	
  6698  051D                     l5026:	
  6699                           	line	201
  6700                           	
  6701  051D                     l1613:	
  6702  051D  0008               	return
  6703                           	opt stack 0
  6704                           GLOBAL	__end_of_ar_i2c_read
  6705  051E                     	__end_of_ar_i2c_read:
  6706 ;; =============== function _ar_i2c_read ends ============
  6707                           
  6708                           	signat	_ar_i2c_read,8314
  6709                           	global	_ar_i2c_write
  6710                           psect	text643,local,class=CODE,delta=2
  6711                           global __ptext643
  6712  0ED3                     __ptext643:
  6713                           
  6714 ;; *************** function _ar_i2c_write *****************
  6715 ;; Defined at:
  6716 ;;		line 220 in file "../../Source file/i2c_ar1000.c"
  6717 ;; Parameters:    Size  Location     Type
  6718 ;;  ar_slave_add    1    wreg     unsigned char 
  6719 ;;  ar_register     1    0[COMMON] unsigned char 
  6720 ;;  ar_data         4    1[COMMON] unsigned long 
  6721 ;; Auto vars:     Size  Location     Type
  6722 ;;  ar_slave_add    1   10[COMMON] unsigned char 
  6723 ;;  ar_transmit_    1   12[COMMON] unsigned char 
  6724 ;;  ar_transmit_    1   11[COMMON] unsigned char 
  6725 ;; Return value:  Size  Location     Type
  6726 ;;		None               void
  6727 ;; Registers used:
  6728 ;;		wreg, status,2, status,0
  6729 ;; Tracked objects:
  6730 ;;		On entry : 0/0
  6731 ;;		On exit  : 0/0
  6732 ;;		Unchanged: 0/0
  6733 ;; Data sizes:     COMMON   BANK0   BANK1   BANK3   BANK2
  6734 ;;      Params:         5       0       0       0       0
  6735 ;;      Locals:         3       0       0       0       0
  6736 ;;      Temps:          5       0       0       0       0
  6737 ;;      Totals:        13       0       0       0       0
  6738 ;;Total ram usage:       13 bytes
  6739 ;; Hardware stack levels used:    1
  6740 ;; This function calls:
  6741 ;;		Nothing
  6742 ;; This function is called by:
  6743 ;;		_set_vol
  6744 ;;		_ar1000_init
  6745 ;;		_setAR1000
  6746 ;; This function uses a non-reentrant model
  6747 ;;
  6748                           psect	text643
  6749                           	file	"../../Source file/i2c_ar1000.c"
  6750                           	line	220
  6751                           	global	__size_of_ar_i2c_write
  6752  0087                     	__size_of_ar_i2c_write	equ	__end_of_ar_i2c_write-_ar_i2c_write
  6753                           	
  6754  0ED3                     _ar_i2c_write:	
  6755                           	opt	stack 5
  6756                           ; Regs used in _ar_i2c_write: [wreg+status,2+status,0]
  6757                           ;ar_i2c_write@ar_slave_address stored from wreg
  6758                           	line	224
  6759  0ED3  00FA               	movwf	(ar_i2c_write@ar_slave_address)
  6760                           	
  6761  0ED4                     l4936:	
  6762                           ;i2c_ar1000.c: 223: unsigned char ar_transmit_byte1, ar_transmit_byte2;
  6763                           ;i2c_ar1000.c: 224: ar_transmit_byte1 = (ar_data & 0xFF00) >> 8;
  6764  0ED4  0871               	movf	(ar_i2c_write@ar_data),w
  6765  0ED5  00F5               	movwf	(??_ar_i2c_write+0)+0
  6766  0ED6  0872               	movf	(ar_i2c_write@ar_data+1),w
  6767  0ED7  00F6               	movwf	((??_ar_i2c_write+0)+0+1)
  6768  0ED8  0873               	movf	(ar_i2c_write@ar_data+2),w
  6769  0ED9  00F7               	movwf	((??_ar_i2c_write+0)+0+2)
  6770  0EDA  0874               	movf	(ar_i2c_write@ar_data+3),w
  6771  0EDB  00F8               	movwf	((??_ar_i2c_write+0)+0+3)
  6772  0EDC  3008               	movlw	08h
  6773  0EDD                     u3255:
  6774  0EDD  1003               	clrc
  6775  0EDE  0CF8               	rrf	(??_ar_i2c_write+0)+3,f
  6776  0EDF  0CF7               	rrf	(??_ar_i2c_write+0)+2,f
  6777  0EE0  0CF6               	rrf	(??_ar_i2c_write+0)+1,f
  6778  0EE1  0CF5               	rrf	(??_ar_i2c_write+0)+0,f
  6779  0EE2                     u3250:
  6780  0EE2  3EFF               	addlw	-1
  6781  0EE3  1D03               	skipz
  6782  0EE4  2EDD               	goto	u3255
  6783  0EE5  0875               	movf	0+(??_ar_i2c_write+0)+0,w
  6784  0EE6  00F9               	movwf	(??_ar_i2c_write+4)+0
  6785  0EE7  0879               	movf	(??_ar_i2c_write+4)+0,w
  6786  0EE8  00FB               	movwf	(ar_i2c_write@ar_transmit_byte1)
  6787                           	line	225
  6788                           	
  6789  0EE9                     l4938:	
  6790                           ;i2c_ar1000.c: 225: ar_transmit_byte2 = (ar_data & 0x00FF);
  6791  0EE9  0871               	movf	(ar_i2c_write@ar_data),w
  6792  0EEA  00F5               	movwf	(??_ar_i2c_write+0)+0
  6793  0EEB  0875               	movf	(??_ar_i2c_write+0)+0,w
  6794  0EEC  00FC               	movwf	(ar_i2c_write@ar_transmit_byte2)
  6795                           	line	228
  6796                           	
  6797  0EED                     l4940:	
  6798                           ;i2c_ar1000.c: 228: SEN = 1;
  6799  0EED  1683               	bsf	status, 5	;RP0=1, select bank1
  6800  0EEE  1303               	bcf	status, 6	;RP1=0, select bank1
  6801  0EEF  1411               	bsf	(1160/8)^080h,(1160)&7
  6802                           	line	229
  6803                           ;i2c_ar1000.c: 229: while (SEN == 1);
  6804  0EF0  2EF1               	goto	l1656
  6805                           	
  6806  0EF1                     l1657:	
  6807                           	
  6808  0EF1                     l1656:	
  6809  0EF1  1811               	btfsc	(1160/8)^080h,(1160)&7
  6810  0EF2  2EF4               	goto	u3261
  6811  0EF3  2EF5               	goto	u3260
  6812  0EF4                     u3261:
  6813  0EF4  2EF1               	goto	l1656
  6814  0EF5                     u3260:
  6815  0EF5  2EF6               	goto	l4942
  6816                           	
  6817  0EF6                     l1658:	
  6818                           	line	232
  6819                           	
  6820  0EF6                     l4942:	
  6821                           ;i2c_ar1000.c: 232: SSPBUF = ar_slave_address | 0x00;
  6822  0EF6  087A               	movf	(ar_i2c_write@ar_slave_address),w
  6823  0EF7  1283               	bcf	status, 5	;RP0=0, select bank0
  6824  0EF8  1303               	bcf	status, 6	;RP1=0, select bank0
  6825  0EF9  0093               	movwf	(19)	;volatile
  6826                           	line	235
  6827                           ;i2c_ar1000.c: 235: while (R_W == 1);
  6828  0EFA  2EFB               	goto	l1659
  6829                           	
  6830  0EFB                     l1660:	
  6831                           	
  6832  0EFB                     l1659:	
  6833  0EFB  1683               	bsf	status, 5	;RP0=1, select bank1
  6834  0EFC  1303               	bcf	status, 6	;RP1=0, select bank1
  6835  0EFD  1914               	btfsc	(1186/8)^080h,(1186)&7
  6836  0EFE  2F00               	goto	u3271
  6837  0EFF  2F01               	goto	u3270
  6838  0F00                     u3271:
  6839  0F00  2EFB               	goto	l1659
  6840  0F01                     u3270:
  6841                           	
  6842  0F01                     l1661:	
  6843                           	line	238
  6844                           ;i2c_ar1000.c: 238: if (ACKSTAT == 1) {
  6845  0F01  1F11               	btfss	(1166/8)^080h,(1166)&7
  6846  0F02  2F04               	goto	u3281
  6847  0F03  2F05               	goto	u3280
  6848  0F04                     u3281:
  6849  0F04  2F0D               	goto	l4946
  6850  0F05                     u3280:
  6851                           	line	240
  6852                           	
  6853  0F05                     l4944:	
  6854                           ;i2c_ar1000.c: 240: PEN = 1;
  6855  0F05  1511               	bsf	(1162/8)^080h,(1162)&7
  6856                           	line	241
  6857                           ;i2c_ar1000.c: 241: while (PEN == 1);
  6858  0F06  2F07               	goto	l1663
  6859                           	
  6860  0F07                     l1664:	
  6861                           	
  6862  0F07                     l1663:	
  6863  0F07  1911               	btfsc	(1162/8)^080h,(1162)&7
  6864  0F08  2F0A               	goto	u3291
  6865  0F09  2F0B               	goto	u3290
  6866  0F0A                     u3291:
  6867  0F0A  2F07               	goto	l1663
  6868  0F0B                     u3290:
  6869  0F0B  2F59               	goto	l1666
  6870                           	
  6871  0F0C                     l1665:	
  6872                           	line	243
  6873                           ;i2c_ar1000.c: 243: return;
  6874  0F0C  2F59               	goto	l1666
  6875                           	line	244
  6876                           	
  6877  0F0D                     l1662:	
  6878                           	line	247
  6879                           	
  6880  0F0D                     l4946:	
  6881                           ;i2c_ar1000.c: 244: }
  6882                           ;i2c_ar1000.c: 247: SSPBUF = ar_register;
  6883  0F0D  0870               	movf	(ar_i2c_write@ar_register),w
  6884  0F0E  1283               	bcf	status, 5	;RP0=0, select bank0
  6885  0F0F  1303               	bcf	status, 6	;RP1=0, select bank0
  6886  0F10  0093               	movwf	(19)	;volatile
  6887                           	line	250
  6888                           ;i2c_ar1000.c: 250: while (R_W == 1);
  6889  0F11  2F12               	goto	l1667
  6890                           	
  6891  0F12                     l1668:	
  6892                           	
  6893  0F12                     l1667:	
  6894  0F12  1683               	bsf	status, 5	;RP0=1, select bank1
  6895  0F13  1303               	bcf	status, 6	;RP1=0, select bank1
  6896  0F14  1914               	btfsc	(1186/8)^080h,(1186)&7
  6897  0F15  2F17               	goto	u3301
  6898  0F16  2F18               	goto	u3300
  6899  0F17                     u3301:
  6900  0F17  2F12               	goto	l1667
  6901  0F18                     u3300:
  6902                           	
  6903  0F18                     l1669:	
  6904                           	line	253
  6905                           ;i2c_ar1000.c: 253: if (ACKSTAT == 1) {
  6906  0F18  1F11               	btfss	(1166/8)^080h,(1166)&7
  6907  0F19  2F1B               	goto	u3311
  6908  0F1A  2F1C               	goto	u3310
  6909  0F1B                     u3311:
  6910  0F1B  2F24               	goto	l4950
  6911  0F1C                     u3310:
  6912                           	line	255
  6913                           	
  6914  0F1C                     l4948:	
  6915                           ;i2c_ar1000.c: 255: PEN = 1;
  6916  0F1C  1511               	bsf	(1162/8)^080h,(1162)&7
  6917                           	line	256
  6918                           ;i2c_ar1000.c: 256: while (PEN == 1);
  6919  0F1D  2F1E               	goto	l1671
  6920                           	
  6921  0F1E                     l1672:	
  6922                           	
  6923  0F1E                     l1671:	
  6924  0F1E  1911               	btfsc	(1162/8)^080h,(1162)&7
  6925  0F1F  2F21               	goto	u3321
  6926  0F20  2F22               	goto	u3320
  6927  0F21                     u3321:
  6928  0F21  2F1E               	goto	l1671
  6929  0F22                     u3320:
  6930  0F22  2F59               	goto	l1666
  6931                           	
  6932  0F23                     l1673:	
  6933                           	line	258
  6934                           ;i2c_ar1000.c: 258: return;
  6935  0F23  2F59               	goto	l1666
  6936                           	line	259
  6937                           	
  6938  0F24                     l1670:	
  6939                           	line	263
  6940                           	
  6941  0F24                     l4950:	
  6942                           ;i2c_ar1000.c: 259: }
  6943                           ;i2c_ar1000.c: 263: SSPBUF = ar_transmit_byte1;
  6944  0F24  087B               	movf	(ar_i2c_write@ar_transmit_byte1),w
  6945  0F25  1283               	bcf	status, 5	;RP0=0, select bank0
  6946  0F26  1303               	bcf	status, 6	;RP1=0, select bank0
  6947  0F27  0093               	movwf	(19)	;volatile
  6948                           	line	266
  6949                           ;i2c_ar1000.c: 266: while (R_W == 1);
  6950  0F28  2F29               	goto	l1674
  6951                           	
  6952  0F29                     l1675:	
  6953                           	
  6954  0F29                     l1674:	
  6955  0F29  1683               	bsf	status, 5	;RP0=1, select bank1
  6956  0F2A  1303               	bcf	status, 6	;RP1=0, select bank1
  6957  0F2B  1914               	btfsc	(1186/8)^080h,(1186)&7
  6958  0F2C  2F2E               	goto	u3331
  6959  0F2D  2F2F               	goto	u3330
  6960  0F2E                     u3331:
  6961  0F2E  2F29               	goto	l1674
  6962  0F2F                     u3330:
  6963                           	
  6964  0F2F                     l1676:	
  6965                           	line	269
  6966                           ;i2c_ar1000.c: 269: if (ACKSTAT == 1) {
  6967  0F2F  1F11               	btfss	(1166/8)^080h,(1166)&7
  6968  0F30  2F32               	goto	u3341
  6969  0F31  2F33               	goto	u3340
  6970  0F32                     u3341:
  6971  0F32  2F3B               	goto	l4954
  6972  0F33                     u3340:
  6973                           	line	271
  6974                           	
  6975  0F33                     l4952:	
  6976                           ;i2c_ar1000.c: 271: PEN = 1;
  6977  0F33  1511               	bsf	(1162/8)^080h,(1162)&7
  6978                           	line	272
  6979                           ;i2c_ar1000.c: 272: while (PEN == 1);
  6980  0F34  2F35               	goto	l1678
  6981                           	
  6982  0F35                     l1679:	
  6983                           	
  6984  0F35                     l1678:	
  6985  0F35  1911               	btfsc	(1162/8)^080h,(1162)&7
  6986  0F36  2F38               	goto	u3351
  6987  0F37  2F39               	goto	u3350
  6988  0F38                     u3351:
  6989  0F38  2F35               	goto	l1678
  6990  0F39                     u3350:
  6991  0F39  2F59               	goto	l1666
  6992                           	
  6993  0F3A                     l1680:	
  6994                           	line	274
  6995                           ;i2c_ar1000.c: 274: return;
  6996  0F3A  2F59               	goto	l1666
  6997                           	line	275
  6998                           	
  6999  0F3B                     l1677:	
  7000                           	line	278
  7001                           	
  7002  0F3B                     l4954:	
  7003                           ;i2c_ar1000.c: 275: }
  7004                           ;i2c_ar1000.c: 278: SSPBUF = ar_transmit_byte2;
  7005  0F3B  087C               	movf	(ar_i2c_write@ar_transmit_byte2),w
  7006  0F3C  1283               	bcf	status, 5	;RP0=0, select bank0
  7007  0F3D  1303               	bcf	status, 6	;RP1=0, select bank0
  7008  0F3E  0093               	movwf	(19)	;volatile
  7009                           	line	281
  7010                           ;i2c_ar1000.c: 281: while (R_W == 1);
  7011  0F3F  2F40               	goto	l1681
  7012                           	
  7013  0F40                     l1682:	
  7014                           	
  7015  0F40                     l1681:	
  7016  0F40  1683               	bsf	status, 5	;RP0=1, select bank1
  7017  0F41  1303               	bcf	status, 6	;RP1=0, select bank1
  7018  0F42  1914               	btfsc	(1186/8)^080h,(1186)&7
  7019  0F43  2F45               	goto	u3361
  7020  0F44  2F46               	goto	u3360
  7021  0F45                     u3361:
  7022  0F45  2F40               	goto	l1681
  7023  0F46                     u3360:
  7024                           	
  7025  0F46                     l1683:	
  7026                           	line	284
  7027                           ;i2c_ar1000.c: 284: if (ACKSTAT == 1) {
  7028  0F46  1F11               	btfss	(1166/8)^080h,(1166)&7
  7029  0F47  2F49               	goto	u3371
  7030  0F48  2F4A               	goto	u3370
  7031  0F49                     u3371:
  7032  0F49  2F52               	goto	l1684
  7033  0F4A                     u3370:
  7034                           	line	286
  7035                           	
  7036  0F4A                     l4956:	
  7037                           ;i2c_ar1000.c: 286: PEN = 1;
  7038  0F4A  1511               	bsf	(1162/8)^080h,(1162)&7
  7039                           	line	287
  7040                           ;i2c_ar1000.c: 287: while (PEN == 1);
  7041  0F4B  2F4C               	goto	l1685
  7042                           	
  7043  0F4C                     l1686:	
  7044                           	
  7045  0F4C                     l1685:	
  7046  0F4C  1911               	btfsc	(1162/8)^080h,(1162)&7
  7047  0F4D  2F4F               	goto	u3381
  7048  0F4E  2F50               	goto	u3380
  7049  0F4F                     u3381:
  7050  0F4F  2F4C               	goto	l1685
  7051  0F50                     u3380:
  7052  0F50  2F59               	goto	l1666
  7053                           	
  7054  0F51                     l1687:	
  7055                           	line	289
  7056                           ;i2c_ar1000.c: 289: return;
  7057  0F51  2F59               	goto	l1666
  7058                           	line	290
  7059                           	
  7060  0F52                     l1684:	
  7061                           	line	293
  7062                           ;i2c_ar1000.c: 290: }
  7063                           ;i2c_ar1000.c: 293: PEN = 1;
  7064  0F52  1511               	bsf	(1162/8)^080h,(1162)&7
  7065                           	line	294
  7066                           ;i2c_ar1000.c: 294: while (PEN == 1);
  7067  0F53  2F54               	goto	l1688
  7068                           	
  7069  0F54                     l1689:	
  7070                           	
  7071  0F54                     l1688:	
  7072  0F54  1911               	btfsc	(1162/8)^080h,(1162)&7
  7073  0F55  2F57               	goto	u3391
  7074  0F56  2F58               	goto	u3390
  7075  0F57                     u3391:
  7076  0F57  2F54               	goto	l1688
  7077  0F58                     u3390:
  7078  0F58  2F59               	goto	l1666
  7079                           	
  7080  0F59                     l1690:	
  7081                           	line	296
  7082                           	
  7083  0F59                     l1666:	
  7084  0F59  0008               	return
  7085                           	opt stack 0
  7086                           GLOBAL	__end_of_ar_i2c_write
  7087  0F5A                     	__end_of_ar_i2c_write:
  7088 ;; =============== function _ar_i2c_write ends ============
  7089                           
  7090                           	signat	_ar_i2c_write,12408
  7091                           	global	_eprom_read
  7092                           psect	text644,local,class=CODE,delta=2
  7093                           global __ptext644
  7094  0BFF                     __ptext644:
  7095                           
  7096 ;; *************** function _eprom_read *****************
  7097 ;; Defined at:
  7098 ;;		line 561 in file "../../Source file/PR31_final.c"
  7099 ;; Parameters:    Size  Location     Type
  7100 ;;  channel_adr     1    wreg     unsigned char 
  7101 ;; Auto vars:     Size  Location     Type
  7102 ;;  channel_adr     1    4[COMMON] unsigned char 
  7103 ;;  fm_value        2    2[COMMON] unsigned int 
  7104 ;; Return value:  Size  Location     Type
  7105 ;;                  2    0[COMMON] unsigned int 
  7106 ;; Registers used:
  7107 ;;		wreg, status,2, status,0
  7108 ;; Tracked objects:
  7109 ;;		On entry : 0/0
  7110 ;;		On exit  : 0/0
  7111 ;;		Unchanged: 0/0
  7112 ;; Data sizes:     COMMON   BANK0   BANK1   BANK3   BANK2
  7113 ;;      Params:         2       0       0       0       0
  7114 ;;      Locals:         3       0       0       0       0
  7115 ;;      Temps:          0       0       0       0       0
  7116 ;;      Totals:         5       0       0       0       0
  7117 ;;Total ram usage:        5 bytes
  7118 ;; Hardware stack levels used:    1
  7119 ;; This function calls:
  7120 ;;		Nothing
  7121 ;; This function is called by:
  7122 ;;		_switch_channel
  7123 ;; This function uses a non-reentrant model
  7124 ;;
  7125                           psect	text644
  7126                           	file	"../../Source file/PR31_final.c"
  7127                           	line	561
  7128                           	global	__size_of_eprom_read
  7129  0020                     	__size_of_eprom_read	equ	__end_of_eprom_read-_eprom_read
  7130                           	
  7131  0BFF                     _eprom_read:	
  7132                           	opt	stack 5
  7133                           ; Regs used in _eprom_read: [wreg+status,2+status,0]
  7134                           ;eprom_read@channel_adr stored from wreg
  7135                           	line	563
  7136  0BFF  00F4               	movwf	(eprom_read@channel_adr)
  7137                           	
  7138  0C00                     l4924:	
  7139                           ;PR31_final.c: 562: unsigned int fm_value;
  7140                           ;PR31_final.c: 563: EEADR = channel_adr;
  7141  0C00  0874               	movf	(eprom_read@channel_adr),w
  7142  0C01  1283               	bcf	status, 5	;RP0=0, select bank2
  7143  0C02  1703               	bsf	status, 6	;RP1=1, select bank2
  7144  0C03  008D               	movwf	(269)^0100h	;volatile
  7145                           	line	564
  7146                           	
  7147  0C04                     l4926:	
  7148                           ;PR31_final.c: 564: EEPGD = 0;
  7149  0C04  1683               	bsf	status, 5	;RP0=1, select bank3
  7150  0C05  1703               	bsf	status, 6	;RP1=1, select bank3
  7151  0C06  138C               	bcf	(3175/8)^0180h,(3175)&7
  7152                           	line	565
  7153                           	
  7154  0C07                     l4928:	
  7155                           ;PR31_final.c: 565: RD = 1;
  7156  0C07  140C               	bsf	(3168/8)^0180h,(3168)&7
  7157                           	line	566
  7158                           ;PR31_final.c: 566: while (RD == 1);
  7159  0C08  2C09               	goto	l906
  7160                           	
  7161  0C09                     l907:	
  7162                           	
  7163  0C09                     l906:	
  7164  0C09  180C               	btfsc	(3168/8)^0180h,(3168)&7
  7165  0C0A  2C0C               	goto	u3241
  7166  0C0B  2C0D               	goto	u3240
  7167  0C0C                     u3241:
  7168  0C0C  2C09               	goto	l906
  7169  0C0D                     u3240:
  7170  0C0D  2C0E               	goto	l4930
  7171                           	
  7172  0C0E                     l908:	
  7173                           	line	567
  7174                           	
  7175  0C0E                     l4930:	
  7176                           ;PR31_final.c: 567: fm_value = (EEDATA + 825);
  7177  0C0E  1283               	bcf	status, 5	;RP0=0, select bank2
  7178  0C0F  1703               	bsf	status, 6	;RP1=1, select bank2
  7179  0C10  080C               	movf	(268)^0100h,w	;volatile
  7180  0C11  3E39               	addlw	low(0339h)
  7181  0C12  00F2               	movwf	(eprom_read@fm_value)
  7182  0C13  3003               	movlw	high(0339h)
  7183  0C14  1803               	skipnc
  7184  0C15  3004               	movlw	(high(0339h)+1)&0ffh
  7185  0C16  00F3               	movwf	((eprom_read@fm_value))+1
  7186                           	line	569
  7187                           	
  7188  0C17                     l4932:	
  7189                           ;PR31_final.c: 569: return fm_value;
  7190  0C17  0873               	movf	(eprom_read@fm_value+1),w
  7191  0C18  01F1               	clrf	(?_eprom_read+1)
  7192  0C19  07F1               	addwf	(?_eprom_read+1)
  7193  0C1A  0872               	movf	(eprom_read@fm_value),w
  7194  0C1B  01F0               	clrf	(?_eprom_read)
  7195  0C1C  07F0               	addwf	(?_eprom_read)
  7196                           
  7197  0C1D  2C1E               	goto	l909
  7198                           	
  7199  0C1E                     l4934:	
  7200                           	line	570
  7201                           	
  7202  0C1E                     l909:	
  7203  0C1E  0008               	return
  7204                           	opt stack 0
  7205                           GLOBAL	__end_of_eprom_read
  7206  0C1F                     	__end_of_eprom_read:
  7207 ;; =============== function _eprom_read ends ============
  7208                           
  7209                           	signat	_eprom_read,4218
  7210                           	global	_uart_tx
  7211                           psect	text645,local,class=CODE,delta=2
  7212                           global __ptext645
  7213  0B04                     __ptext645:
  7214                           
  7215 ;; *************** function _uart_tx *****************
  7216 ;; Defined at:
  7217 ;;		line 528 in file "../../Source file/PR31_final.c"
  7218 ;; Parameters:    Size  Location     Type
  7219 ;;  uc_data         1    wreg     unsigned char 
  7220 ;; Auto vars:     Size  Location     Type
  7221 ;;  uc_data         1    0[COMMON] unsigned char 
  7222 ;; Return value:  Size  Location     Type
  7223 ;;		None               void
  7224 ;; Registers used:
  7225 ;;		wreg
  7226 ;; Tracked objects:
  7227 ;;		On entry : 0/0
  7228 ;;		On exit  : 0/0
  7229 ;;		Unchanged: 0/0
  7230 ;; Data sizes:     COMMON   BANK0   BANK1   BANK3   BANK2
  7231 ;;      Params:         0       0       0       0       0
  7232 ;;      Locals:         1       0       0       0       0
  7233 ;;      Temps:          0       0       0       0       0
  7234 ;;      Totals:         1       0       0       0       0
  7235 ;;Total ram usage:        1 bytes
  7236 ;; Hardware stack levels used:    1
  7237 ;; This function calls:
  7238 ;;		Nothing
  7239 ;; This function is called by:
  7240 ;;		_switch_channel
  7241 ;;		_adjust_channel
  7242 ;;		_decrease_chan
  7243 ;;		_increase_chan
  7244 ;;		_send_dec
  7245 ;;		_adjust_vol
  7246 ;;		_uart_init
  7247 ;;		_uart_sendstr
  7248 ;; This function uses a non-reentrant model
  7249 ;;
  7250                           psect	text645
  7251                           	file	"../../Source file/PR31_final.c"
  7252                           	line	528
  7253                           	global	__size_of_uart_tx
  7254  000C                     	__size_of_uart_tx	equ	__end_of_uart_tx-_uart_tx
  7255                           	
  7256  0B04                     _uart_tx:	
  7257                           	opt	stack 6
  7258                           ; Regs used in _uart_tx: [wreg]
  7259                           ;uart_tx@uc_data stored from wreg
  7260  0B04  00F0               	movwf	(uart_tx@uc_data)
  7261                           	line	529
  7262                           	
  7263  0B05                     l4920:	
  7264                           ;PR31_final.c: 529: while (TXIF == 0);
  7265  0B05  2B06               	goto	l887
  7266                           	
  7267  0B06                     l888:	
  7268                           	
  7269  0B06                     l887:	
  7270  0B06  1283               	bcf	status, 5	;RP0=0, select bank0
  7271  0B07  1303               	bcf	status, 6	;RP1=0, select bank0
  7272  0B08  1E0C               	btfss	(100/8),(100)&7
  7273  0B09  2B0B               	goto	u3231
  7274  0B0A  2B0C               	goto	u3230
  7275  0B0B                     u3231:
  7276  0B0B  2B06               	goto	l887
  7277  0B0C                     u3230:
  7278  0B0C  2B0D               	goto	l4922
  7279                           	
  7280  0B0D                     l889:	
  7281                           	line	530
  7282                           	
  7283  0B0D                     l4922:	
  7284                           ;PR31_final.c: 530: TXREG = uc_data;
  7285  0B0D  0870               	movf	(uart_tx@uc_data),w
  7286  0B0E  0099               	movwf	(25)	;volatile
  7287                           	line	531
  7288                           	
  7289  0B0F                     l890:	
  7290  0B0F  0008               	return
  7291                           	opt stack 0
  7292                           GLOBAL	__end_of_uart_tx
  7293  0B10                     	__end_of_uart_tx:
  7294 ;; =============== function _uart_tx ends ============
  7295                           
  7296                           	signat	_uart_tx,4216
  7297                           	global	_eprom_write
  7298                           psect	text646,local,class=CODE,delta=2
  7299                           global __ptext646
  7300  0BC2                     __ptext646:
  7301                           
  7302 ;; *************** function _eprom_write *****************
  7303 ;; Defined at:
  7304 ;;		line 573 in file "../../Source file/PR31_final.c"
  7305 ;; Parameters:    Size  Location     Type
  7306 ;;  channel_adr     1    wreg     unsigned char 
  7307 ;;  fm_value        2    0[COMMON] unsigned int 
  7308 ;; Auto vars:     Size  Location     Type
  7309 ;;  channel_adr     1    2[COMMON] unsigned char 
  7310 ;; Return value:  Size  Location     Type
  7311 ;;		None               void
  7312 ;; Registers used:
  7313 ;;		wreg
  7314 ;; Tracked objects:
  7315 ;;		On entry : 0/0
  7316 ;;		On exit  : 0/0
  7317 ;;		Unchanged: 0/0
  7318 ;; Data sizes:     COMMON   BANK0   BANK1   BANK3   BANK2
  7319 ;;      Params:         2       0       0       0       0
  7320 ;;      Locals:         1       0       0       0       0
  7321 ;;      Temps:          0       0       0       0       0
  7322 ;;      Totals:         3       0       0       0       0
  7323 ;;Total ram usage:        3 bytes
  7324 ;; Hardware stack levels used:    1
  7325 ;; This function calls:
  7326 ;;		Nothing
  7327 ;; This function is called by:
  7328 ;;		_main
  7329 ;;		_adjust_channel
  7330 ;; This function uses a non-reentrant model
  7331 ;;
  7332                           psect	text646
  7333                           	file	"../../Source file/PR31_final.c"
  7334                           	line	573
  7335                           	global	__size_of_eprom_write
  7336  001E                     	__size_of_eprom_write	equ	__end_of_eprom_write-_eprom_write
  7337                           	
  7338  0BC2                     _eprom_write:	
  7339                           	opt	stack 6
  7340                           ; Regs used in _eprom_write: [wreg]
  7341                           ;eprom_write@channel_adr stored from wreg
  7342  0BC2  00F2               	movwf	(eprom_write@channel_adr)
  7343                           	line	574
  7344                           	
  7345  0BC3                     l4910:	
  7346                           ;PR31_final.c: 574: EEADR = channel_adr;
  7347  0BC3  0872               	movf	(eprom_write@channel_adr),w
  7348  0BC4  1283               	bcf	status, 5	;RP0=0, select bank2
  7349  0BC5  1703               	bsf	status, 6	;RP1=1, select bank2
  7350  0BC6  008D               	movwf	(269)^0100h	;volatile
  7351                           	line	575
  7352                           ;PR31_final.c: 575: fm_value -= 825;
  7353  0BC7  3039               	movlw	low(0339h)
  7354  0BC8  02F0               	subwf	(eprom_write@fm_value),f
  7355  0BC9  3003               	movlw	high(0339h)
  7356  0BCA  1C03               	skipc
  7357  0BCB  03F1               	decf	(eprom_write@fm_value+1),f
  7358  0BCC  02F1               	subwf	(eprom_write@fm_value+1),f
  7359                           	line	576
  7360                           ;PR31_final.c: 576: EEDATA = fm_value;
  7361  0BCD  0870               	movf	(eprom_write@fm_value),w
  7362  0BCE  008C               	movwf	(268)^0100h	;volatile
  7363                           	line	577
  7364                           	
  7365  0BCF                     l4912:	
  7366                           ;PR31_final.c: 577: EEPGD = 0;
  7367  0BCF  1683               	bsf	status, 5	;RP0=1, select bank3
  7368  0BD0  1703               	bsf	status, 6	;RP1=1, select bank3
  7369  0BD1  138C               	bcf	(3175/8)^0180h,(3175)&7
  7370                           	line	578
  7371                           	
  7372  0BD2                     l4914:	
  7373                           ;PR31_final.c: 578: WREN = 1;
  7374  0BD2  150C               	bsf	(3170/8)^0180h,(3170)&7
  7375                           	line	579
  7376                           ;PR31_final.c: 579: EECON2 = 0x55;
  7377  0BD3  3055               	movlw	(055h)
  7378  0BD4  008D               	movwf	(397)^0180h	;volatile
  7379                           	line	580
  7380                           ;PR31_final.c: 580: EECON2 = 0xAA;
  7381  0BD5  30AA               	movlw	(0AAh)
  7382  0BD6  008D               	movwf	(397)^0180h	;volatile
  7383                           	line	581
  7384                           	
  7385  0BD7                     l4916:	
  7386                           ;PR31_final.c: 581: WR = 1;
  7387  0BD7  148C               	bsf	(3169/8)^0180h,(3169)&7
  7388                           	line	582
  7389                           	
  7390  0BD8                     l4918:	
  7391                           ;PR31_final.c: 582: WREN = 0;
  7392  0BD8  110C               	bcf	(3170/8)^0180h,(3170)&7
  7393                           	line	583
  7394                           ;PR31_final.c: 583: while (WR == 1);
  7395  0BD9  2BDA               	goto	l912
  7396                           	
  7397  0BDA                     l913:	
  7398                           	
  7399  0BDA                     l912:	
  7400  0BDA  188C               	btfsc	(3169/8)^0180h,(3169)&7
  7401  0BDB  2BDD               	goto	u3221
  7402  0BDC  2BDE               	goto	u3220
  7403  0BDD                     u3221:
  7404  0BDD  2BDA               	goto	l912
  7405  0BDE                     u3220:
  7406  0BDE  2BDF               	goto	l915
  7407                           	
  7408  0BDF                     l914:	
  7409                           	line	584
  7410                           	
  7411  0BDF                     l915:	
  7412  0BDF  0008               	return
  7413                           	opt stack 0
  7414                           GLOBAL	__end_of_eprom_write
  7415  0BE0                     	__end_of_eprom_write:
  7416 ;; =============== function _eprom_write ends ============
  7417                           
  7418                           	signat	_eprom_write,8312
  7419                           	global	_eeprom_read
  7420                           psect	text647,local,class=CODE,delta=2
  7421                           global __ptext647
  7422  0BE0                     __ptext647:
  7423                           
  7424 ;; *************** function _eeprom_read *****************
  7425 ;; Defined at:
  7426 ;;		line 7 in file "eeread.c"
  7427 ;; Parameters:    Size  Location     Type
  7428 ;;  addr            1    wreg     unsigned char 
  7429 ;; Auto vars:     Size  Location     Type
  7430 ;;  addr            1    1[COMMON] unsigned char 
  7431 ;; Return value:  Size  Location     Type
  7432 ;;                  1    wreg      unsigned char 
  7433 ;; Registers used:
  7434 ;;		wreg, status,2, status,0
  7435 ;; Tracked objects:
  7436 ;;		On entry : 0/0
  7437 ;;		On exit  : 0/0
  7438 ;;		Unchanged: 0/0
  7439 ;; Data sizes:     COMMON   BANK0   BANK1   BANK3   BANK2
  7440 ;;      Params:         0       0       0       0       0
  7441 ;;      Locals:         1       0       0       0       0
  7442 ;;      Temps:          1       0       0       0       0
  7443 ;;      Totals:         2       0       0       0       0
  7444 ;;Total ram usage:        2 bytes
  7445 ;; Hardware stack levels used:    1
  7446 ;; This function calls:
  7447 ;;		Nothing
  7448 ;; This function is called by:
  7449 ;;		_main
  7450 ;; This function uses a non-reentrant model
  7451 ;;
  7452                           psect	text647
  7453                           	file	"C:\Program Files\HI-TECH Software\PICC\9.83\sources\eeread.c"
  7454                           	line	7
  7455                           	global	__size_of_eeprom_read
  7456  001F                     	__size_of_eeprom_read	equ	__end_of_eeprom_read-_eeprom_read
  7457                           	
  7458  0BE0                     _eeprom_read:	
  7459                           	opt	stack 7
  7460                           ; Regs used in _eeprom_read: [wreg+status,2+status,0]
  7461                           ;eeprom_read@addr stored from wreg
  7462                           	line	9
  7463  0BE0  00F1               	movwf	(eeprom_read@addr)
  7464                           	line	8
  7465                           	
  7466  0BE1                     l2305:	
  7467                           	line	9
  7468                           # 9 "C:\Program Files\HI-TECH Software\PICC\9.83\sources\eeread.c"
  7469  0BE1  0064               clrwdt ;#
  7470                           psect	text647
  7471                           	line	10
  7472  0BE2  1683               	bsf	status, 5	;RP0=1, select bank3
  7473  0BE3  1703               	bsf	status, 6	;RP1=1, select bank3
  7474  0BE4  188C               	btfsc	(3169/8)^0180h,(3169)&7
  7475  0BE5  2BE7               	goto	u3211
  7476  0BE6  2BE8               	goto	u3210
  7477  0BE7                     u3211:
  7478  0BE7  2BE1               	goto	l2305
  7479  0BE8                     u3210:
  7480  0BE8  2BE9               	goto	l4906
  7481                           	
  7482  0BE9                     l2306:	
  7483                           	line	11
  7484                           	
  7485  0BE9                     l4906:	
  7486  0BE9  0871               	movf	(eeprom_read@addr),w
  7487  0BEA  1283               	bcf	status, 5	;RP0=0, select bank2
  7488  0BEB  1703               	bsf	status, 6	;RP1=1, select bank2
  7489  0BEC  008D               	movwf	(269)^0100h	;volatile
  7490  0BED  303F               	movlw	(03Fh)
  7491  0BEE  00F0               	movwf	(??_eeprom_read+0)+0
  7492  0BEF  0870               	movf	(??_eeprom_read+0)+0,w
  7493  0BF0  1683               	bsf	status, 5	;RP0=1, select bank3
  7494  0BF1  1703               	bsf	status, 6	;RP1=1, select bank3
  7495  0BF2  058C               	andwf	(396)^0180h,f	;volatile
  7496  0BF3  140C               	bsf	(3168/8)^0180h,(3168)&7
  7497  0BF4  1003               	clrc
  7498  0BF5  180C               	btfsc	(3168/8)^0180h,(3168)&7
  7499  0BF6  1403               	setc
  7500  0BF7  3000               	movlw	0
  7501  0BF8  1803               	skipnc
  7502  0BF9  3001               	movlw	1
  7503                           
  7504  0BFA  1283               	bcf	status, 5	;RP0=0, select bank2
  7505  0BFB  1703               	bsf	status, 6	;RP1=1, select bank2
  7506  0BFC  080C               	movf	(268)^0100h,w	;volatile
  7507  0BFD  2BFE               	goto	l2307
  7508                           	
  7509  0BFE                     l4908:	
  7510                           	line	12
  7511                           	
  7512  0BFE                     l2307:	
  7513  0BFE  0008               	return
  7514                           	opt stack 0
  7515                           GLOBAL	__end_of_eeprom_read
  7516  0BFF                     	__end_of_eeprom_read:
  7517 ;; =============== function _eeprom_read ends ============
  7518                           
  7519                           	signat	_eeprom_read,4217
  7520                           	global	_ar_i2c_initialize
  7521                           psect	text648,local,class=CODE,delta=2
  7522                           global __ptext648
  7523  0B10                     __ptext648:
  7524                           
  7525 ;; *************** function _ar_i2c_initialize *****************
  7526 ;; Defined at:
  7527 ;;		line 39 in file "../../Source file/i2c_ar1000.c"
  7528 ;; Parameters:    Size  Location     Type
  7529 ;;		None
  7530 ;; Auto vars:     Size  Location     Type
  7531 ;;		None
  7532 ;; Return value:  Size  Location     Type
  7533 ;;		None               void
  7534 ;; Registers used:
  7535 ;;		wreg
  7536 ;; Tracked objects:
  7537 ;;		On entry : 0/0
  7538 ;;		On exit  : 0/0
  7539 ;;		Unchanged: 0/0
  7540 ;; Data sizes:     COMMON   BANK0   BANK1   BANK3   BANK2
  7541 ;;      Params:         0       0       0       0       0
  7542 ;;      Locals:         0       0       0       0       0
  7543 ;;      Temps:          0       0       0       0       0
  7544 ;;      Totals:         0       0       0       0       0
  7545 ;;Total ram usage:        0 bytes
  7546 ;; Hardware stack levels used:    1
  7547 ;; This function calls:
  7548 ;;		Nothing
  7549 ;; This function is called by:
  7550 ;;		_main
  7551 ;; This function uses a non-reentrant model
  7552 ;;
  7553                           psect	text648
  7554                           	file	"../../Source file/i2c_ar1000.c"
  7555                           	line	39
  7556                           	global	__size_of_ar_i2c_initialize
  7557  0010                     	__size_of_ar_i2c_initialize	equ	__end_of_ar_i2c_initialize-_ar_i2c_initialize
  7558                           	
  7559  0B10                     _ar_i2c_initialize:	
  7560                           	opt	stack 7
  7561                           ; Regs used in _ar_i2c_initialize: [wreg]
  7562                           	line	41
  7563                           	
  7564  0B10                     l4888:	
  7565                           ;i2c_ar1000.c: 41: TRISC3 = 1;
  7566  0B10  1683               	bsf	status, 5	;RP0=1, select bank1
  7567  0B11  1303               	bcf	status, 6	;RP1=0, select bank1
  7568  0B12  1587               	bsf	(1083/8)^080h,(1083)&7
  7569                           	line	42
  7570                           ;i2c_ar1000.c: 42: TRISC4 = 1;
  7571  0B13  1607               	bsf	(1084/8)^080h,(1084)&7
  7572                           	line	46
  7573                           	
  7574  0B14                     l4890:	
  7575                           ;i2c_ar1000.c: 46: SSPADD = 12;
  7576  0B14  300C               	movlw	(0Ch)
  7577  0B15  0093               	movwf	(147)^080h	;volatile
  7578                           	line	49
  7579                           	
  7580  0B16                     l4892:	
  7581                           ;i2c_ar1000.c: 49: SSPM3 = 1;
  7582  0B16  1283               	bcf	status, 5	;RP0=0, select bank0
  7583  0B17  1303               	bcf	status, 6	;RP1=0, select bank0
  7584  0B18  1594               	bsf	(163/8),(163)&7
  7585                           	line	50
  7586                           	
  7587  0B19                     l4894:	
  7588                           ;i2c_ar1000.c: 50: SSPM2 = 0;
  7589  0B19  1114               	bcf	(162/8),(162)&7
  7590                           	line	51
  7591                           	
  7592  0B1A                     l4896:	
  7593                           ;i2c_ar1000.c: 51: SSPM1 = 0;
  7594  0B1A  1094               	bcf	(161/8),(161)&7
  7595                           	line	52
  7596                           	
  7597  0B1B                     l4898:	
  7598                           ;i2c_ar1000.c: 52: SSPM0 = 0;
  7599  0B1B  1014               	bcf	(160/8),(160)&7
  7600                           	line	55
  7601                           	
  7602  0B1C                     l4900:	
  7603                           ;i2c_ar1000.c: 55: WCOL = 0;
  7604  0B1C  1394               	bcf	(167/8),(167)&7
  7605                           	line	58
  7606                           	
  7607  0B1D                     l4902:	
  7608                           ;i2c_ar1000.c: 58: SSPOV = 0;
  7609  0B1D  1314               	bcf	(166/8),(166)&7
  7610                           	line	61
  7611                           	
  7612  0B1E                     l4904:	
  7613                           ;i2c_ar1000.c: 61: SSPEN = 1;
  7614  0B1E  1694               	bsf	(165/8),(165)&7
  7615                           	line	64
  7616                           	
  7617  0B1F                     l1600:	
  7618  0B1F  0008               	return
  7619                           	opt stack 0
  7620                           GLOBAL	__end_of_ar_i2c_initialize
  7621  0B20                     	__end_of_ar_i2c_initialize:
  7622 ;; =============== function _ar_i2c_initialize ends ============
  7623                           
  7624                           	signat	_ar_i2c_initialize,88
  7625                           	global	_delay
  7626                           psect	text649,local,class=CODE,delta=2
  7627                           global __ptext649
  7628  002B                     __ptext649:
  7629                           
  7630 ;; *************** function _delay *****************
  7631 ;; Defined at:
  7632 ;;		line 462 in file "../../Source file/PR31_final.c"
  7633 ;; Parameters:    Size  Location     Type
  7634 ;;  data            4    0[COMMON] unsigned long 
  7635 ;; Auto vars:     Size  Location     Type
  7636 ;;		None
  7637 ;; Return value:  Size  Location     Type
  7638 ;;		None               void
  7639 ;; Registers used:
  7640 ;;		wreg
  7641 ;; Tracked objects:
  7642 ;;		On entry : 0/0
  7643 ;;		On exit  : 0/0
  7644 ;;		Unchanged: 0/0
  7645 ;; Data sizes:     COMMON   BANK0   BANK1   BANK3   BANK2
  7646 ;;      Params:         4       0       0       0       0
  7647 ;;      Locals:         0       0       0       0       0
  7648 ;;      Temps:          4       0       0       0       0
  7649 ;;      Totals:         8       0       0       0       0
  7650 ;;Total ram usage:        8 bytes
  7651 ;; Hardware stack levels used:    1
  7652 ;; This function calls:
  7653 ;;		Nothing
  7654 ;; This function is called by:
  7655 ;;		_main
  7656 ;;		_adjust_channel
  7657 ;;		_decrease_chan
  7658 ;;		_increase_chan
  7659 ;;		_send_dec
  7660 ;;		_adjust_vol
  7661 ;;		_ar1000_init
  7662 ;;		_setAR1000
  7663 ;;		_send_config
  7664 ;;		_send_char
  7665 ;;		_e_pulse
  7666 ;;		_lcd_clr
  7667 ;; This function uses a non-reentrant model
  7668 ;;
  7669                           psect	text649
  7670                           	file	"../../Source file/PR31_final.c"
  7671                           	line	462
  7672                           	global	__size_of_delay
  7673  0030                     	__size_of_delay	equ	__end_of_delay-_delay
  7674                           	
  7675  002B                     _delay:	
  7676                           	opt	stack 6
  7677                           ; Regs used in _delay: [wreg]
  7678                           	line	463
  7679                           	
  7680  002B                     l4882:	
  7681                           ;PR31_final.c: 463: for( ;data>0;data-=1);
  7682  002B  0873               	movf	(delay@data+3),w
  7683  002C  0472               	iorwf	(delay@data+2),w
  7684  002D  0471               	iorwf	(delay@data+1),w
  7685  002E  0470               	iorwf	(delay@data),w
  7686  002F  1D03               	skipz
  7687  0030  2832               	goto	u3181
  7688  0031  2833               	goto	u3180
  7689  0032                     u3181:
  7690  0032  2835               	goto	l4886
  7691  0033                     u3180:
  7692  0033  285A               	goto	l856
  7693                           	
  7694  0034                     l4884:	
  7695  0034  285A               	goto	l856
  7696                           	
  7697  0035                     l854:	
  7698                           	
  7699  0035                     l4886:	
  7700  0035  3001               	movlw	01h
  7701  0036  00F4               	movwf	((??_delay+0)+0)
  7702  0037  3000               	movlw	0
  7703  0038  00F5               	movwf	((??_delay+0)+0+1)
  7704  0039  3000               	movlw	0
  7705  003A  00F6               	movwf	((??_delay+0)+0+2)
  7706  003B  3000               	movlw	0
  7707  003C  00F7               	movwf	((??_delay+0)+0+3)
  7708  003D  0874               	movf	0+(??_delay+0)+0,w
  7709  003E  02F0               	subwf	(delay@data),f
  7710  003F  0875               	movf	1+(??_delay+0)+0,w
  7711  0040  1C03               	skipc
  7712  0041  0F75               	incfsz	1+(??_delay+0)+0,w
  7713  0042  2844               	goto	u3195
  7714  0043  2845               	goto	u3196
  7715  0044                     u3195:
  7716  0044  02F1               	subwf	(delay@data+1),f
  7717  0045                     u3196:
  7718  0045  0876               	movf	2+(??_delay+0)+0,w
  7719  0046  1C03               	skipc
  7720  0047  0F76               	incfsz	2+(??_delay+0)+0,w
  7721  0048  284A               	goto	u3197
  7722  0049  284B               	goto	u3198
  7723  004A                     u3197:
  7724  004A  02F2               	subwf	(delay@data+2),f
  7725  004B                     u3198:
  7726  004B  0877               	movf	3+(??_delay+0)+0,w
  7727  004C  1C03               	skipc
  7728  004D  0F77               	incfsz	3+(??_delay+0)+0,w
  7729  004E  2850               	goto	u3199
  7730  004F  2851               	goto	u3190
  7731  0050                     u3199:
  7732  0050  02F3               	subwf	(delay@data+3),f
  7733  0051                     u3190:
  7734                           
  7735  0051  0873               	movf	(delay@data+3),w
  7736  0052  0472               	iorwf	(delay@data+2),w
  7737  0053  0471               	iorwf	(delay@data+1),w
  7738  0054  0470               	iorwf	(delay@data),w
  7739  0055  1D03               	skipz
  7740  0056  2858               	goto	u3201
  7741  0057  2859               	goto	u3200
  7742  0058                     u3201:
  7743  0058  2835               	goto	l4886
  7744  0059                     u3200:
  7745  0059  285A               	goto	l856
  7746                           	
  7747  005A                     l855:	
  7748                           	line	464
  7749                           	
  7750  005A                     l856:	
  7751  005A  0008               	return
  7752                           	opt stack 0
  7753                           GLOBAL	__end_of_delay
  7754  005B                     	__end_of_delay:
  7755 ;; =============== function _delay ends ============
  7756                           
  7757                           	signat	_delay,4216
  7758                           psect	text650,local,class=CODE,delta=2
  7759                           global __ptext650
  7760  0000                     __ptext650:
  7761                           	global	btemp
  7762  007E                     	btemp set 07Eh
  7763                           
  7764                           	DABS	1,126,2	;btemp
  7765                           	global	wtemp0
  7766  007E                     	wtemp0 set btemp


HI-TECH Software PICC Macro Assembler V9.83 build 10920 
Symbol Table                                                                                   Wed Jul 22 16:16:15 2015

                            _i 0067                              _m 0068                              pc 0002  
                           _BF 04A0                             _RD 0C60                             _WR 0C61  
                           _v1 00A0                             _v2 004C                             fsr 0004  
            setAR1000@freq_kHz 0029                            l800 066A                            l801 066A  
                          l900 0C8B                            l820 0106                            l812 07B8  
                          l804 0E96                            l901 0C7A                            l821 01A1  
                          l813 07F2                            l805 0ED2                            l902 0C98  
                          l830 0166                            l822 0133                            l814 07FF  
                          l903 0C98                            l831 016B                            l823 015E  
                          l912 0BDA                            l840 0F8D                            l832 017A  
                          l824 0139                            l808 0DB2                            l760 03B0  
                          l913 0BDA                            l841 0FC0                            l817 0105  
                          l833 0196                            l825 0139                            l809 0DEE  
                          l761 03B0                            l914 0BDF                            l906 0C09  
                          l842 0FF6                            l850 027D                            l834 01B0  
                          l826 013E                            l762 03B5                            l915 0BDF  
                          l907 0C09                            l843 0FD0                            l851 02C1  
                          l835 01A8                            l827 014A                            l763 03E9  
                          l755 0363                            l908 0C0E                            l844 0FFF  
                          l836 01AF                            l828 018E                            l772 0D33  
                          l780 053C                            l764 03C8                            l756 03A8  
                          l909 0C1E                            l845 0FFF                            l837 01B0  
                          l829 0166                            l773 0D86                            l781 0551  
                          l765 03C8                            l757 039B                            l854 0035  
                          l862 0B8A                            l870 0BC1                            l790 0624  
                          l782 05AA                            l766 03CD                            l758 03A8  
                          l855 005A                            l791 060D                            l783 0590  
                          l767 03EA                            l759 03C0                            l856 005A  
                          l848 0274                            l880 002A                            l792 060D  
                          l784 056D                            l776 051E                            l768 03EB  
                          l849 024E                            l865 0C3F                            l881 002A  
                          l873 0BA4                            l793 0614                            l785 0582  
                          l777 0564                            l769 03EB                            l890 0B0F  
                          l794 0639                            l786 0597                            l778 054A  
                          l859 0B71                            l795 0668                            l787 063F  
                          l779 0527                            l884 0B58                            l876 0018  
                          l868 0BB4                            l796 0647                            l788 0632  
                          l877 0007                            l869 0BC1                            l797 0647  
                          l789 05B3                            l798 064C                            l887 0B06  
                          l879 0029                            l799 0669                            l888 0B06  
                          l889 0B0D                            _GIE 005F                            _RB0 0030  
                          _RB1 0031                            _RB2 0032                            _RB3 0033  
                          _RB4 0034                            _RB5 0035                            _PEN 048A  
                          _SEN 0488                            _STC 0065                            _R_W 04A2  
                          fsr0 0004                            _vol 0069                            indf 0000  
              send_config@data 0078                           l1600 0B1F                           l2305 0BE1  
                         l2306 0BE9                           l1610 040F                           l2307 0BFE  
                         l1611 040F                           l1603 03F9                           l1620 042E  
                         l1612 0414                           l1604 03F9                           l1621 0434  
                         l1613 051D                           l1605 03FE                           l1630 0450  
                         l1622 0434                           l1614 041D                           l1606 0403  
                         l3150 0D22                           l1631 0492                           l1623 0439  
                         l1615 041D                           l1607 0403                           l3143 0D19  
                         l1640 04A8                           l5000 049F                           l1632 0460  
                         l1624 043F                           l1616 0423                           l1608 0409  
                         l3144 0CE1                           l1641 04E6                           l1633 0492  
                         l1625 043F                           l1617 0432                           l1609 0418  
                         l3145 0CD3                           l1650 04FC                           l5010 04E2  
                         l1642 04B4                           l5002 04A2                           l1634 0489  
                         l1626 0445                           l1618 0429                           l3146 0CE6  
                         l3162 0E53                           l1651 04FE                           l1643 04E6  
                         l1635 0489                           l1627 0454                           l1619 0429  
                         l3147 0CE7                           l3163 0E11                           l1660 0EFB  
                         l5020 0503                           l1652 04FE                           l5012 04E5  
                         l1644 04DD                           l5004 04A9                           l1636 048E  
                         l1628 044B                           l3148 0D08                           l3164 0E03  
                         l5100 0FB2                           l1661 0F01                           l1653 0503  
                         l1645 04DD                           l1637 0499                           l1629 044B  
                         l3149 0D18                           l3165 0E16                           l1670 0F24  
                         l1662 0F0D                           l5022 050F                           l5014 04ED  
                         l1646 04E2                           l5006 04B4                           l1638 04A4  
                         l5030 0CCF                           l3166 0E17                           l5110 0FF6  
                         l5102 0FC0                           l1671 0F1E                           l1663 0F07  
                         l1647 04ED                           l1639 04A4                           l3167 0E42  
                         l1680 0F3A                           l1672 0F1E                           l1664 0F07  
                         l1656 0EF1                           l5024 0516                           l1648 04F8  
                         l5016 04F3                           l5008 04D9                           l5040 0D08  
                         l5032 0CD3                           l3168 0E52                           l5104 0FD0  
                         l5112 0C6D                           l5120 005C                           l5200 0018  
                         l1681 0F40                           l1673 0F23                           l1665 0F0C  
                         l1657 0EF1                           l1649 04F8                           l3169 0E5C  
                         l1690 0F59                           l1682 0F40                           l1674 0F29  
                         l1666 0F59                           l1658 0EF6                           l5026 051D  
                         l5018 04F6                           l5042 0D11                           l5034 0CE1  
                         l5050 0DFF                           l5106 0FE4                           l5114 0C7A  
                         l5130 00B2                           l5122 0062                           l5202 001C  
                         l5210 0BB9                           l1683 0F46                           l1675 0F29  
                         l1667 0F12                           l1659 0EFB                           l1684 0F52  
                         l1676 0F2F                           l1668 0F12                           l5036 0CE7  
                         l5044 0D19                           l5028 0CC7                           l5060 0E32  
                         l5052 0E03                           l5108 0FE8                           l5116 0C86  
                         l5132 00DC                           l5124 0065                           l5140 01BC  
                         l5204 0BA6                           l5212 0B8B                           l5220 011C  
                         l5300 0D4A                           l1685 0F4C                           l1677 0F3B  
                         l1669 0F18                           l1686 0F4C                           l1678 0F35  
                         l5046 0D22                           l5038 0CF9                           l5070 0E5C  
                         l5062 0E40                           l5054 0E11                           l5118 0C8B  
                         l5134 00F0                           l5126 0074                           l5150 0202  
                         l5142 01CB                           l5206 0BAC                           l5230 0146  
                         l5222 0125                           l5214 0109                           l5302 0D53  
                         l5310 0E5D                           l1687 0F51                           l1679 0F35  
                         l1688 0F54                           l5064 0E42                           l5056 0E17  
                         l5048 0DEF                           l5080 0B4D                           l5072 0B44  
                         l5128 009E                           l5160 0266                           l5152 0216  
                         l5144 01E5                           l5136 01B1                           l5208 0BB4  
                         l5240 016B                           l5232 014A                           l5224 0138  
                         l5216 010F                           l5304 0D5C                           l5320 0EAD  
                         l5312 0E8D                           l5400 063F                           l1689 0F54  
                         l5066 0E4B                           l5058 0E20                           l5082 0B50  
                         l5074 0B47                           l5090 0F78                           l5170 02B3  
                         l5162 0274                           l5154 0236                           l5146 01EB  
                         l5138 01B9                           l5242 016F                           l5250 018E  
                         l5234 0150                           l5226 013E                           l5218 0115  
                         l5306 0D6C                           l5322 0EB6                           l5314 0E96  
                         l5330 0DB2                           l5410 065E                           l5402 0646  
                         l5068 0E53                           l5084 0B51                           l5076 0B49  
                         l5092 0F7E                           l5164 027D                           l5156 024E  
                         l5148 01FF                           l5172 0C1F                           l5180 0B5D  
                         l5252 0195                           l5244 0175                           l5228 0140  
                         l5236 015E                           l5260 066B                           l5308 0D77  
                         l5324 0EC5                           l5316 0EA1                           l5340 0DE1  
                         l5332 0DBD                           l5412 0662                           l5404 064C  
                         l5420 02D5                           l5086 0B52                           l5078 0B4C  
                         l5094 0F8C                           l5166 0283                           l5158 0262  
                         l5174 0C22                           l5182 0B5F                           l5190 0B78  
                         l5254 0196                           l5246 017A                           l5238 0165  
                         l5270 07A3                           l5262 0756                           l5318 0EA7  
                         l5334 0DC3                           l5326 0D87                           l5406 0652  
                         l5350 054A                           l5342 0524                           l5430 0308  
                         l5422 02D6                           l5414 02C2                           l5096 0F8D  
                         l5088 0F5A                           l5168 0292                           l5176 0C2F  
                         l5184 0B6C                           l5192 0B85                           l5248 0180  
                         l5256 01A1                           l5280 07E0                           l5272 07A9  
                         l5264 075E                           l5336 0DC9                           l5328 0DA9  
                         l5408 0658                           l5360 056D                           l5352 0551  
                         l5344 0527                           l5440 0326                           l5432 030E  
                         l5424 02D9                           l5416 02CF                           l5098 0FAA  
                         l5178 0B5A                           l5186 0B73                           l5194 0005  
                         l5258 01A8                           l5282 07E8                           l5274 07AD  
                         l5266 0797                           l5290 0D2F                           l5338 0DD2  
                         l5370 059C                           l5362 057C                           l5354 0556  
                         l5346 0536                           l5450 0356                           l5442 0333  
                         l5434 0314                           l5426 02DA                           l5418 02D3  
                         l4900 0B1C                           l5188 0B76                           l5196 0007  
                         l5276 07B7                           l5284 07F2                           l5268 079D  
                         l5292 0D33                           l5380 05D3                           l5364 0582  
                         l5372 05AA                           l5348 053C                           l5356 0564  
                         l5460 0389                           l5452 035B                           l5444 0344  
                         l5436 031A                           l5428 0303                           l4902 0B1D  
                         l4910 0BC3                           l5198 0013                           l5278 07B8  
                         l5294 0D38                           l5286 0D23                           l5390 0614  
                         l5382 05D9                           l5374 05B0                           l5366 0590  
                         l5358 056A                           l5470 03C0                           l5462 039B  
                         l5454 0362                           l5446 034A                           l5438 0320  
                         l4904 0B1E                           l4912 0BCF                           l4920 0B05  
                         l5296 0D3E                           l5288 0D29                           l5392 0616  
                         l5384 05F1                           l5376 05B3                           l5368 0597  
                         l5480 03DF                           l5472 03C7                           l5464 03A1  
                         l5456 0363                           l5448 0350                           l4906 0BE9  
                         l4914 0BD2                           l4922 0B0D                           l4930 0C0E  
                         l5298 0D44                           l5386 05F7                           l5378 05C2  
                         l5394 0624                           l5482 03E3                           l5474 03CD  
                         l5466 03AF                           l5458 0377                           l4908 0BFE  
                         l4916 0BD7                           l4932 0C17                           l4924 0C00  
                         l4940 0EED                           l5388 05FD                           l5396 0632  
                         l5476 03D3                           l5468 03B5                           l4918 0BD8  
                         l4934 0C1E                           l4926 0C04                           l4950 0F24  
                         l4942 0EF6                           l5398 0639                           l5478 03D9  
                         l4928 0C07                           l4952 0F33                           l4944 0F05  
                         l4936 0ED4                           l4960 03F3                           l4882 002B  
                         l4890 0B14                           l4954 0F3B                           l4946 0F0D  
                         l4938 0EE9                           l4970 0417                           l4962 03F5  
                         l4884 0034                           l4892 0B16                           l4956 0F4A  
                         l4948 0F1C                           l4980 0439                           l4972 0418  
                         l4964 03FE                           l4886 0035                           l4894 0B19  
                         l4990 0460                           l4982 0449                           l4974 0427  
                         l4966 040D                           l4958 03F1                           l4896 0B1A  
                         l4888 0B10                           l4992 0485                           l4984 0450  
                         l4976 042E                           l4968 0414                           l4898 0B1B  
                         l4994 048E                           l4986 0453                           l4978 0431  
                         l4996 0491                           l4988 0455                           l4998 0499  
                         STR_1 0863                           STR_2 080D                           STR_3 0806  
                         STR_4 082C                           STR_5 082C                           STR_6 083D  
                         STR_7 083D                           STR_8 081B                           STR_9 081B  
                         _BRGH 04C2                           _CREN 00C4                           u3200 0059  
                         u3201 0058                           u3210 0BE8                           u4010 07F1  
                         u3211 0BE7                           u4011 07F0                           u3220 0BDE  
                         u3300 0F18                           u4020 0D2F                           u4100 057C  
                         u3221 0BDD                           u3301 0F17                           u4005 07D0  
                         u4021 0D2E                           u4101 057B                           u3230 0B0C  
                         u3310 0F1C                           u4030 0E7B                           u4110 0596  
                         u3231 0B0B                           u3311 0F1B                           u4111 0595  
                         u3240 0C0D                           u3320 0F22                           u3400 03FD  
                         u4040 0E8D                           u4120 05B0                           u4200 03A7  
                         u3241 0C0C                           u3321 0F21                           u3401 03FC  
                         u4041 0E8C                           u4121 05AF                           u4201 03A6  
                         u3330 0F2F                           u3250 0EE2                           u3410 0409  
                         u4050 0DA9                           u4130 05C2                           u4210 03AE  
                         u3331 0F2E                           u3411 0408                           u4035 0E6E  
                         u4051 0DA8                           u4131 05C1                           u4211 03AD  
                         u3180 0033                           u3340 0F33                           u3260 0EF5  
                         u3500 044F                           u3420 040D                           u4036 0E6F  
                         u4140 0613                           u4060 0524                           u4220 03B4  
                         u3181 0032                           u3341 0F32                           u3261 0EF4  
                         u3501 044E                           u3421 040C                           u4045 0E89  
                         u4037 0E74                           u4141 0612                           u4061 0523  
                         u4221 03B3                           u3190 0051                           u3350 0F39  
                         u3270 0F01                           u3510 047D                           u3430 0413  
                         u4038 0E75                           u4150 0638                           u4070 0536  
                         u4230 03C6                           u3351 0F38                           u3271 0F00  
                         u3255 0EDD                           u3431 0412                           u4039 0E7A  
                         u4055 0DA5                           u4151 0637                           u4071 0535  
                         u4231 03C5                           u3360 0F46                           u3280 0F05  
                         u3600 04FC                           u3520 0485                           u3440 0423  
                         u4160 0645                           u4080 0550                           u4240 03CC  
                         u3361 0F45                           u3281 0F04                           u3601 04FB  
                         u3521 0484                           u3441 0422                           u4161 0644  
                         u4081 054F                           u4241 03CB                           u3370 0F4A  
                         u3290 0F0B                           u3610 0502                           u3530 048D  
                         u3450 0427                           u4170 064B                           u4090 056A  
                         u3195 0044                           u3371 0F49                           u3291 0F0A  
                         u3611 0501                           u3531 048C                           u3515 0470  
                         u3451 0426                           u4171 064A                           u4091 0569  
                         u3196 0045                           u3380 0F50                           u3540 0498  
                         u3516 0471                           u3460 042D                           u3620 0CCF  
                         u3700 0E15                           u4180 0361                           u3197 004A  
                         u3381 0F4F                           u3541 0497                           u3517 0476  
                         u3461 042C                           u3621 0CCE                           u3701 0E14  
                         u4181 0360                           u3198 004B                           u3390 0F58  
                         u3550 04A8                           u3518 0477                           u3470 0438  
                         u4190 0389                           u3199 0050                           u3391 0F57  
                         u3551 04A7                           u3519 047C                           u3471 0437  
                         u4191 0388                           u3560 04D1                           u3480 0445  
                         u3640 0CE5                           u3720 0E32                           u3481 0444  
                         u3641 0CE4                           u3721 0E31                           u3570 04D9  
                         u3490 0449                           u3650 0CF9                           u3810 027C  
                         u3571 04D8                           u3491 0448                           u3651 0CF8  
                         u3635 0CD5                           u3715 0E19                           u3811 027B  
                         u4195 0385                           u3580 04E1                           u3740 0E51  
                         u3900 016A                           u3581 04E0                           u3565 04C4  
                         u3741 0E50                           u3725 0E2E                           u3805 00BD  
                         u3901 0169                           u3590 04EC                           u3566 04C5  
                         u3670 0D17                           u3750 0F8B                           u3830 001C  
                         u3910 0175                           u3591 04EB                           u3567 04CA  
                         u3671 0D16                           u3655 0CF5                           u3735 0E43  
                         u3751 0F8A                           u3911 0174                           u3568 04CB  
                         u3680 0DFF                           u3760 0FBF                           u3840 0028  
                         u3920 0194                           u3569 04D0                           u3665 0D09  
                         u3681 0DFE                           u3761 0FBE                           u3825 02A5  
                         u3841 0027                           u3921 0193                           u3770 0FFE  
                         u3850 0BAC                           u3930 01A7                           u3771 0FFD  
                         u3755 0F87                           u3851 0BAB                           u3780 0C97  
                         u3860 0137                           u3940 0693                           _RCEN 048B  
                         _RCIF 0065                           u3765 0FBB                           u3781 0C96  
                         u3861 0136                           u3941 0694                           u3870 013D  
                         u3950 06EB                           u3942 0699                           u3695 0E05  
                         u3871 013C                           u3951 06EC                           u3943 069A  
                         u3880 0146                           u3960 0743                           u3952 06F1  
                         u3881 0145                           u3961 0744                           u3953 06F2  
                         u3890 0164                           u3970 0784                           u3962 0749  
                         u3795 007F                           u3891 0163                           u3971 0785  
                         u3963 074A                           u3980 07B6                           u3972 078A  
                         u3981 07B5                           u3973 078B                           _OERR 00C1  
                         u3995 07BB                           _WCOL 00A7                           _SPEN 00C7  
                         _RSEN 0489                           _WREN 0C62                           _TXEN 04C5  
                         _TXIF 0064                           _main 02C2                           btemp 007E  
                 lcd_goto@data 007A                  ??_ar1000_init 0029                           start 0000  
  ar_i2c_read@ar_slave_address 0024           __size_of_ar_i2c_read 0130                   ?_eprom_write 0070  
        __end_of_decrease_chan 0ED3                 _adjust_channel 051E                          ?_main 0070  
                        _ACKEN 048C                          _ACKDT 048D                          _EEADR 010D  
                        STR_10 0852                          STR_11 0849                          STR_12 0852  
                        STR_20 086A                          STR_13 0852                          STR_21 086A  
                        STR_14 085B                          STR_15 085B                          STR_16 081B  
                        STR_17 081B                          STR_18 0852                          STR_19 0852  
                        _CARRY 0018                          _EEPGD 0C67                __end_of___lldiv 0E5D  
              __end_of___llmod 0D23                          _RCREG 001A                          _SPBRG 0099  
                        _PORTA 0005                          _PORTB 0006                          _PORTD 0008  
                        _SSPM0 00A0                          _SSPM1 00A1                          _SSPM2 00A2  
                        _SSPM3 00A3                          _TRISA 0085                          _TRISB 0086  
                        _TRISD 0088                          _SSPEN 00A5                          _SSPOV 00A6  
                        _TXREG 0019                __end_of_e_pulse 0C40         __size_of_increase_chan 0068  
              __end_of_lcd_clr 0BA5                          _delay 002B                          pclath 000A  
              __end_of_set_vol 0106                __end_of_uart_tx 0B10                          status 0003  
                        wtemp0 007E         ar_i2c_read@ar_register 0070                   __end_of_main 03EE  
       __end_of_adjust_channel 066B            __end_of_ar1000_init 1000       adjust_channel@press_1370 0044  
     adjust_channel@press_1371 0046                         ??_main 0048          __size_of_ar_i2c_write 0087  
                       ?_delay 0070                   ?_send_config 0070         eprom_write@channel_adr 0072  
             ___llmod@dividend 0074                         _EEDATA 010C                         _EECON1 018C  
                       _EECON2 018D                   ar1000_init@i 002D                   ?_send_string 0070  
                       _SSPADD 0093                         _TRISC3 043B                         _TRISC4 043C  
                       _TRISC6 043E                         _TRISC7 043F                         _SSPBUF 0013  
                _increase_chan 0D87           __size_of_eeprom_read 001F               __end_of_lcd_goto 0BC2  
                    ??___lldiv 0078                      ??___llmod 0078                ?_adjust_channel 0070  
                 _ar_i2c_write 0ED3                      ??_e_pulse 0078                      ??_lcd_clr 0079  
             __end_of_send_dec 0800                      ??_set_vol 0020                      ??_uart_tx 0070  
              eeprom_read@addr 0071                    _ar1000_init 0F5A                 ?_increase_chan 0070  
      ar_i2c_write@ar_register 0070                 __pcstackCOMMON 0070                   __pidataBANK0 0B20  
                 __pidataBANK1 0C99                  __end_of_delay 005B           __size_of_eprom_write 001E  
                      ??_delay 0074                     __pbssBANK0 005D             __size_of_setAR1000 0111  
                   _adjust_vol 0106                     __pmaintext 02C2             __size_of_send_char 0019  
                      _ACKSTAT 048E                _register_values 00AA             __size_of_uart_init 0015  
                    ?_lcd_goto 0070        __size_of_switch_channel 0064           __size_of_send_config 0019  
              ??_increase_chan 007E           __size_of_send_string 0027                      ?_send_dec 0020  
                ??_ar_i2c_read 0072                     _eprom_read 0BFF                        ___lldiv 0DEF  
                      ___llmod 0CC7                        _e_pulse 0C1F              __end_of_setAR1000 02C2  
                      _lcd_clr 0B8B                        _set_vol 005B                        _uart_tx 0B04  
        adjust_vol@vol_default 0026                     ??_lcd_goto 0079           end_of_initialization 0C68  
            __end_of_send_char 0B8B   ar_i2c_read@ar_received_byte1 0022   ar_i2c_read@ar_received_byte2 0023  
                      init_ram 0B35                    ?_adjust_vol 0070                  ?_uart_sendstr 0070  
       __size_of_decrease_chan 0076              __end_of_uart_init 0B59                ___lldiv@divisor 0070  
                   ??_send_dec 0024               ??_adjust_channel 007E                ___lldiv@counter 007D  
                send_char@data 0078            __end_of_ar_i2c_read 051E                adjust_vol@check 0025  
          ar_i2c_write@ar_data 0071                 ??_uart_sendstr 0071                  ??_eeprom_read 0070  
                 ?_ar1000_init 0070                    ?_eprom_read 0070                  _decrease_chan 0E5D  
          __size_of_adjust_vol 00AB            start_initialization 0C40          eprom_read@channel_adr 0074  
               _switch_channel 0D23                ___llmod@divisor 0070                ___llmod@counter 0079  
               _currentChannel 005D                    _ar_i2c_read 03EE            __end_of_eeprom_read 0BFF  
                  __pdataBANK0 004C                    __pdataBANK1 00A0                  ??_eprom_write 0072  
               ?_decrease_chan 0070         __end_of_switch_channel 0D87                  __pcstackBANK0 0020  
          __size_of_eprom_read 0020              __size_of_lcd_goto 001D            eprom_write@fm_value 0070  
            __size_of_send_dec 0195                      __ptext630 0BA5                      __ptext631 0004  
                    __ptext623 051E                      __ptext640 0DEF                      __ptext632 0B72  
                    __ptext624 0D87                      __ptext641 0CC7                      __ptext633 0B59  
                    __ptext625 0E5D                      __ptext650 0000                      __ptext642 03EE  
                    __ptext634 0C1F                      __ptext626 0D23                      __ptext643 0ED3  
                    __ptext635 01B1                      __ptext627 066B                      __ptext644 0BFF  
                    __ptext636 005B                      __ptext628 0106                      __ptext645 0B04  
                    __ptext637 0C6C                      __ptext629 0B8B                      __ptext646 0BC2  
                    __ptext638 0F5A                      __ptext647 0BE0                      __ptext639 0B44  
                    __ptext648 0B10                      __ptext649 002B                       ?___lldiv 0070  
                     ?___llmod 0070                     send_dec@no 0028                       ?_e_pulse 0070  
                    __pstrings 0800                       ?_lcd_clr 0070           __end_of_uart_sendstr 0C99  
                    _setAR1000 01B1                ?_switch_channel 0070            __end_of_eprom_write 0BE0  
                     ?_set_vol 0070                       ?_uart_tx 0070                  ??_send_config 0078  
               __size_of_delay 0030             eprom_read@fm_value 0072                      delay@data 0070  
                ??_send_string 0079                   ??_adjust_vol 0024            adjust_channel@press 0042  
  ar_i2c_read@ar_received_byte 0020                    _eeprom_read 0BE0                      _send_char 0B72  
                   set_vol@key 007D          __end_of_increase_chan 0DEF                   send_dec@data 0020  
         __size_of_ar1000_init 00A6                      _uart_init 0B44                      _prog_chan 0056  
              ??_decrease_chan 003E                  ?_ar_i2c_write 0070                    __stringbase 0805  
           __end_of_adjust_vol 01B1                     ?_setAR1000 0029              _ar_i2c_initialize 0B10  
ar_i2c_write@ar_transmit_byte1 007B  ar_i2c_write@ar_transmit_byte2 007C            __end_of_send_config 0B72  
           ?_ar_i2c_initialize 0070   ar_i2c_write@ar_slave_address 007A                     ?_send_char 0070  
                 send_string@i 007A                   send_string@s 007B            __end_of_send_string 002B  
                    init_fetch 0B31            ??_ar_i2c_initialize 0070                   ??_eprom_read 0072  
                   ?_uart_init 0070                 ??_ar_i2c_write 0075               __size_of___lldiv 006E  
             __size_of___llmod 005C                    _eprom_write 0BC2               __size_of_e_pulse 0021  
             __size_of_lcd_clr 001A               __size_of_set_vol 00AB      __end_of_ar_i2c_initialize 0B20  
             __size_of_uart_tx 000C                      send_dec@i 003C                       _lcd_goto 0BA5  
                     _freq_kHz 0061             __end_of_eprom_read 0C1F                  __size_of_main 012C  
                     _send_dec 066B                   ?_ar_i2c_read 0070          __size_of_uart_sendstr 002D  
      __size_of_adjust_channel 014D                    ??_setAR1000 002B                    _send_config 0B59  
                  _send_string 0004               ___lldiv@dividend 0074                   _uart_sendstr 0C6C  
                  ??_send_char 0078               ar_i2c_read@count 0025                      stringcode 0800  
               uart_tx@uc_data 0070                    ??_uart_init 0071               ??_switch_channel 003E  
             ___lldiv@quotient 0079                       stringdir 0800                       stringtab 0800  
                uart_sendstr@s 0072     __size_of_ar_i2c_initialize 0010           __end_of_ar_i2c_write 0F5A  
                 ?_eeprom_read 0070  
