

HI-TECH Software PIC LITE Macro Assembler V9.80 build 6738 
                                                                                               Wed Jun 20 23:18:14 2012

HI-TECH Software Omniscient Code Generator (Lite mode) build 6738
     1  0000                     opt subtitle "HI-TECH Software Omniscient Code Generator (Lite mode) build 6738"
     2                           
     3                           opt pagewidth 120
     4                           
     5                           	opt lm
     6                           
     7                           	processor	16F877A
     8                           clrc	macro
     9                           	bcf	3,0
    10  0000                     	endm
    11                           clrz	macro
    12                           	bcf	3,2
    13  0000                     	endm
    14                           setc	macro
    15                           	bsf	3,0
    16  0000                     	endm
    17                           setz	macro
    18                           	bsf	3,2
    19  0000                     	endm
    20                           skipc	macro
    21                           	btfss	3,0
    22  0000                     	endm
    23                           skipz	macro
    24                           	btfss	3,2
    25  0000                     	endm
    26                           skipnc	macro
    27                           	btfsc	3,0
    28  0000                     	endm
    29                           skipnz	macro
    30                           	btfsc	3,2
    31  0000                     	endm
    32  0000                     indf	equ	0
    33  0000                     indf0	equ	0
    34  0002                     pc	equ	2
    35  0002                     pcl	equ	2
    36  0003                     status	equ	3
    37  0004                     fsr	equ	4
    38  0004                     fsr0	equ	4
    39  0001                     c	equ	1
    40  0000                     z	equ	0
    41  000A                     pclath	equ	10
    42                           # 22 "C:\Users\Phang\Desktop\9.80\PR 31\PR31_final.c"
    43                           	psect config,class=CONFIG,delta=2 ;#
    44                           # 22 "C:\Users\Phang\Desktop\9.80\PR 31\PR31_final.c"
    45  2007  3F32               	dw 0x3F32 ;#
    46                           	FNCALL	_main,_delay
    47                           	FNCALL	_main,_send_config
    48                           	FNCALL	_main,_uart_init
    49                           	FNCALL	_main,_ar_i2c_initialize
    50                           	FNCALL	_main,_ar1000_init
    51                           	FNCALL	_main,_send_string
    52                           	FNCALL	_main,_lcd_goto
    53                           	FNCALL	_main,_uart_sendstr
    54                           	FNCALL	_main,_set_vol
    55                           	FNCALL	_main,_lcd_clr
    56                           	FNCALL	_main,_eeprom_read
    57                           	FNCALL	_main,_eprom_write
    58                           	FNCALL	_main,_switch_channel
    59                           	FNCALL	_main,_adjust_channel
    60                           	FNCALL	_main,_adjust_vol
    61                           	FNCALL	_adjust_channel,_decrease_chan
    62                           	FNCALL	_adjust_channel,_delay
    63                           	FNCALL	_adjust_channel,_increase_chan
    64                           	FNCALL	_adjust_channel,_eprom_write
    65                           	FNCALL	_adjust_channel,_lcd_clr
    66                           	FNCALL	_adjust_channel,_send_string
    67                           	FNCALL	_adjust_channel,_uart_sendstr
    68                           	FNCALL	_adjust_channel,_send_char
    69                           	FNCALL	_adjust_channel,_uart_tx
    70                           	FNCALL	_adjust_channel,_send_dec
    71                           	FNCALL	_adjust_channel,_switch_channel
    72                           	FNCALL	_adjust_channel,_lcd_goto
    73                           	FNCALL	_adjust_channel,_adjust_vol
    74                           	FNCALL	_increase_chan,_setAR1000
    75                           	FNCALL	_increase_chan,_uart_tx
    76                           	FNCALL	_increase_chan,_uart_sendstr
    77                           	FNCALL	_increase_chan,_send_dec
    78                           	FNCALL	_increase_chan,_delay
    79                           	FNCALL	_decrease_chan,_setAR1000
    80                           	FNCALL	_decrease_chan,_uart_tx
    81                           	FNCALL	_decrease_chan,_uart_sendstr
    82                           	FNCALL	_decrease_chan,_send_dec
    83                           	FNCALL	_decrease_chan,_delay
    84                           	FNCALL	_switch_channel,_lcd_clr
    85                           	FNCALL	_switch_channel,_send_string
    86                           	FNCALL	_switch_channel,_uart_tx
    87                           	FNCALL	_switch_channel,_uart_sendstr
    88                           	FNCALL	_switch_channel,_send_char
    89                           	FNCALL	_switch_channel,_eprom_read
    90                           	FNCALL	_switch_channel,_setAR1000
    91                           	FNCALL	_switch_channel,_send_dec
    92                           	FNCALL	_send_dec,___lldiv
    93                           	FNCALL	_send_dec,___llmod
    94                           	FNCALL	_send_dec,_lcd_goto
    95                           	FNCALL	_send_dec,_send_string
    96                           	FNCALL	_send_dec,_uart_sendstr
    97                           	FNCALL	_send_dec,_send_char
    98                           	FNCALL	_send_dec,_uart_tx
    99                           	FNCALL	_send_dec,_delay
   100                           	FNCALL	_adjust_vol,_lcd_goto
   101                           	FNCALL	_adjust_vol,_send_char
   102                           	FNCALL	_adjust_vol,_uart_tx
   103                           	FNCALL	_adjust_vol,_delay
   104                           	FNCALL	_adjust_vol,_set_vol
   105                           	FNCALL	_lcd_clr,_send_config
   106                           	FNCALL	_lcd_clr,_delay
   107                           	FNCALL	_lcd_goto,_send_config
   108                           	FNCALL	_send_string,_send_char
   109                           	FNCALL	_send_char,_delay
   110                           	FNCALL	_send_char,_e_pulse
   111                           	FNCALL	_send_config,_delay
   112                           	FNCALL	_send_config,_e_pulse
   113                           	FNCALL	_e_pulse,_delay
   114                           	FNCALL	_setAR1000,_ar_i2c_write
   115                           	FNCALL	_setAR1000,_ar_i2c_read
   116                           	FNCALL	_setAR1000,_delay
   117                           	FNCALL	_set_vol,_ar_i2c_write
   118                           	FNCALL	_uart_sendstr,_uart_tx
   119                           	FNCALL	_ar1000_init,_delay
   120                           	FNCALL	_ar1000_init,_ar_i2c_write
   121                           	FNCALL	_ar1000_init,_ar_i2c_read
   122                           	FNCALL	_uart_init,_uart_tx
   123                           	FNROOT	_main
   124                           	global	_v2
   125                           	global	_prog_chan
   126                           	global	_v1
   127                           	global	_register_values
   128                           psect	idataBANK0,class=CODE,space=0,delta=2
   129                           global __pidataBANK0
   130  0B01                     __pidataBANK0:
   131                           	file	"C:\Users\Phang\Desktop\9.80\PR 31\PR31_final.c"
   132                           	line	81
   133                           
   134                           ;initializer for _v2
   135  0B01  3400               	retlw	0
   136  0B02  340F               	retlw	0Fh
   137  0B03  340D               	retlw	0Dh
   138  0B04  340E               	retlw	0Eh
   139  0B05  340F               	retlw	0Fh
   140  0B06  340E               	retlw	0Eh
   141  0B07  340F               	retlw	0Fh
   142  0B08  340F               	retlw	0Fh
   143  0B09  340F               	retlw	0Fh
   144  0B0A  340F               	retlw	0Fh
   145                           	line	56
   146                           
   147                           ;initializer for _prog_chan
   148  0B0B  3438               	retlw	038h
   149  0B0C  3484               	retlw	084h
   150  0B0D  34B2               	retlw	0B2h
   151  0B0E  34C8               	retlw	0C8h
   152  0B0F  34EE               	retlw	0EEh
   153  0B10  3415               	retlw	015h
   154  0B11  3435               	retlw	035h
   155                           psect	idataBANK1,class=CODE,space=0,delta=2
   156                           global __pidataBANK1
   157  0C94                     __pidataBANK1:
   158                           	line	83
   159                           
   160                           ;initializer for _v1
   161  0C94  3400               	retlw	0
   162  0C95  3407               	retlw	07h
   163  0C96  3406               	retlw	06h
   164  0C97  3406               	retlw	06h
   165  0C98  3406               	retlw	06h
   166  0C99  3403               	retlw	03h
   167  0C9A  3403               	retlw	03h
   168  0C9B  3402               	retlw	02h
   169  0C9C  3401               	retlw	01h
   170  0C9D  3400               	retlw	0
   171                           	line	59
   172                           
   173                           ;initializer for _register_values
   174  0C9E  34FF               	retlw	0FFh
   175  0C9F  34FF               	retlw	0FFh
   176                           
   177  0CA0  3415               	retlw	015h
   178  0CA1  345B               	retlw	05Bh
   179                           
   180  0CA2  34B9               	retlw	0B9h
   181  0CA3  34F4               	retlw	0F4h
   182                           
   183  0CA4  3412               	retlw	012h
   184  0CA5  3480               	retlw	080h
   185                           
   186  0CA6  3400               	retlw	0
   187  0CA7  3404               	retlw	04h
   188                           
   189  0CA8  34AA               	retlw	0AAh
   190  0CA9  3428               	retlw	028h
   191                           
   192  0CAA  3400               	retlw	0
   193  0CAB  3444               	retlw	044h
   194                           
   195  0CAC  34E7               	retlw	0E7h
   196  0CAD  341E               	retlw	01Eh
   197                           
   198  0CAE  3441               	retlw	041h
   199  0CAF  3471               	retlw	071h
   200                           
   201  0CB0  347D               	retlw	07Dh
   202  0CB1  3400               	retlw	0
   203                           
   204  0CB2  34C6               	retlw	0C6h
   205  0CB3  3482               	retlw	082h
   206                           
   207  0CB4  3455               	retlw	055h
   208  0CB5  344F               	retlw	04Fh
   209                           
   210  0CB6  340C               	retlw	0Ch
   211  0CB7  3497               	retlw	097h
   212                           
   213  0CB8  3445               	retlw	045h
   214  0CB9  34B8               	retlw	0B8h
   215                           
   216  0CBA  342D               	retlw	02Dh
   217  0CBB  34FC               	retlw	0FCh
   218                           
   219  0CBC  3497               	retlw	097h
   220  0CBD  3480               	retlw	080h
   221                           
   222  0CBE  34A1               	retlw	0A1h
   223  0CBF  3404               	retlw	04h
   224                           
   225  0CC0  346A               	retlw	06Ah
   226  0CC1  34DF               	retlw	0DFh
   227                           
   228                           	global	_currentChannel
   229                           	global	_freq_kHz
   230                           	global	_STC
   231                           	global	_i
   232                           	global	_m
   233                           	global	_vol
   234                           	global	_PORTA
   235  0005                     _PORTA	set	5
   236                           	global	_PORTB
   237  0006                     _PORTB	set	6
   238                           	global	_PORTD
   239  0008                     _PORTD	set	8
   240                           	global	_RCREG
   241  001A                     _RCREG	set	26
   242                           	global	_SSPBUF
   243  0013                     _SSPBUF	set	19
   244                           	global	_TXREG
   245  0019                     _TXREG	set	25
   246                           	global	_CREN
   247  00C4                     _CREN	set	196
   248                           	global	_OERR
   249  00C1                     _OERR	set	193
   250                           	global	_RB0
   251  0030                     _RB0	set	48
   252                           	global	_RB1
   253  0031                     _RB1	set	49
   254                           	global	_RB2
   255  0032                     _RB2	set	50
   256                           	global	_RB3
   257  0033                     _RB3	set	51
   258                           	global	_RB4
   259  0034                     _RB4	set	52
   260                           	global	_RB5
   261  0035                     _RB5	set	53
   262                           	global	_RCIF
   263  0065                     _RCIF	set	101
   264                           	global	_SPEN
   265  00C7                     _SPEN	set	199
   266                           	global	_SSPEN
   267  00A5                     _SSPEN	set	165
   268                           	global	_SSPM0
   269  00A0                     _SSPM0	set	160
   270                           	global	_SSPM1
   271  00A1                     _SSPM1	set	161
   272                           	global	_SSPM2
   273  00A2                     _SSPM2	set	162
   274                           	global	_SSPM3
   275  00A3                     _SSPM3	set	163
   276                           	global	_SSPOV
   277  00A6                     _SSPOV	set	166
   278                           	global	_TXIF
   279  0064                     _TXIF	set	100
   280                           	global	_WCOL
   281  00A7                     _WCOL	set	167
   282                           	global	_SPBRG
   283  0099                     _SPBRG	set	153
   284                           	global	_SSPADD
   285  0093                     _SSPADD	set	147
   286                           	global	_TRISA
   287  0085                     _TRISA	set	133
   288                           	global	_TRISB
   289  0086                     _TRISB	set	134
   290                           	global	_TRISD
   291  0088                     _TRISD	set	136
   292                           	global	_ACKDT
   293  048D                     _ACKDT	set	1165
   294                           	global	_ACKEN
   295  048C                     _ACKEN	set	1164
   296                           	global	_ACKSTAT
   297  048E                     _ACKSTAT	set	1166
   298                           	global	_BF
   299  04A0                     _BF	set	1184
   300                           	global	_BRGH
   301  04C2                     _BRGH	set	1218
   302                           	global	_PEN
   303  048A                     _PEN	set	1162
   304                           	global	_RCEN
   305  048B                     _RCEN	set	1163
   306                           	global	_RSEN
   307  0489                     _RSEN	set	1161
   308                           	global	_RW
   309  04A2                     _RW	set	1186
   310                           	global	_SEN
   311  0488                     _SEN	set	1160
   312                           	global	_TRISC3
   313  043B                     _TRISC3	set	1083
   314                           	global	_TRISC4
   315  043C                     _TRISC4	set	1084
   316                           	global	_TRISC6
   317  043E                     _TRISC6	set	1086
   318                           	global	_TRISC7
   319  043F                     _TRISC7	set	1087
   320                           	global	_TXEN
   321  04C5                     _TXEN	set	1221
   322                           	global	_EEADR
   323  010D                     _EEADR	set	269
   324                           	global	_EEDATA
   325  010C                     _EEDATA	set	268
   326                           	global	_EECON1
   327  018C                     _EECON1	set	396
   328                           	global	_EECON2
   329  018D                     _EECON2	set	397
   330                           	global	_EEPGD
   331  0C67                     _EEPGD	set	3175
   332                           	global	_RD
   333  0C60                     _RD	set	3168
   334                           	global	_WR
   335  0C61                     _WR	set	3169
   336                           	global	_WREN
   337  0C62                     _WREN	set	3170
   338                           psect	strings,class=STRING,delta=2
   339                           global __pstrings
   340  0800                     __pstrings:
   341                           ;	global	stringdir,stringtab,__stringbase
   342  0800                     stringtab:
   343                           ;	String table - string pointers are 1 byte each
   344  0800                     stringcode:stringdir:
      + 0800                     stringdir:	
   345  0800  3008               movlw high(stringdir)
   346  0801  008A               movwf pclath
   347  0802  0804               movf fsr,w
   348  0803  0A84               incf fsr
   349  0804  0782               	addwf pc
   350  0805                     __stringbase:
   351  0805  3400               	retlw	0
   352                           psect	strings
   353                           	
   354  0806                     STR_3:	
   355  0806  3450               	retlw	80	;'P'
   356  0807  3452               	retlw	82	;'R'
   357  0808  3433               	retlw	51	;'3'
   358  0809  3431               	retlw	49	;'1'
   359  080A  3420               	retlw	32	;' '
   360  080B  343D               	retlw	61	;'='
   361  080C  3420               	retlw	32	;' '
   362  080D  3444               	retlw	68	;'D'
   363  080E  3469               	retlw	105	;'i'
   364  080F  3467               	retlw	103	;'g'
   365  0810  3469               	retlw	105	;'i'
   366  0811  3474               	retlw	116	;'t'
   367  0812  3461               	retlw	97	;'a'
   368  0813  346C               	retlw	108	;'l'
   369  0814  3420               	retlw	32	;' '
   370  0815  3452               	retlw	82	;'R'
   371  0816  3461               	retlw	97	;'a'
   372  0817  3464               	retlw	100	;'d'
   373  0818  3469               	retlw	105	;'i'
   374  0819  346F               	retlw	111	;'o'
   375  081A  3400               	retlw	0
   376                           psect	strings
   377                           	
   378  081B                     STR_8:	
   379  081B  3476               	retlw	118	;'v'
   380  081C  346F               	retlw	111	;'o'
   381  081D  346C               	retlw	108	;'l'
   382  081E  3475               	retlw	117	;'u'
   383  081F  346D               	retlw	109	;'m'
   384  0820  3465               	retlw	101	;'e'
   385  0821  3420               	retlw	32	;' '
   386  0822  346C               	retlw	108	;'l'
   387  0823  3465               	retlw	101	;'e'
   388  0824  3476               	retlw	118	;'v'
   389  0825  3465               	retlw	101	;'e'
   390  0826  346C               	retlw	108	;'l'
   391  0827  343D               	retlw	61	;'='
   392  0828  3420               	retlw	32	;' '
   393  0829  3420               	retlw	32	;' '
   394  082A  3420               	retlw	32	;' '
   395  082B  3400               	retlw	0
   396                           psect	strings
   397                           	
   398  082C                     STR_4:	
   399  082C  3473               	retlw	115	;'s'
   400  082D  3477               	retlw	119	;'w'
   401  082E  3431               	retlw	49	;'1'
   402  082F  343D               	retlw	61	;'='
   403  0830  3463               	retlw	99	;'c'
   404  0831  3468               	retlw	104	;'h'
   405  0832  3461               	retlw	97	;'a'
   406  0833  346E               	retlw	110	;'n'
   407  0834  3420               	retlw	32	;' '
   408  0835  3473               	retlw	115	;'s'
   409  0836  3477               	retlw	119	;'w'
   410  0837  3432               	retlw	50	;'2'
   411  0838  343D               	retlw	61	;'='
   412  0839  3476               	retlw	118	;'v'
   413  083A  346F               	retlw	111	;'o'
   414  083B  346C               	retlw	108	;'l'
   415  083C  3400               	retlw	0
   416                           psect	strings
   417                           	
   418  083D                     STR_6:	
   419  083D  3473               	retlw	115	;'s'
   420  083E  3477               	retlw	119	;'w'
   421  083F  3431               	retlw	49	;'1'
   422  0840  3428               	retlw	40	;'('
   423  0841  3431               	retlw	49	;'1'
   424  0842  3473               	retlw	115	;'s'
   425  0843  3429               	retlw	41	;')'
   426  0844  343D               	retlw	61	;'='
   427  0845  3473               	retlw	115	;'s'
   428  0846  3465               	retlw	101	;'e'
   429  0847  3474               	retlw	116	;'t'
   430  0848  3400               	retlw	0
   431                           psect	strings
   432                           	
   433  0849                     STR_11:	
   434  0849  3443               	retlw	67	;'C'
   435  084A  3468               	retlw	104	;'h'
   436  084B  3461               	retlw	97	;'a'
   437  084C  346E               	retlw	110	;'n'
   438  084D  346E               	retlw	110	;'n'
   439  084E  3465               	retlw	101	;'e'
   440  084F  346C               	retlw	108	;'l'
   441  0850  3420               	retlw	32	;' '
   442  0851  3400               	retlw	0
   443                           psect	strings
   444                           	
   445  0852                     STR_10:	
   446  0852  3463               	retlw	99	;'c'
   447  0853  3468               	retlw	104	;'h'
   448  0854  3461               	retlw	97	;'a'
   449  0855  346E               	retlw	110	;'n'
   450  0856  346E               	retlw	110	;'n'
   451  0857  3465               	retlw	101	;'e'
   452  0858  346C               	retlw	108	;'l'
   453  0859  3420               	retlw	32	;' '
   454  085A  3400               	retlw	0
   455                           psect	strings
   456                           	
   457  085B                     STR_14:	
   458  085B  3420               	retlw	32	;' '
   459  085C  3473               	retlw	115	;'s'
   460  085D  3465               	retlw	101	;'e'
   461  085E  3474               	retlw	116	;'t'
   462  085F  3474               	retlw	116	;'t'
   463  0860  3465               	retlw	101	;'e'
   464  0861  3464               	retlw	100	;'d'
   465  0862  3400               	retlw	0
   466                           psect	strings
   467                           	
   468  0863                     STR_1:	
   469  0863  3450               	retlw	80	;'P'
   470  0864  3452               	retlw	82	;'R'
   471  0865  3433               	retlw	51	;'3'
   472  0866  3431               	retlw	49	;'1'
   473  0867  3420               	retlw	32	;' '
   474  0868  343A               	retlw	58	;':'
   475  0869  3400               	retlw	0
   476                           psect	strings
   477                           	
   478  086A                     STR_20:	
   479  086A  3446               	retlw	70	;'F'
   480  086B  344D               	retlw	77	;'M'
   481  086C  343D               	retlw	61	;'='
   482  086D  3400               	retlw	0
   483                           psect	strings
   484  083D                     STR_7	equ	STR_6+0
   485  080D                     STR_2	equ	STR_3+7
   486  082C                     STR_5	equ	STR_4+0
   487  085B                     STR_15	equ	STR_14+0
   488  086A                     STR_21	equ	STR_20+0
   489  0852                     STR_12	equ	STR_10+0
   490  0852                     STR_13	equ	STR_10+0
   491  0852                     STR_18	equ	STR_10+0
   492  0852                     STR_19	equ	STR_10+0
   493  081B                     STR_9	equ	STR_8+0
   494  081B                     STR_16	equ	STR_8+0
   495  081B                     STR_17	equ	STR_8+0
   496                           	file	"PR 31.as"
   497                           	line	#
   498                           psect cinit,class=CODE,delta=2
   499                           global start_initialization
   500  0C3B                     start_initialization:
   501                           
   502                           psect	bssBANK0,class=BANK0,space=1
   503                           global __pbssBANK0
   504  005D                     __pbssBANK0:
   505  005D                     _currentChannel:
   506  005D                            ds      4
   507                           
   508  0061                     _freq_kHz:
   509  0061                            ds      4
   510                           
   511  0065                     _STC:
   512  0065                            ds      2
   513                           
   514  0067                     _i:
   515  0067                            ds      1
   516                           
   517  0068                     _m:
   518  0068                            ds      1
   519                           
   520  0069                     _vol:
   521  0069                            ds      1
   522                           
   523                           psect	dataBANK0,class=BANK0,space=1
   524                           global __pdataBANK0
   525  004C                     __pdataBANK0:
   526                           	file	"C:\Users\Phang\Desktop\9.80\PR 31\PR31_final.c"
   527                           	line	81
   528  004C                     _v2:
   529  004C                            ds      10
   530                           
   531                           psect	dataBANK0
   532                           	file	"C:\Users\Phang\Desktop\9.80\PR 31\PR31_final.c"
   533                           	line	56
   534  0056                     _prog_chan:
   535  0056                            ds      7
   536                           
   537                           psect	dataBANK1,class=BANK1,space=1
   538                           global __pdataBANK1
   539  00A0                     __pdataBANK1:
   540                           	file	"C:\Users\Phang\Desktop\9.80\PR 31\PR31_final.c"
   541                           	line	83
   542  00A0                     _v1:
   543  00A0                            ds      10
   544                           
   545                           psect	dataBANK1
   546                           	file	"C:\Users\Phang\Desktop\9.80\PR 31\PR31_final.c"
   547                           	line	59
   548  00AA                     _register_values:
   549  00AA                            ds      36
   550                           
   551                           ; Clear objects allocated to BANK0
   552                           psect cinit,class=CODE,delta=2
   553  0C3B  01DD               	clrf	((__pbssBANK0)+0)&07Fh
   554  0C3C  01DE               	clrf	((__pbssBANK0)+1)&07Fh
   555  0C3D  01DF               	clrf	((__pbssBANK0)+2)&07Fh
   556  0C3E  01E0               	clrf	((__pbssBANK0)+3)&07Fh
   557  0C3F  01E1               	clrf	((__pbssBANK0)+4)&07Fh
   558  0C40  01E2               	clrf	((__pbssBANK0)+5)&07Fh
   559  0C41  01E3               	clrf	((__pbssBANK0)+6)&07Fh
   560  0C42  01E4               	clrf	((__pbssBANK0)+7)&07Fh
   561  0C43  01E5               	clrf	((__pbssBANK0)+8)&07Fh
   562  0C44  01E6               	clrf	((__pbssBANK0)+9)&07Fh
   563  0C45  01E7               	clrf	((__pbssBANK0)+10)&07Fh
   564  0C46  01E8               	clrf	((__pbssBANK0)+11)&07Fh
   565  0C47  01E9               	clrf	((__pbssBANK0)+12)&07Fh
   566                           global btemp
   567                           psect inittext,class=CODE,delta=2
   568                           global init_fetch,btemp
   569                           ;	Called with low address in FSR and high address in W
   570  0AF0                     init_fetch:
   571  0AF0  087E               	movf btemp,w
   572  0AF1  008A               	movwf pclath
   573  0AF2  087F               	movf btemp+1,w
   574  0AF3  0082               	movwf pc
   575                           global init_ram
   576                           ;Called with:
   577                           ;	high address of idata address in btemp 
   578                           ;	low address of idata address in btemp+1 
   579                           ;	low address of data in FSR
   580                           ;	high address + 1 of data in btemp-1
   581  0AF4                     init_ram:
   582  0AF4  22F0  120A  158A   	fcall init_fetch
   583  0AF7  0080               	movwf indf,f
   584  0AF8  0A84               	incf fsr,f
   585  0AF9  0804               	movf fsr,w
   586  0AFA  067D               	xorwf btemp-1,w
   587  0AFB  1903               	btfsc status,2
   588  0AFC  3400               	retlw 0
   589  0AFD  0AFF               	incf btemp+1,f
   590  0AFE  1903               	btfsc status,2
   591  0AFF  0AFE               	incf btemp,f
   592  0B00  2AF4               	goto init_ram
   593                           ; Initialize objects allocated to BANK1
   594                           psect cinit,class=CODE,delta=2
   595                           global init_ram, __pidataBANK1
   596  0C48  1383               	bcf	status, 7	;select IRP bank0
   597  0C49  30CE               	movlw low(__pdataBANK1+46)
   598  0C4A  00FD               	movwf btemp-1,f
   599  0C4B  300C               	movlw high(__pidataBANK1)
   600  0C4C  00FE               	movwf btemp,f
   601  0C4D  3094               	movlw low(__pidataBANK1)
   602  0C4E  00FF               	movwf btemp+1,f
   603  0C4F  30A0               	movlw low(__pdataBANK1)
   604  0C50  0084               	movwf fsr,f
   605  0C51  120A  158A  22F4   	fcall init_ram
              120A  158A         
   606                           ; Initialize objects allocated to BANK0
   607                           psect cinit,class=CODE,delta=2
   608                           global init_ram, __pidataBANK0
   609  0C56  305D               	movlw low(__pdataBANK0+17)
   610  0C57  00FD               	movwf btemp-1,f
   611  0C58  300B               	movlw high(__pidataBANK0)
   612  0C59  00FE               	movwf btemp,f
   613  0C5A  3001               	movlw low(__pidataBANK0)
   614  0C5B  00FF               	movwf btemp+1,f
   615  0C5C  304C               	movlw low(__pdataBANK0)
   616  0C5D  0084               	movwf fsr,f
   617  0C5E  120A  158A  22F4   	fcall init_ram
              120A  158A         
   618                           psect cinit,class=CODE,delta=2
   619                           global end_of_initialization
   620                           
   621                           ;End of C runtime variable initialization code
   622                           
   623  0C63                     end_of_initialization:
   624  0C63  0183               clrf status
   625  0C64  120A  118A  2AA2   ljmp _main	;jump to C main() function
   626                           psect	cstackCOMMON,class=COMMON,space=1
   627                           global __pcstackCOMMON
   628  0070                     __pcstackCOMMON:
   629                           	global	?_delay
   630  0070                     ?_delay:	; 0 bytes @ 0x0
   631                           	global	?_send_config
   632  0070                     ?_send_config:	; 0 bytes @ 0x0
   633                           	global	?_uart_init
   634  0070                     ?_uart_init:	; 0 bytes @ 0x0
   635                           	global	?_ar1000_init
   636  0070                     ?_ar1000_init:	; 0 bytes @ 0x0
   637                           	global	?_send_string
   638  0070                     ?_send_string:	; 0 bytes @ 0x0
   639                           	global	?_lcd_goto
   640  0070                     ?_lcd_goto:	; 0 bytes @ 0x0
   641                           	global	?_uart_sendstr
   642  0070                     ?_uart_sendstr:	; 0 bytes @ 0x0
   643                           	global	?_set_vol
   644  0070                     ?_set_vol:	; 0 bytes @ 0x0
   645                           	global	?_lcd_clr
   646  0070                     ?_lcd_clr:	; 0 bytes @ 0x0
   647                           	global	??_eeprom_read
   648  0070                     ??_eeprom_read:	; 0 bytes @ 0x0
   649                           	global	?_eprom_write
   650  0070                     ?_eprom_write:	; 0 bytes @ 0x0
   651                           	global	?_switch_channel
   652  0070                     ?_switch_channel:	; 0 bytes @ 0x0
   653                           	global	?_adjust_channel
   654  0070                     ?_adjust_channel:	; 0 bytes @ 0x0
   655                           	global	?_adjust_vol
   656  0070                     ?_adjust_vol:	; 0 bytes @ 0x0
   657                           	global	?_uart_tx
   658  0070                     ?_uart_tx:	; 0 bytes @ 0x0
   659                           	global	??_uart_tx
   660  0070                     ??_uart_tx:	; 0 bytes @ 0x0
   661                           	global	?_send_char
   662  0070                     ?_send_char:	; 0 bytes @ 0x0
   663                           	global	?_decrease_chan
   664  0070                     ?_decrease_chan:	; 0 bytes @ 0x0
   665                           	global	?_increase_chan
   666  0070                     ?_increase_chan:	; 0 bytes @ 0x0
   667                           	global	?_e_pulse
   668  0070                     ?_e_pulse:	; 0 bytes @ 0x0
   669                           	global	?_ar_i2c_initialize
   670  0070                     ?_ar_i2c_initialize:	; 0 bytes @ 0x0
   671                           	global	??_ar_i2c_initialize
   672  0070                     ??_ar_i2c_initialize:	; 0 bytes @ 0x0
   673                           	global	?_ar_i2c_write
   674  0070                     ?_ar_i2c_write:	; 0 bytes @ 0x0
   675                           	global	?_eeprom_read
   676  0070                     ?_eeprom_read:	; 1 bytes @ 0x0
   677                           	global	?_eprom_read
   678  0070                     ?_eprom_read:	; 2 bytes @ 0x0
   679                           	global	?_ar_i2c_read
   680  0070                     ?_ar_i2c_read:	; 2 bytes @ 0x0
   681                           	global	?_main
   682  0070                     ?_main:	; 2 bytes @ 0x0
   683                           	global	?___llmod
   684  0070                     ?___llmod:	; 4 bytes @ 0x0
   685                           	global	?___lldiv
   686  0070                     ?___lldiv:	; 4 bytes @ 0x0
   687                           	global	ar_i2c_read@ar_register
   688  0070                     ar_i2c_read@ar_register:	; 1 bytes @ 0x0
   689                           	global	ar_i2c_write@ar_register
   690  0070                     ar_i2c_write@ar_register:	; 1 bytes @ 0x0
   691                           	global	uart_tx@uc_data
   692  0070                     uart_tx@uc_data:	; 1 bytes @ 0x0
   693                           	global	eprom_write@fm_value
   694  0070                     eprom_write@fm_value:	; 2 bytes @ 0x0
   695                           	global	delay@RC4
   696  0070                     delay@RC4:	; 4 bytes @ 0x0
   697                           	global	___llmod@divisor
   698  0070                     ___llmod@divisor:	; 4 bytes @ 0x0
   699                           	global	___lldiv@divisor
   700  0070                     ___lldiv@divisor:	; 4 bytes @ 0x0
   701  0070                     	ds	1
   702                           	global	??_uart_init
   703  0071                     ??_uart_init:	; 0 bytes @ 0x1
   704                           	global	??_uart_sendstr
   705  0071                     ??_uart_sendstr:	; 0 bytes @ 0x1
   706                           	global	ar_i2c_write@ar_data
   707  0071                     ar_i2c_write@ar_data:	; 4 bytes @ 0x1
   708  0071                     	ds	1
   709                           	global	??_eprom_write
   710  0072                     ??_eprom_write:	; 0 bytes @ 0x2
   711                           	global	??_eprom_read
   712  0072                     ??_eprom_read:	; 0 bytes @ 0x2
   713                           	global	??_ar_i2c_read
   714  0072                     ??_ar_i2c_read:	; 0 bytes @ 0x2
   715                           	global	uart_sendstr@s
   716  0072                     uart_sendstr@s:	; 1 bytes @ 0x2
   717                           	global	eprom_write@channel_adr
   718  0072                     eprom_write@channel_adr:	; 1 bytes @ 0x2
   719                           	global	eprom_read@fm_value
   720  0072                     eprom_read@fm_value:	; 2 bytes @ 0x2
   721  0072                     	ds	1
   722                           	global	eeprom_read@addr
   723  0073                     eeprom_read@addr:	; 1 bytes @ 0x3
   724  0073                     	ds	1
   725                           	global	??_delay
   726  0074                     ??_delay:	; 0 bytes @ 0x4
   727                           	global	eprom_read@channel_adr
   728  0074                     eprom_read@channel_adr:	; 1 bytes @ 0x4
   729                           	global	___llmod@dividend
   730  0074                     ___llmod@dividend:	; 4 bytes @ 0x4
   731                           	global	___lldiv@dividend
   732  0074                     ___lldiv@dividend:	; 4 bytes @ 0x4
   733  0074                     	ds	1
   734                           	global	??_ar_i2c_write
   735  0075                     ??_ar_i2c_write:	; 0 bytes @ 0x5
   736  0075                     	ds	3
   737                           	global	??_send_config
   738  0078                     ??_send_config:	; 0 bytes @ 0x8
   739                           	global	??_send_char
   740  0078                     ??_send_char:	; 0 bytes @ 0x8
   741                           	global	??_e_pulse
   742  0078                     ??_e_pulse:	; 0 bytes @ 0x8
   743                           	global	??___llmod
   744  0078                     ??___llmod:	; 0 bytes @ 0x8
   745                           	global	??___lldiv
   746  0078                     ??___lldiv:	; 0 bytes @ 0x8
   747                           	global	send_config@RC4
   748  0078                     send_config@RC4:	; 1 bytes @ 0x8
   749                           	global	send_char@RC4
   750  0078                     send_char@RC4:	; 1 bytes @ 0x8
   751  0078                     	ds	1
   752                           	global	??_send_string
   753  0079                     ??_send_string:	; 0 bytes @ 0x9
   754                           	global	??_lcd_goto
   755  0079                     ??_lcd_goto:	; 0 bytes @ 0x9
   756                           	global	??_lcd_clr
   757  0079                     ??_lcd_clr:	; 0 bytes @ 0x9
   758                           	global	___llmod@counter
   759  0079                     ___llmod@counter:	; 1 bytes @ 0x9
   760                           	global	___lldiv@quotient
   761  0079                     ___lldiv@quotient:	; 4 bytes @ 0x9
   762  0079                     	ds	1
   763                           	global	ar_i2c_write@ar_slave_address
   764  007A                     ar_i2c_write@ar_slave_address:	; 1 bytes @ 0xA
   765                           	global	lcd_goto@RC4
   766  007A                     lcd_goto@RC4:	; 1 bytes @ 0xA
   767                           	global	send_string@i
   768  007A                     send_string@i:	; 1 bytes @ 0xA
   769  007A                     	ds	1
   770                           	global	ar_i2c_write@ar_transmit_byte1
   771  007B                     ar_i2c_write@ar_transmit_byte1:	; 1 bytes @ 0xB
   772                           	global	send_string@s
   773  007B                     send_string@s:	; 1 bytes @ 0xB
   774  007B                     	ds	1
   775                           	global	ar_i2c_write@ar_transmit_byte2
   776  007C                     ar_i2c_write@ar_transmit_byte2:	; 1 bytes @ 0xC
   777  007C                     	ds	1
   778                           	global	set_vol@key
   779  007D                     set_vol@key:	; 1 bytes @ 0xD
   780                           	global	___lldiv@counter
   781  007D                     ___lldiv@counter:	; 1 bytes @ 0xD
   782  007D                     	ds	1
   783                           	global	??_adjust_channel
   784  007E                     ??_adjust_channel:	; 0 bytes @ 0xE
   785                           	global	??_increase_chan
   786  007E                     ??_increase_chan:	; 0 bytes @ 0xE
   787                           psect	cstackBANK0,class=BANK0,space=1
   788                           global __pcstackBANK0
   789  0020                     __pcstackBANK0:
   790                           	global	??_set_vol
   791  0020                     ??_set_vol:	; 0 bytes @ 0x0
   792                           	global	?_send_dec
   793  0020                     ?_send_dec:	; 0 bytes @ 0x0
   794                           	global	ar_i2c_read@ar_received_byte
   795  0020                     ar_i2c_read@ar_received_byte:	; 2 bytes @ 0x0
   796                           	global	send_dec@RC4
   797  0020                     send_dec@RC4:	; 4 bytes @ 0x0
   798  0020                     	ds	2
   799                           	global	ar_i2c_read@ar_received_byte1
   800  0022                     ar_i2c_read@ar_received_byte1:	; 1 bytes @ 0x2
   801  0022                     	ds	1
   802                           	global	ar_i2c_read@ar_received_byte2
   803  0023                     ar_i2c_read@ar_received_byte2:	; 1 bytes @ 0x3
   804  0023                     	ds	1
   805                           	global	??_adjust_vol
   806  0024                     ??_adjust_vol:	; 0 bytes @ 0x4
   807                           	global	??_send_dec
   808  0024                     ??_send_dec:	; 0 bytes @ 0x4
   809                           	global	ar_i2c_read@ar_slave_address
   810  0024                     ar_i2c_read@ar_slave_address:	; 1 bytes @ 0x4
   811  0024                     	ds	1
   812                           	global	adjust_vol@check
   813  0025                     adjust_vol@check:	; 1 bytes @ 0x5
   814                           	global	ar_i2c_read@count
   815  0025                     ar_i2c_read@count:	; 4 bytes @ 0x5
   816  0025                     	ds	1
   817                           	global	adjust_vol@vol_default
   818  0026                     adjust_vol@vol_default:	; 1 bytes @ 0x6
   819  0026                     	ds	2
   820                           	global	send_dec@no
   821  0028                     send_dec@no:	; 20 bytes @ 0x8
   822  0028                     	ds	1
   823                           	global	??_ar1000_init
   824  0029                     ??_ar1000_init:	; 0 bytes @ 0x9
   825                           	global	?_setAR1000
   826  0029                     ?_setAR1000:	; 0 bytes @ 0x9
   827                           	global	setAR1000@freq_kHz
   828  0029                     setAR1000@freq_kHz:	; 2 bytes @ 0x9
   829  0029                     	ds	2
   830                           	global	??_setAR1000
   831  002B                     ??_setAR1000:	; 0 bytes @ 0xB
   832  002B                     	ds	2
   833                           	global	ar1000_init@i
   834  002D                     ar1000_init@i:	; 2 bytes @ 0xD
   835  002D                     	ds	15
   836                           	global	send_dec@i
   837  003C                     send_dec@i:	; 2 bytes @ 0x1C
   838  003C                     	ds	2
   839                           	global	??_switch_channel
   840  003E                     ??_switch_channel:	; 0 bytes @ 0x1E
   841                           	global	??_decrease_chan
   842  003E                     ??_decrease_chan:	; 0 bytes @ 0x1E
   843  003E                     	ds	4
   844                           	global	adjust_channel@press
   845  0042                     adjust_channel@press:	; 2 bytes @ 0x22
   846  0042                     	ds	2
   847                           	global	adjust_channel@press_719
   848  0044                     adjust_channel@press_719:	; 2 bytes @ 0x24
   849  0044                     	ds	2
   850                           	global	adjust_channel@press_720
   851  0046                     adjust_channel@press_720:	; 2 bytes @ 0x26
   852  0046                     	ds	2
   853                           	global	??_main
   854  0048                     ??_main:	; 0 bytes @ 0x28
   855  0048                     	ds	4
   856 ;;Data sizes: Strings 104, constant 0, data 63, bss 13, persistent 0 stack 0
   857 ;;Auto spaces:   Size  Autos    Used
   858 ;; COMMON          14     14      14
   859 ;; BANK0           80     44      74
   860 ;; BANK1           80      0      46
   861 ;; BANK3           96      0       0
   862 ;; BANK2           96      0       0
   863                           
   864 ;;
   865 ;; Pointer list with targets:
   866                           
   867 ;; ?_eprom_read	unsigned int  size(1) Largest target is 0
   868 ;;
   869 ;; ?___llmod	unsigned long  size(1) Largest target is 0
   870 ;;
   871 ;; ?___lldiv	unsigned long  size(1) Largest target is 0
   872 ;;
   873 ;; ?_ar_i2c_read	unsigned int  size(1) Largest target is 36
   874 ;;		 -> register_values(BANK1[36]), 
   875 ;;
   876 ;; uart_sendstr@s	PTR const unsigned char  size(1) Largest target is 21
   877 ;;		 -> STR_21(CODE[4]), STR_19(CODE[9]), STR_18(CODE[9]), STR_17(CODE[17]), 
   878 ;;		 -> STR_15(CODE[8]), STR_13(CODE[9]), STR_11(CODE[9]), STR_9(CODE[17]), 
   879 ;;		 -> STR_7(CODE[12]), STR_5(CODE[17]), STR_3(CODE[21]), 
   880 ;;
   881 ;; send_string@s	PTR const unsigned char  size(1) Largest target is 17
   882 ;;		 -> STR_20(CODE[4]), STR_16(CODE[17]), STR_14(CODE[8]), STR_12(CODE[9]), 
   883 ;;		 -> STR_10(CODE[9]), STR_8(CODE[17]), STR_6(CODE[12]), STR_4(CODE[17]), 
   884 ;;		 -> STR_2(CODE[14]), STR_1(CODE[7]), 
   885 ;;
   886                           
   887                           
   888 ;;
   889 ;; Critical Paths under _main in COMMON
   890 ;;
   891 ;;   _main->_set_vol
   892 ;;   _send_dec->___lldiv
   893 ;;   _adjust_vol->_set_vol
   894 ;;   _lcd_clr->_send_config
   895 ;;   _lcd_goto->_send_config
   896 ;;   _send_string->_send_char
   897 ;;   _send_char->_delay
   898 ;;   _send_config->_delay
   899 ;;   _e_pulse->_delay
   900 ;;   _setAR1000->_ar_i2c_write
   901 ;;   _set_vol->_ar_i2c_write
   902 ;;   _uart_sendstr->_uart_tx
   903 ;;   _ar1000_init->_ar_i2c_write
   904 ;;   _uart_init->_uart_tx
   905 ;;
   906 ;; Critical Paths under _main in BANK0
   907 ;;
   908 ;;   _main->_adjust_channel
   909 ;;   _adjust_channel->_decrease_chan
   910 ;;   _increase_chan->_send_dec
   911 ;;   _decrease_chan->_send_dec
   912 ;;   _switch_channel->_send_dec
   913 ;;   _adjust_vol->_set_vol
   914 ;;   _setAR1000->_ar_i2c_read
   915 ;;   _ar1000_init->_ar_i2c_read
   916 ;;
   917 ;; Critical Paths under _main in BANK1
   918 ;;
   919 ;;   None.
   920 ;;
   921 ;; Critical Paths under _main in BANK3
   922 ;;
   923 ;;   None.
   924 ;;
   925 ;; Critical Paths under _main in BANK2
   926 ;;
   927 ;;   None.
   928                           
   929 ;;
   930 ;;Main: autosize = 0, tempsize = 4, incstack = 0, save=0
   931 ;;
   932                           
   933 ;;
   934 ;;Call Graph Tables:
   935 ;;
   936 ;; ---------------------------------------------------------------------------------
   937 ;; (Depth) Function   	        Calls       Base Space   Used Autos Params    Refs
   938 ;; ---------------------------------------------------------------------------------
   939 ;; (0) _main                                                 4     4      0   13263
   940 ;;                                             40 BANK0      4     4      0
   941 ;;                              _delay
   942 ;;                        _send_config
   943 ;;                          _uart_init
   944 ;;                  _ar_i2c_initialize
   945 ;;                        _ar1000_init
   946 ;;                        _send_string
   947 ;;                           _lcd_goto
   948 ;;                       _uart_sendstr
   949 ;;                            _set_vol
   950 ;;                            _lcd_clr
   951 ;;                        _eeprom_read
   952 ;;                        _eprom_write
   953 ;;                     _switch_channel
   954 ;;                     _adjust_channel
   955 ;;                         _adjust_vol
   956 ;; ---------------------------------------------------------------------------------
   957 ;; (1) _adjust_channel                                       6     6      0    8823
   958 ;;                                             34 BANK0      6     6      0
   959 ;;                      _decrease_chan
   960 ;;                              _delay
   961 ;;                      _increase_chan
   962 ;;                        _eprom_write
   963 ;;                            _lcd_clr
   964 ;;                        _send_string
   965 ;;                       _uart_sendstr
   966 ;;                          _send_char
   967 ;;                            _uart_tx
   968 ;;                           _send_dec
   969 ;;                     _switch_channel
   970 ;;                           _lcd_goto
   971 ;;                         _adjust_vol
   972 ;; ---------------------------------------------------------------------------------
   973 ;; (2) _increase_chan                                        0     0      0    1836
   974 ;;                          _setAR1000
   975 ;;                            _uart_tx
   976 ;;                       _uart_sendstr
   977 ;;                           _send_dec
   978 ;;                              _delay
   979 ;; ---------------------------------------------------------------------------------
   980 ;; (2) _decrease_chan                                        4     4      0    1836
   981 ;;                                             30 BANK0      4     4      0
   982 ;;                          _setAR1000
   983 ;;                            _uart_tx
   984 ;;                       _uart_sendstr
   985 ;;                           _send_dec
   986 ;;                              _delay
   987 ;; ---------------------------------------------------------------------------------
   988 ;; (2) _switch_channel                                       1     1      0    2285
   989 ;;                                             30 BANK0      1     1      0
   990 ;;                            _lcd_clr
   991 ;;                        _send_string
   992 ;;                            _uart_tx
   993 ;;                       _uart_sendstr
   994 ;;                          _send_char
   995 ;;                         _eprom_read
   996 ;;                          _setAR1000
   997 ;;                           _send_dec
   998 ;; ---------------------------------------------------------------------------------
   999 ;; (3) _send_dec                                            32    28      4    1315
  1000 ;;                                              0 BANK0     30    26      4
  1001 ;;                            ___lldiv
  1002 ;;                            ___llmod
  1003 ;;                           _lcd_goto
  1004 ;;                        _send_string
  1005 ;;                       _uart_sendstr
  1006 ;;                          _send_char
  1007 ;;                            _uart_tx
  1008 ;;                              _delay
  1009 ;; ---------------------------------------------------------------------------------
  1010 ;; (1) _adjust_vol                                           3     3      0     650
  1011 ;;                                              4 BANK0      3     3      0
  1012 ;;                           _lcd_goto
  1013 ;;                          _send_char
  1014 ;;                            _uart_tx
  1015 ;;                              _delay
  1016 ;;                            _set_vol
  1017 ;; ---------------------------------------------------------------------------------
  1018 ;; (3) _lcd_clr                                              0     0      0     157
  1019 ;;                        _send_config
  1020 ;;                              _delay
  1021 ;; ---------------------------------------------------------------------------------
  1022 ;; (2) _lcd_goto                                             2     2      0     201
  1023 ;;                                              9 COMMON     2     2      0
  1024 ;;                        _send_config
  1025 ;; ---------------------------------------------------------------------------------
  1026 ;; (4) _send_string                                          3     3      0     180
  1027 ;;                                              9 COMMON     3     3      0
  1028 ;;                          _send_char
  1029 ;; ---------------------------------------------------------------------------------
  1030 ;; (2) _send_char                                            1     1      0     112
  1031 ;;                                              8 COMMON     1     1      0
  1032 ;;                              _delay
  1033 ;;                            _e_pulse
  1034 ;; ---------------------------------------------------------------------------------
  1035 ;; (3) _send_config                                          1     1      0     112
  1036 ;;                                              8 COMMON     1     1      0
  1037 ;;                              _delay
  1038 ;;                            _e_pulse
  1039 ;; ---------------------------------------------------------------------------------
  1040 ;; (3) _e_pulse                                              0     0      0      45
  1041 ;;                              _delay
  1042 ;; ---------------------------------------------------------------------------------
  1043 ;; (3) _setAR1000                                            5     3      2     387
  1044 ;;                                              9 BANK0      5     3      2
  1045 ;;                       _ar_i2c_write
  1046 ;;                        _ar_i2c_read
  1047 ;;                              _delay
  1048 ;; ---------------------------------------------------------------------------------
  1049 ;; (2) _set_vol                                              5     5      0     200
  1050 ;;                                             13 COMMON     1     1      0
  1051 ;;                                              0 BANK0      4     4      0
  1052 ;;                       _ar_i2c_write
  1053 ;; ---------------------------------------------------------------------------------
  1054 ;; (4) _uart_sendstr                                         2     2      0      67
  1055 ;;                                              1 COMMON     2     2      0
  1056 ;;                            _uart_tx
  1057 ;; ---------------------------------------------------------------------------------
  1058 ;; (1) _ar1000_init                                          6     6      0     454
  1059 ;;                                              9 BANK0      6     6      0
  1060 ;;                              _delay
  1061 ;;                       _ar_i2c_write
  1062 ;;                        _ar_i2c_read
  1063 ;; ---------------------------------------------------------------------------------
  1064 ;; (1) _uart_init                                            0     0      0      22
  1065 ;;                            _uart_tx
  1066 ;; ---------------------------------------------------------------------------------
  1067 ;; (4) ___lldiv                                             14     6      8     162
  1068 ;;                                              0 COMMON    14     6      8
  1069 ;; ---------------------------------------------------------------------------------
  1070 ;; (4) ___llmod                                             10     2      8     159
  1071 ;;                                              0 COMMON    10     2      8
  1072 ;; ---------------------------------------------------------------------------------
  1073 ;; (3) _eprom_read                                           5     3      2      45
  1074 ;;                                              0 COMMON     5     3      2
  1075 ;; ---------------------------------------------------------------------------------
  1076 ;; (2) _uart_tx                                              1     1      0      22
  1077 ;;                                              0 COMMON     1     1      0
  1078 ;; ---------------------------------------------------------------------------------
  1079 ;; (2) _eprom_write                                          3     1      2      45
  1080 ;;                                              0 COMMON     3     1      2
  1081 ;; ---------------------------------------------------------------------------------
  1082 ;; (1) _eeprom_read                                          4     4      0      22
  1083 ;;                                              0 COMMON     4     4      0
  1084 ;; ---------------------------------------------------------------------------------
  1085 ;; (2) _delay                                                8     4      4      45
  1086 ;;                                              0 COMMON     8     4      4
  1087 ;; ---------------------------------------------------------------------------------
  1088 ;; (3) _ar_i2c_write                                        13     8      5     134
  1089 ;;                                              0 COMMON    13     8      5
  1090 ;; ---------------------------------------------------------------------------------
  1091 ;; (4) _ar_i2c_read                                         15    13      2     185
  1092 ;;                                              0 COMMON     6     4      2
  1093 ;;                                              0 BANK0      9     9      0
  1094 ;; ---------------------------------------------------------------------------------
  1095 ;; (1) _ar_i2c_initialize                                    0     0      0       0
  1096 ;; ---------------------------------------------------------------------------------
  1097 ;; Estimated maximum stack depth 4
  1098 ;; ---------------------------------------------------------------------------------
  1099                           
  1100 ;; Call Graph Graphs:
  1101                           
  1102 ;; _main (ROOT)
  1103 ;;   _delay
  1104 ;;   _send_config
  1105 ;;     _delay
  1106 ;;     _e_pulse
  1107 ;;       _delay
  1108 ;;   _uart_init
  1109 ;;     _uart_tx
  1110 ;;   _ar_i2c_initialize
  1111 ;;   _ar1000_init
  1112 ;;     _delay
  1113 ;;     _ar_i2c_write
  1114 ;;     _ar_i2c_read
  1115 ;;   _send_string
  1116 ;;     _send_char
  1117 ;;       _delay
  1118 ;;       _e_pulse
  1119 ;;         _delay
  1120 ;;   _lcd_goto
  1121 ;;     _send_config
  1122 ;;       _delay
  1123 ;;       _e_pulse
  1124 ;;         _delay
  1125 ;;   _uart_sendstr
  1126 ;;     _uart_tx
  1127 ;;   _set_vol
  1128 ;;     _ar_i2c_write
  1129 ;;   _lcd_clr
  1130 ;;     _send_config
  1131 ;;       _delay
  1132 ;;       _e_pulse
  1133 ;;         _delay
  1134 ;;     _delay
  1135 ;;   _eeprom_read
  1136 ;;   _eprom_write
  1137 ;;   _switch_channel
  1138 ;;     _lcd_clr
  1139 ;;       _send_config
  1140 ;;         _delay
  1141 ;;         _e_pulse
  1142 ;;           _delay
  1143 ;;       _delay
  1144 ;;     _send_string
  1145 ;;       _send_char
  1146 ;;         _delay
  1147 ;;         _e_pulse
  1148 ;;           _delay
  1149 ;;     _uart_tx
  1150 ;;     _uart_sendstr
  1151 ;;       _uart_tx
  1152 ;;     _send_char
  1153 ;;       _delay
  1154 ;;       _e_pulse
  1155 ;;         _delay
  1156 ;;     _eprom_read
  1157 ;;     _setAR1000
  1158 ;;       _ar_i2c_write
  1159 ;;       _ar_i2c_read
  1160 ;;       _delay
  1161 ;;     _send_dec
  1162 ;;       ___lldiv
  1163 ;;       ___llmod
  1164 ;;       _lcd_goto
  1165 ;;         _send_config
  1166 ;;           _delay
  1167 ;;           _e_pulse
  1168 ;;             _delay
  1169 ;;       _send_string
  1170 ;;         _send_char
  1171 ;;           _delay
  1172 ;;           _e_pulse
  1173 ;;             _delay
  1174 ;;       _uart_sendstr
  1175 ;;         _uart_tx
  1176 ;;       _send_char
  1177 ;;         _delay
  1178 ;;         _e_pulse
  1179 ;;           _delay
  1180 ;;       _uart_tx
  1181 ;;       _delay
  1182 ;;   _adjust_channel
  1183 ;;     _decrease_chan
  1184 ;;       _setAR1000
  1185 ;;         _ar_i2c_write
  1186 ;;         _ar_i2c_read
  1187 ;;         _delay
  1188 ;;       _uart_tx
  1189 ;;       _uart_sendstr
  1190 ;;         _uart_tx
  1191 ;;       _send_dec
  1192 ;;         ___lldiv
  1193 ;;         ___llmod
  1194 ;;         _lcd_goto
  1195 ;;           _send_config
  1196 ;;             _delay
  1197 ;;             _e_pulse
  1198 ;;               _delay
  1199 ;;         _send_string
  1200 ;;           _send_char
  1201 ;;             _delay
  1202 ;;             _e_pulse
  1203 ;;               _delay
  1204 ;;         _uart_sendstr
  1205 ;;           _uart_tx
  1206 ;;         _send_char
  1207 ;;           _delay
  1208 ;;           _e_pulse
  1209 ;;             _delay
  1210 ;;         _uart_tx
  1211 ;;         _delay
  1212 ;;       _delay
  1213 ;;     _delay
  1214 ;;     _increase_chan
  1215 ;;       _setAR1000
  1216 ;;         _ar_i2c_write
  1217 ;;         _ar_i2c_read
  1218 ;;         _delay
  1219 ;;       _uart_tx
  1220 ;;       _uart_sendstr
  1221 ;;         _uart_tx
  1222 ;;       _send_dec
  1223 ;;         ___lldiv
  1224 ;;         ___llmod
  1225 ;;         _lcd_goto
  1226 ;;           _send_config
  1227 ;;             _delay
  1228 ;;             _e_pulse
  1229 ;;               _delay
  1230 ;;         _send_string
  1231 ;;           _send_char
  1232 ;;             _delay
  1233 ;;             _e_pulse
  1234 ;;               _delay
  1235 ;;         _uart_sendstr
  1236 ;;           _uart_tx
  1237 ;;         _send_char
  1238 ;;           _delay
  1239 ;;           _e_pulse
  1240 ;;             _delay
  1241 ;;         _uart_tx
  1242 ;;         _delay
  1243 ;;       _delay
  1244 ;;     _eprom_write
  1245 ;;     _lcd_clr
  1246 ;;       _send_config
  1247 ;;         _delay
  1248 ;;         _e_pulse
  1249 ;;           _delay
  1250 ;;       _delay
  1251 ;;     _send_string
  1252 ;;       _send_char
  1253 ;;         _delay
  1254 ;;         _e_pulse
  1255 ;;           _delay
  1256 ;;     _uart_sendstr
  1257 ;;       _uart_tx
  1258 ;;     _send_char
  1259 ;;       _delay
  1260 ;;       _e_pulse
  1261 ;;         _delay
  1262 ;;     _uart_tx
  1263 ;;     _send_dec
  1264 ;;       ___lldiv
  1265 ;;       ___llmod
  1266 ;;       _lcd_goto
  1267 ;;         _send_config
  1268 ;;           _delay
  1269 ;;           _e_pulse
  1270 ;;             _delay
  1271 ;;       _send_string
  1272 ;;         _send_char
  1273 ;;           _delay
  1274 ;;           _e_pulse
  1275 ;;             _delay
  1276 ;;       _uart_sendstr
  1277 ;;         _uart_tx
  1278 ;;       _send_char
  1279 ;;         _delay
  1280 ;;         _e_pulse
  1281 ;;           _delay
  1282 ;;       _uart_tx
  1283 ;;       _delay
  1284 ;;     _switch_channel
  1285 ;;       _lcd_clr
  1286 ;;         _send_config
  1287 ;;           _delay
  1288 ;;           _e_pulse
  1289 ;;             _delay
  1290 ;;         _delay
  1291 ;;       _send_string
  1292 ;;         _send_char
  1293 ;;           _delay
  1294 ;;           _e_pulse
  1295 ;;             _delay
  1296 ;;       _uart_tx
  1297 ;;       _uart_sendstr
  1298 ;;         _uart_tx
  1299 ;;       _send_char
  1300 ;;         _delay
  1301 ;;         _e_pulse
  1302 ;;           _delay
  1303 ;;       _eprom_read
  1304 ;;       _setAR1000
  1305 ;;         _ar_i2c_write
  1306 ;;         _ar_i2c_read
  1307 ;;         _delay
  1308 ;;       _send_dec
  1309 ;;         ___lldiv
  1310 ;;         ___llmod
  1311 ;;         _lcd_goto
  1312 ;;           _send_config
  1313 ;;             _delay
  1314 ;;             _e_pulse
  1315 ;;               _delay
  1316 ;;         _send_string
  1317 ;;           _send_char
  1318 ;;             _delay
  1319 ;;             _e_pulse
  1320 ;;               _delay
  1321 ;;         _uart_sendstr
  1322 ;;           _uart_tx
  1323 ;;         _send_char
  1324 ;;           _delay
  1325 ;;           _e_pulse
  1326 ;;             _delay
  1327 ;;         _uart_tx
  1328 ;;         _delay
  1329 ;;     _lcd_goto
  1330 ;;       _send_config
  1331 ;;         _delay
  1332 ;;         _e_pulse
  1333 ;;           _delay
  1334 ;;     _adjust_vol
  1335 ;;       _lcd_goto
  1336 ;;         _send_config
  1337 ;;           _delay
  1338 ;;           _e_pulse
  1339 ;;             _delay
  1340 ;;       _send_char
  1341 ;;         _delay
  1342 ;;         _e_pulse
  1343 ;;           _delay
  1344 ;;       _uart_tx
  1345 ;;       _delay
  1346 ;;       _set_vol
  1347 ;;         _ar_i2c_write
  1348 ;;   _adjust_vol
  1349 ;;     _lcd_goto
  1350 ;;       _send_config
  1351 ;;         _delay
  1352 ;;         _e_pulse
  1353 ;;           _delay
  1354 ;;     _send_char
  1355 ;;       _delay
  1356 ;;       _e_pulse
  1357 ;;         _delay
  1358 ;;     _uart_tx
  1359 ;;     _delay
  1360 ;;     _set_vol
  1361 ;;       _ar_i2c_write
  1362 ;;
  1363                           
  1364 ;; Address spaces:
  1365                           
  1366 ;;Name               Size   Autos  Total    Cost      Usage
  1367 ;;BANK3               60      0       0       9        0.0%
  1368 ;;BITBANK3            60      0       0       8        0.0%
  1369 ;;SFR3                 0      0       0       4        0.0%
  1370 ;;BITSFR3              0      0       0       4        0.0%
  1371 ;;BANK2               60      0       0      11        0.0%
  1372 ;;BITBANK2            60      0       0      10        0.0%
  1373 ;;SFR2                 0      0       0       5        0.0%
  1374 ;;BITSFR2              0      0       0       5        0.0%
  1375 ;;SFR1                 0      0       0       2        0.0%
  1376 ;;BITSFR1              0      0       0       2        0.0%
  1377 ;;BANK1               50      0      2E       7       57.5%
  1378 ;;BITBANK1            50      0       0       6        0.0%
  1379 ;;CODE                 0      0       0       0        0.0%
  1380 ;;DATA                 0      0      8D      12        0.0%
  1381 ;;ABS                  0      0      86       3        0.0%
  1382 ;;NULL                 0      0       0       0        0.0%
  1383 ;;STACK                0      0       7       2        0.0%
  1384 ;;BANK0               50     2C      4A       5       92.5%
  1385 ;;BITBANK0            50      0       0       4        0.0%
  1386 ;;SFR0                 0      0       0       1        0.0%
  1387 ;;BITSFR0              0      0       0       1        0.0%
  1388 ;;COMMON               E      E       E       1      100.0%
  1389 ;;BITCOMMON            E      0       0       0        0.0%
  1390 ;;EEDATA             100      0       0       0        0.0%
  1391                           
  1392                           	global	_main
  1393                           psect	maintext,global,class=CODE,delta=2
  1394                           global __pmaintext
  1395  02A2                     __pmaintext:
  1396                           
  1397 ;; *************** function _main *****************
  1398 ;; Defined at:
  1399 ;;		line 116 in file "C:\Users\Phang\Desktop\9.80\PR 31\PR31_final.c"
  1400 ;; Parameters:    Size  Location     Type
  1401 ;;		None
  1402 ;; Auto vars:     Size  Location     Type
  1403 ;;		None
  1404 ;; Return value:  Size  Location     Type
  1405 ;;                  2  1277[COMMON] int 
  1406 ;; Registers used:
  1407 ;;		wreg, fsr0l, fsr0h, status,2, status,0, btemp+1, pclath, cstack
  1408 ;; Tracked objects:
  1409 ;;		On entry : 17F/0
  1410 ;;		On exit  : 0/0
  1411 ;;		Unchanged: 0/0
  1412 ;; Data sizes:     COMMON   BANK0   BANK1   BANK3   BANK2
  1413 ;;      Params:         0       0       0       0       0
  1414 ;;      Locals:         0       0       0       0       0
  1415 ;;      Temps:          0       4       0       0       0
  1416 ;;      Totals:         0       4       0       0       0
  1417 ;;Total ram usage:        4 bytes
  1418 ;; Hardware stack levels required when called:    7
  1419 ;; This function calls:
  1420 ;;		_delay
  1421 ;;		_send_config
  1422 ;;		_uart_init
  1423 ;;		_ar_i2c_initialize
  1424 ;;		_ar1000_init
  1425 ;;		_send_string
  1426 ;;		_lcd_goto
  1427 ;;		_uart_sendstr
  1428 ;;		_set_vol
  1429 ;;		_lcd_clr
  1430 ;;		_eeprom_read
  1431 ;;		_eprom_write
  1432 ;;		_switch_channel
  1433 ;;		_adjust_channel
  1434 ;;		_adjust_vol
  1435 ;; This function is called by:
  1436 ;;		Startup code after reset
  1437 ;; This function uses a non-reentrant model
  1438 ;;
  1439                           psect	maintext
  1440                           	file	"C:\Users\Phang\Desktop\9.80\PR 31\PR31_final.c"
  1441                           	line	116
  1442                           	global	__size_of_main
  1443  012C                     	__size_of_main	equ	__end_of_main-_main
  1444                           	
  1445  02A2                     _main:	
  1446                           	opt	stack 1
  1447                           ; Regs used in _main: [wreg-fsr0h+status,2+status,0+btemp+1+pclath+cstack]
  1448                           	line	118
  1449                           	
  1450  02A2                     l3818:	
  1451                           ;PR31_final.c: 118: delay(5000);
  1452  02A2  3000               	movlw	0
  1453  02A3  00F3               	movwf	(?_delay+3)
  1454  02A4  3000               	movlw	0
  1455  02A5  00F2               	movwf	(?_delay+2)
  1456  02A6  3013               	movlw	013h
  1457  02A7  00F1               	movwf	(?_delay+1)
  1458  02A8  3088               	movlw	088h
  1459  02A9  00F0               	movwf	(?_delay)
  1460                           
  1461  02AA  120A  118A  2004   	fcall	_delay
              120A  118A         
  1462                           	line	120
  1463                           	
  1464  02AF                     l3820:	
  1465                           ;PR31_final.c: 120: TRISA = 0b11111111;
  1466  02AF  30FF               	movlw	(0FFh)
  1467  02B0  1683               	bsf	status, 5	;RP0=1, select bank1
  1468  02B1  1303               	bcf	status, 6	;RP1=0, select bank1
  1469  02B2  0085               	movwf	(133)^080h	;volatile
  1470                           	line	121
  1471                           	
  1472  02B3                     l3822:	
  1473                           ;PR31_final.c: 121: TRISB = 0b00001111;
  1474  02B3  300F               	movlw	(0Fh)
  1475  02B4  0086               	movwf	(134)^080h	;volatile
  1476                           	line	122
  1477                           	
  1478  02B5                     l3824:	
  1479                           ;PR31_final.c: 122: TRISD = 0b00000000;
  1480  02B5  0188               	clrf	(136)^080h	;volatile
  1481                           	line	123
  1482                           	
  1483  02B6                     l3826:	
  1484                           ;PR31_final.c: 123: PORTA = 0;
  1485  02B6  1283               	bcf	status, 5	;RP0=0, select bank0
  1486  02B7  1303               	bcf	status, 6	;RP1=0, select bank0
  1487  02B8  0185               	clrf	(5)	;volatile
  1488                           	line	124
  1489                           	
  1490  02B9                     l3828:	
  1491                           ;PR31_final.c: 124: PORTB = 0;
  1492  02B9  0186               	clrf	(6)	;volatile
  1493                           	line	125
  1494                           	
  1495  02BA                     l3830:	
  1496                           ;PR31_final.c: 125: PORTD = 0;
  1497  02BA  0188               	clrf	(8)	;volatile
  1498                           	line	129
  1499                           ;PR31_final.c: 129: send_config(0b00000001);
  1500  02BB  3001               	movlw	(01h)
  1501  02BC  120A  158A  2327   	fcall	_send_config
              120A  118A         
  1502                           	line	130
  1503                           ;PR31_final.c: 130: send_config(0b00000010);
  1504  02C1  3002               	movlw	(02h)
  1505  02C2  120A  158A  2327   	fcall	_send_config
              120A  118A         
  1506                           	line	131
  1507                           ;PR31_final.c: 131: send_config(0b00000110);
  1508  02C7  3006               	movlw	(06h)
  1509  02C8  120A  158A  2327   	fcall	_send_config
              120A  118A         
  1510                           	line	132
  1511                           ;PR31_final.c: 132: send_config(0b00001100);
  1512  02CD  300C               	movlw	(0Ch)
  1513  02CE  120A  158A  2327   	fcall	_send_config
              120A  118A         
  1514                           	line	133
  1515                           ;PR31_final.c: 133: send_config(0b00111000);
  1516  02D3  3038               	movlw	(038h)
  1517  02D4  120A  158A  2327   	fcall	_send_config
              120A  118A         
  1518                           	line	136
  1519                           ;PR31_final.c: 136: uart_init();
  1520  02D9  120A  158A  2312   	fcall	_uart_init
              120A  118A         
  1521                           	line	137
  1522                           ;PR31_final.c: 137: ar_i2c_initialize();
  1523  02DE  120A  158A  22E0   	fcall	_ar_i2c_initialize
              120A  118A         
  1524                           	line	138
  1525                           	
  1526  02E3                     l3832:	
  1527                           ;PR31_final.c: 138: ar1000_init();
  1528  02E3  120A  118A  2034   	fcall	_ar1000_init
              120A  118A         
  1529                           	line	140
  1530                           	
  1531  02E8                     l3834:	
  1532                           ;PR31_final.c: 140: send_string("PR31 :");
  1533  02E8  305E               	movlw	((STR_1-__stringbase))&0ffh
  1534  02E9  120A  158A  2410   	fcall	_send_string
              120A  118A         
  1535                           	line	141
  1536                           	
  1537  02EE                     l3836:	
  1538                           ;PR31_final.c: 141: lcd_goto(20);
  1539  02EE  3014               	movlw	(014h)
  1540  02EF  120A  158A  2373   	fcall	_lcd_goto
              120A  118A         
  1541                           	line	142
  1542                           	
  1543  02F4                     l3838:	
  1544                           ;PR31_final.c: 142: send_string("Digital Radio");
  1545  02F4  3008               	movlw	((STR_2-__stringbase))&0ffh
  1546  02F5  120A  158A  2410   	fcall	_send_string
              120A  118A         
  1547                           	line	143
  1548                           	
  1549  02FA                     l3840:	
  1550                           ;PR31_final.c: 143: uart_sendstr("PR31 = Digital Radio");
  1551  02FA  3001               	movlw	((STR_3-__stringbase))&0ffh
  1552  02FB  120A  158A  2467   	fcall	_uart_sendstr
              120A  118A         
  1553                           	line	144
  1554                           	
  1555  0300                     l3842:	
  1556                           ;PR31_final.c: 144: set_vol(8);
  1557  0300  3008               	movlw	(08h)
  1558  0301  120A  158A  2755   	fcall	_set_vol
              120A  118A         
  1559                           	line	145
  1560                           	
  1561  0306                     l3844:	
  1562                           ;PR31_final.c: 145: delay(150000);
  1563  0306  3000               	movlw	0
  1564  0307  00F3               	movwf	(?_delay+3)
  1565  0308  3002               	movlw	02h
  1566  0309  00F2               	movwf	(?_delay+2)
  1567  030A  3049               	movlw	049h
  1568  030B  00F1               	movwf	(?_delay+1)
  1569  030C  30F0               	movlw	0F0h
  1570  030D  00F0               	movwf	(?_delay)
  1571                           
  1572  030E  120A  118A  2004   	fcall	_delay
              120A  118A         
  1573                           	line	147
  1574                           	
  1575  0313                     l3846:	
  1576                           ;PR31_final.c: 147: lcd_clr();
  1577  0313  120A  158A  2359   	fcall	_lcd_clr
              120A  118A         
  1578                           	line	148
  1579                           ;PR31_final.c: 148: send_string("sw1=chan sw2=vol");
  1580  0318  3027               	movlw	((STR_4-__stringbase))&0ffh
  1581  0319  120A  158A  2410   	fcall	_send_string
              120A  118A         
  1582                           	line	149
  1583                           ;PR31_final.c: 149: uart_sendstr("sw1=chan sw2=vol");
  1584  031E  3027               	movlw	((STR_5-__stringbase))&0ffh
  1585  031F  120A  158A  2467   	fcall	_uart_sendstr
              120A  118A         
  1586                           	line	150
  1587                           	
  1588  0324                     l3848:	
  1589                           ;PR31_final.c: 150: lcd_goto(20);
  1590  0324  3014               	movlw	(014h)
  1591  0325  120A  158A  2373   	fcall	_lcd_goto
              120A  118A         
  1592                           	line	151
  1593                           	
  1594  032A                     l3850:	
  1595                           ;PR31_final.c: 151: send_string("sw1(1s)=set");
  1596  032A  3038               	movlw	((STR_6-__stringbase))&0ffh
  1597  032B  120A  158A  2410   	fcall	_send_string
              120A  118A         
  1598                           	line	152
  1599                           	
  1600  0330                     l3852:	
  1601                           ;PR31_final.c: 152: uart_sendstr("sw1(1s)=set");
  1602  0330  3038               	movlw	((STR_7-__stringbase))&0ffh
  1603  0331  120A  158A  2467   	fcall	_uart_sendstr
              120A  118A         
  1604                           	line	155
  1605                           	
  1606  0336                     l3854:	
  1607                           ;PR31_final.c: 155: for (i=1;i<7;i++)
  1608  0336  1283               	bcf	status, 5	;RP0=0, select bank0
  1609  0337  1303               	bcf	status, 6	;RP1=0, select bank0
  1610  0338  01E7               	clrf	(_i)
  1611  0339  1403               	bsf	status,0
  1612  033A  0DE7               	rlf	(_i),f
  1613                           	
  1614  033B                     l3856:	
  1615  033B  3007               	movlw	(07h)
  1616  033C  0267               	subwf	(_i),w
  1617  033D  1C03               	skipc
  1618  033E  2B40               	goto	u4121
  1619  033F  2B41               	goto	u4120
  1620  0340                     u4121:
  1621  0340  2B43               	goto	l3860
  1622  0341                     u4120:
  1623  0341  2B88               	goto	l1281
  1624                           	
  1625  0342                     l3858:	
  1626  0342  2B88               	goto	l1281
  1627                           	line	156
  1628                           	
  1629  0343                     l1278:	
  1630                           	line	157
  1631                           	
  1632  0343                     l3860:	
  1633                           ;PR31_final.c: 156: {
  1634                           ;PR31_final.c: 157: freq_kHz = eeprom_read(i);
  1635  0343  0867               	movf	(_i),w
  1636  0344  120A  158A  23CE   	fcall	_eeprom_read
              120A  118A         
  1637  0349  1283               	bcf	status, 5	;RP0=0, select bank0
  1638  034A  1303               	bcf	status, 6	;RP1=0, select bank0
  1639  034B  00C8               	movwf	(??_main+0)+0
  1640  034C  01C9               	clrf	((??_main+0)+0+1)
  1641  034D  01CA               	clrf	((??_main+0)+0+2)
  1642  034E  01CB               	clrf	((??_main+0)+0+3)
  1643  034F  084B               	movf	3+(??_main+0)+0,w
  1644  0350  00E4               	movwf	(_freq_kHz+3)
  1645  0351  084A               	movf	2+(??_main+0)+0,w
  1646  0352  00E3               	movwf	(_freq_kHz+2)
  1647  0353  0849               	movf	1+(??_main+0)+0,w
  1648  0354  00E2               	movwf	(_freq_kHz+1)
  1649  0355  0848               	movf	0+(??_main+0)+0,w
  1650  0356  00E1               	movwf	(_freq_kHz)
  1651                           
  1652                           	line	158
  1653                           	
  1654  0357                     l3862:	
  1655                           ;PR31_final.c: 158: if (freq_kHz==255)
  1656  0357  3000               	movlw	0
  1657  0358  0664               	xorwf	(_freq_kHz+3),w
  1658  0359  1D03               	skipz
  1659  035A  2B65               	goto	u4135
  1660  035B  3000               	movlw	0
  1661  035C  0663               	xorwf	(_freq_kHz+2),w
  1662  035D  1D03               	skipz
  1663  035E  2B65               	goto	u4135
  1664  035F  3000               	movlw	0
  1665  0360  0662               	xorwf	(_freq_kHz+1),w
  1666  0361  1D03               	skipz
  1667  0362  2B65               	goto	u4135
  1668  0363  30FF               	movlw	0FFh
  1669  0364  0661               	xorwf	(_freq_kHz),w
  1670  0365                     u4135:
  1671  0365  1D03               	skipz
  1672  0366  2B68               	goto	u4131
  1673  0367  2B69               	goto	u4130
  1674  0368                     u4131:
  1675  0368  2B7B               	goto	l3866
  1676  0369                     u4130:
  1677                           	line	159
  1678                           	
  1679  0369                     l3864:	
  1680                           ;PR31_final.c: 159: eprom_write (i,prog_chan[i]);
  1681  0369  0867               	movf	(_i),w
  1682  036A  3E56               	addlw	_prog_chan&0ffh
  1683  036B  0084               	movwf	fsr0
  1684  036C  1383               	bcf	status, 7	;select IRP bank0
  1685  036D  0800               	movf	indf,w
  1686  036E  00C8               	movwf	(??_main+0)+0
  1687  036F  01C9               	clrf	(??_main+0)+0+1
  1688  0370  0848               	movf	0+(??_main+0)+0,w
  1689  0371  00F0               	movwf	(?_eprom_write)
  1690  0372  0849               	movf	1+(??_main+0)+0,w
  1691  0373  00F1               	movwf	(?_eprom_write+1)
  1692  0374  0867               	movf	(_i),w
  1693  0375  120A  158A  2390   	fcall	_eprom_write
              120A  118A         
  1694  037A  2B7B               	goto	l3866
  1695                           	
  1696  037B                     l1280:	
  1697                           	line	155
  1698                           	
  1699  037B                     l3866:	
  1700  037B  3001               	movlw	(01h)
  1701  037C  1283               	bcf	status, 5	;RP0=0, select bank0
  1702  037D  1303               	bcf	status, 6	;RP1=0, select bank0
  1703  037E  00C8               	movwf	(??_main+0)+0
  1704  037F  0848               	movf	(??_main+0)+0,w
  1705  0380  07E7               	addwf	(_i),f
  1706                           	
  1707  0381                     l3868:	
  1708  0381  3007               	movlw	(07h)
  1709  0382  0267               	subwf	(_i),w
  1710  0383  1C03               	skipc
  1711  0384  2B86               	goto	u4141
  1712  0385  2B87               	goto	u4140
  1713  0386                     u4141:
  1714  0386  2B43               	goto	l3860
  1715  0387                     u4140:
  1716  0387  2B88               	goto	l1281
  1717                           	
  1718  0388                     l1279:	
  1719                           	line	162
  1720                           ;PR31_final.c: 160: }
  1721                           ;PR31_final.c: 162: while(1)
  1722                           	
  1723  0388                     l1281:	
  1724                           	line	165
  1725                           ;PR31_final.c: 163: {
  1726                           ;PR31_final.c: 165: if(RB0==0)
  1727  0388  1283               	bcf	status, 5	;RP0=0, select bank0
  1728  0389  1303               	bcf	status, 6	;RP1=0, select bank0
  1729  038A  1806               	btfsc	(48/8),(48)&7
  1730  038B  2B8D               	goto	u4151
  1731  038C  2B8E               	goto	u4150
  1732  038D                     u4151:
  1733  038D  2BA0               	goto	l3874
  1734  038E                     u4150:
  1735  038E  2B90               	goto	l1283
  1736                           	line	167
  1737                           	
  1738  038F                     l3870:	
  1739                           ;PR31_final.c: 166: {
  1740                           ;PR31_final.c: 167: while (RB0==0);
  1741  038F  2B90               	goto	l1283
  1742                           	
  1743  0390                     l1284:	
  1744                           	
  1745  0390                     l1283:	
  1746  0390  1C06               	btfss	(48/8),(48)&7
  1747  0391  2B93               	goto	u4161
  1748  0392  2B94               	goto	u4160
  1749  0393                     u4161:
  1750  0393  2B90               	goto	l1283
  1751  0394                     u4160:
  1752  0394  2B95               	goto	l3872
  1753                           	
  1754  0395                     l1285:	
  1755                           	line	168
  1756                           	
  1757  0395                     l3872:	
  1758                           ;PR31_final.c: 168: switch_channel();
  1759  0395  120A  158A  251E   	fcall	_switch_channel
              120A  118A         
  1760                           	line	169
  1761                           ;PR31_final.c: 169: adjust_channel();
  1762  039A  120A  118A  2516   	fcall	_adjust_channel
              120A  118A         
  1763  039F  2BA0               	goto	l3874
  1764                           	line	170
  1765                           	
  1766  03A0                     l1282:	
  1767                           	line	172
  1768                           	
  1769  03A0                     l3874:	
  1770                           ;PR31_final.c: 170: }
  1771                           ;PR31_final.c: 172: if (RB1 == 0)
  1772  03A0  1283               	bcf	status, 5	;RP0=0, select bank0
  1773  03A1  1303               	bcf	status, 6	;RP1=0, select bank0
  1774  03A2  1886               	btfsc	(49/8),(49)&7
  1775  03A3  2BA5               	goto	u4171
  1776  03A4  2BA6               	goto	u4170
  1777  03A5                     u4171:
  1778  03A5  2B88               	goto	l1281
  1779  03A6                     u4170:
  1780  03A6  2BA8               	goto	l1287
  1781                           	line	174
  1782                           	
  1783  03A7                     l3876:	
  1784                           ;PR31_final.c: 173: {
  1785                           ;PR31_final.c: 174: while (RB1 == 0);
  1786  03A7  2BA8               	goto	l1287
  1787                           	
  1788  03A8                     l1288:	
  1789                           	
  1790  03A8                     l1287:	
  1791  03A8  1C86               	btfss	(49/8),(49)&7
  1792  03A9  2BAB               	goto	u4181
  1793  03AA  2BAC               	goto	u4180
  1794  03AB                     u4181:
  1795  03AB  2BA8               	goto	l1287
  1796  03AC                     u4180:
  1797  03AC  2BAD               	goto	l3878
  1798                           	
  1799  03AD                     l1289:	
  1800                           	line	175
  1801                           	
  1802  03AD                     l3878:	
  1803                           ;PR31_final.c: 175: lcd_goto(0);
  1804  03AD  3000               	movlw	(0)
  1805  03AE  120A  158A  2373   	fcall	_lcd_goto
              120A  118A         
  1806                           	line	176
  1807                           	
  1808  03B3                     l3880:	
  1809                           ;PR31_final.c: 176: send_string("volume level=   ");
  1810  03B3  3016               	movlw	((STR_8-__stringbase))&0ffh
  1811  03B4  120A  158A  2410   	fcall	_send_string
              120A  118A         
  1812                           	line	177
  1813                           	
  1814  03B9                     l3882:	
  1815                           ;PR31_final.c: 177: uart_sendstr("volume level=   ");
  1816  03B9  3016               	movlw	((STR_9-__stringbase))&0ffh
  1817  03BA  120A  158A  2467   	fcall	_uart_sendstr
              120A  118A         
  1818                           	line	178
  1819                           	
  1820  03BF                     l3884:	
  1821                           ;PR31_final.c: 178: m -= 1;
  1822  03BF  3001               	movlw	low(01h)
  1823  03C0  1283               	bcf	status, 5	;RP0=0, select bank0
  1824  03C1  1303               	bcf	status, 6	;RP1=0, select bank0
  1825  03C2  02E8               	subwf	(_m),f
  1826                           	line	179
  1827                           	
  1828  03C3                     l3886:	
  1829                           ;PR31_final.c: 179: adjust_vol ();
  1830  03C3  120A  118A  20E2   	fcall	_adjust_vol
              120A  118A         
  1831  03C8  2B88               	goto	l1281
  1832                           	line	180
  1833                           	
  1834  03C9                     l1286:	
  1835  03C9  2B88               	goto	l1281
  1836                           	line	182
  1837                           	
  1838  03CA                     l1290:	
  1839                           	line	162
  1840  03CA  2B88               	goto	l1281
  1841                           	
  1842  03CB                     l1291:	
  1843                           	line	183
  1844                           	
  1845  03CB                     l1292:	
  1846                           	global	start
  1847  03CB  120A  118A  2800   	ljmp	start
  1848                           	opt stack 0
  1849                           GLOBAL	__end_of_main
  1850  03CE                     	__end_of_main:
  1851 ;; =============== function _main ends ============
  1852                           
  1853                           	signat	_main,90
  1854                           	global	_adjust_channel
  1855                           psect	text607,local,class=CODE,delta=2
  1856                           global __ptext607
  1857  0516                     __ptext607:
  1858                           
  1859 ;; *************** function _adjust_channel *****************
  1860 ;; Defined at:
  1861 ;;		line 209 in file "C:\Users\Phang\Desktop\9.80\PR 31\PR31_final.c"
  1862 ;; Parameters:    Size  Location     Type
  1863 ;;		None
  1864 ;; Auto vars:     Size  Location     Type
  1865 ;;  press           2   38[BANK0 ] unsigned int 
  1866 ;;  press           2   36[BANK0 ] unsigned int 
  1867 ;;  press           2   34[BANK0 ] unsigned int 
  1868 ;; Return value:  Size  Location     Type
  1869 ;;		None               void
  1870 ;; Registers used:
  1871 ;;		wreg, fsr0l, fsr0h, status,2, status,0, btemp+1, pclath, cstack
  1872 ;; Tracked objects:
  1873 ;;		On entry : 0/0
  1874 ;;		On exit  : 0/0
  1875 ;;		Unchanged: 0/0
  1876 ;; Data sizes:     COMMON   BANK0   BANK1   BANK3   BANK2
  1877 ;;      Params:         0       0       0       0       0
  1878 ;;      Locals:         0       6       0       0       0
  1879 ;;      Temps:          0       0       0       0       0
  1880 ;;      Totals:         0       6       0       0       0
  1881 ;;Total ram usage:        6 bytes
  1882 ;; Hardware stack levels used:    1
  1883 ;; Hardware stack levels required when called:    6
  1884 ;; This function calls:
  1885 ;;		_decrease_chan
  1886 ;;		_delay
  1887 ;;		_increase_chan
  1888 ;;		_eprom_write
  1889 ;;		_lcd_clr
  1890 ;;		_send_string
  1891 ;;		_uart_sendstr
  1892 ;;		_send_char
  1893 ;;		_uart_tx
  1894 ;;		_send_dec
  1895 ;;		_switch_channel
  1896 ;;		_lcd_goto
  1897 ;;		_adjust_vol
  1898 ;; This function is called by:
  1899 ;;		_main
  1900 ;; This function uses a non-reentrant model
  1901 ;;
  1902                           psect	text607
  1903                           	file	"C:\Users\Phang\Desktop\9.80\PR 31\PR31_final.c"
  1904                           	line	209
  1905                           	global	__size_of_adjust_channel
  1906  0153                     	__size_of_adjust_channel	equ	__end_of_adjust_channel-_adjust_channel
  1907                           	
  1908  0516                     _adjust_channel:	
  1909                           	opt	stack 1
  1910                           ; Regs used in _adjust_channel: [wreg-fsr0h+status,2+status,0+btemp+1+pclath+cstack]
  1911                           	line	210
  1912                           ;PR31_final.c: 210: while(1)
  1913                           	
  1914  0516                     l1299:	
  1915                           	line	212
  1916                           ;PR31_final.c: 211: {
  1917                           ;PR31_final.c: 212: if (RB3 == 0)
  1918  0516  1283               	bcf	status, 5	;RP0=0, select bank0
  1919  0517  1303               	bcf	status, 6	;RP1=0, select bank0
  1920  0518  1986               	btfsc	(51/8),(51)&7
  1921  0519  2D1B               	goto	u4001
  1922  051A  2D1C               	goto	u4000
  1923  051B                     u4001:
  1924  051B  2D5E               	goto	l3760
  1925  051C                     u4000:
  1926                           	line	214
  1927                           	
  1928  051C                     l3746:	
  1929                           ;PR31_final.c: 213: {
  1930                           ;PR31_final.c: 214: unsigned int press=0;
  1931  051C  3000               	movlw	low(0)
  1932  051D  00C2               	movwf	(adjust_channel@press)
  1933  051E  3000               	movlw	high(0)
  1934  051F  00C3               	movwf	((adjust_channel@press))+1
  1935                           	line	215
  1936                           ;PR31_final.c: 215: while (RB3==0)
  1937  0520  2D44               	goto	l3754
  1938                           	
  1939  0521                     l1302:	
  1940                           	line	217
  1941                           	
  1942  0521                     l3748:	
  1943                           ;PR31_final.c: 216: {
  1944                           ;PR31_final.c: 217: press += 1;
  1945  0521  3001               	movlw	low(01h)
  1946  0522  07C2               	addwf	(adjust_channel@press),f
  1947  0523  1803               	skipnc
  1948  0524  0AC3               	incf	(adjust_channel@press+1),f
  1949  0525  3000               	movlw	high(01h)
  1950  0526  07C3               	addwf	(adjust_channel@press+1),f
  1951                           	line	218
  1952                           ;PR31_final.c: 218: if (press >= 650)
  1953  0527  3002               	movlw	high(028Ah)
  1954  0528  0243               	subwf	(adjust_channel@press+1),w
  1955  0529  308A               	movlw	low(028Ah)
  1956  052A  1903               	skipnz
  1957  052B  0242               	subwf	(adjust_channel@press),w
  1958  052C  1C03               	skipc
  1959  052D  2D2F               	goto	u4011
  1960  052E  2D30               	goto	u4010
  1961  052F                     u4011:
  1962  052F  2D36               	goto	l3752
  1963  0530                     u4010:
  1964                           	line	219
  1965                           	
  1966  0530                     l3750:	
  1967                           ;PR31_final.c: 219: decrease_chan();
  1968  0530  120A  158A  2658   	fcall	_decrease_chan
              120A  118A         
  1969  0535  2D36               	goto	l3752
  1970                           	
  1971  0536                     l1303:	
  1972                           	line	220
  1973                           	
  1974  0536                     l3752:	
  1975                           ;PR31_final.c: 220: delay(100);
  1976  0536  3000               	movlw	0
  1977  0537  00F3               	movwf	(?_delay+3)
  1978  0538  3000               	movlw	0
  1979  0539  00F2               	movwf	(?_delay+2)
  1980  053A  3000               	movlw	0
  1981  053B  00F1               	movwf	(?_delay+1)
  1982  053C  3064               	movlw	064h
  1983  053D  00F0               	movwf	(?_delay)
  1984                           
  1985  053E  120A  118A  2004   	fcall	_delay
              120A  118A         
  1986  0543  2D44               	goto	l3754
  1987                           	line	221
  1988                           	
  1989  0544                     l1301:	
  1990                           	line	215
  1991                           	
  1992  0544                     l3754:	
  1993  0544  1283               	bcf	status, 5	;RP0=0, select bank0
  1994  0545  1303               	bcf	status, 6	;RP1=0, select bank0
  1995  0546  1D86               	btfss	(51/8),(51)&7
  1996  0547  2D49               	goto	u4021
  1997  0548  2D4A               	goto	u4020
  1998  0549                     u4021:
  1999  0549  2D21               	goto	l3748
  2000  054A                     u4020:
  2001  054A  2D4B               	goto	l3756
  2002                           	
  2003  054B                     l1304:	
  2004                           	line	222
  2005                           	
  2006  054B                     l3756:	
  2007                           ;PR31_final.c: 221: }
  2008                           ;PR31_final.c: 222: decrease_chan();
  2009  054B  120A  158A  2658   	fcall	_decrease_chan
              120A  118A         
  2010                           	line	223
  2011                           	
  2012  0550                     l3758:	
  2013                           ;PR31_final.c: 223: delay(1000);
  2014  0550  3000               	movlw	0
  2015  0551  00F3               	movwf	(?_delay+3)
  2016  0552  3000               	movlw	0
  2017  0553  00F2               	movwf	(?_delay+2)
  2018  0554  3003               	movlw	03h
  2019  0555  00F1               	movwf	(?_delay+1)
  2020  0556  30E8               	movlw	0E8h
  2021  0557  00F0               	movwf	(?_delay)
  2022                           
  2023  0558  120A  118A  2004   	fcall	_delay
              120A  118A         
  2024  055D  2D5E               	goto	l3760
  2025                           	line	224
  2026                           	
  2027  055E                     l1300:	
  2028                           	line	226
  2029                           	
  2030  055E                     l3760:	
  2031                           ;PR31_final.c: 224: }
  2032                           ;PR31_final.c: 226: if (RB2 == 0)
  2033  055E  1283               	bcf	status, 5	;RP0=0, select bank0
  2034  055F  1303               	bcf	status, 6	;RP1=0, select bank0
  2035  0560  1906               	btfsc	(50/8),(50)&7
  2036  0561  2D63               	goto	u4031
  2037  0562  2D64               	goto	u4030
  2038  0563                     u4031:
  2039  0563  2DA6               	goto	l3776
  2040  0564                     u4030:
  2041                           	line	228
  2042                           	
  2043  0564                     l3762:	
  2044                           ;PR31_final.c: 227: {
  2045                           ;PR31_final.c: 228: unsigned int press=0;
  2046  0564  3000               	movlw	low(0)
  2047  0565  00C4               	movwf	(adjust_channel@press_719)
  2048  0566  3000               	movlw	high(0)
  2049  0567  00C5               	movwf	((adjust_channel@press_719))+1
  2050                           	line	229
  2051                           ;PR31_final.c: 229: while (RB2==0)
  2052  0568  2D8C               	goto	l3770
  2053                           	
  2054  0569                     l1307:	
  2055                           	line	231
  2056                           	
  2057  0569                     l3764:	
  2058                           ;PR31_final.c: 230: {
  2059                           ;PR31_final.c: 231: press += 1;
  2060  0569  3001               	movlw	low(01h)
  2061  056A  07C4               	addwf	(adjust_channel@press_719),f
  2062  056B  1803               	skipnc
  2063  056C  0AC5               	incf	(adjust_channel@press_719+1),f
  2064  056D  3000               	movlw	high(01h)
  2065  056E  07C5               	addwf	(adjust_channel@press_719+1),f
  2066                           	line	232
  2067                           ;PR31_final.c: 232: if (press >= 650)
  2068  056F  3002               	movlw	high(028Ah)
  2069  0570  0245               	subwf	(adjust_channel@press_719+1),w
  2070  0571  308A               	movlw	low(028Ah)
  2071  0572  1903               	skipnz
  2072  0573  0244               	subwf	(adjust_channel@press_719),w
  2073  0574  1C03               	skipc
  2074  0575  2D77               	goto	u4041
  2075  0576  2D78               	goto	u4040
  2076  0577                     u4041:
  2077  0577  2D7E               	goto	l3768
  2078  0578                     u4040:
  2079                           	line	233
  2080                           	
  2081  0578                     l3766:	
  2082                           ;PR31_final.c: 233: increase_chan();
  2083  0578  120A  158A  2582   	fcall	_increase_chan
              120A  118A         
  2084  057D  2D7E               	goto	l3768
  2085                           	
  2086  057E                     l1308:	
  2087                           	line	234
  2088                           	
  2089  057E                     l3768:	
  2090                           ;PR31_final.c: 234: delay(100);
  2091  057E  3000               	movlw	0
  2092  057F  00F3               	movwf	(?_delay+3)
  2093  0580  3000               	movlw	0
  2094  0581  00F2               	movwf	(?_delay+2)
  2095  0582  3000               	movlw	0
  2096  0583  00F1               	movwf	(?_delay+1)
  2097  0584  3064               	movlw	064h
  2098  0585  00F0               	movwf	(?_delay)
  2099                           
  2100  0586  120A  118A  2004   	fcall	_delay
              120A  118A         
  2101  058B  2D8C               	goto	l3770
  2102                           	line	235
  2103                           	
  2104  058C                     l1306:	
  2105                           	line	229
  2106                           	
  2107  058C                     l3770:	
  2108  058C  1283               	bcf	status, 5	;RP0=0, select bank0
  2109  058D  1303               	bcf	status, 6	;RP1=0, select bank0
  2110  058E  1D06               	btfss	(50/8),(50)&7
  2111  058F  2D91               	goto	u4051
  2112  0590  2D92               	goto	u4050
  2113  0591                     u4051:
  2114  0591  2D69               	goto	l3764
  2115  0592                     u4050:
  2116  0592  2D93               	goto	l3772
  2117                           	
  2118  0593                     l1309:	
  2119                           	line	236
  2120                           	
  2121  0593                     l3772:	
  2122                           ;PR31_final.c: 235: }
  2123                           ;PR31_final.c: 236: increase_chan();
  2124  0593  120A  158A  2582   	fcall	_increase_chan
              120A  118A         
  2125                           	line	237
  2126                           	
  2127  0598                     l3774:	
  2128                           ;PR31_final.c: 237: delay(1000);
  2129  0598  3000               	movlw	0
  2130  0599  00F3               	movwf	(?_delay+3)
  2131  059A  3000               	movlw	0
  2132  059B  00F2               	movwf	(?_delay+2)
  2133  059C  3003               	movlw	03h
  2134  059D  00F1               	movwf	(?_delay+1)
  2135  059E  30E8               	movlw	0E8h
  2136  059F  00F0               	movwf	(?_delay)
  2137                           
  2138  05A0  120A  118A  2004   	fcall	_delay
              120A  118A         
  2139  05A5  2DA6               	goto	l3776
  2140                           	line	238
  2141                           	
  2142  05A6                     l1305:	
  2143                           	line	240
  2144                           	
  2145  05A6                     l3776:	
  2146                           ;PR31_final.c: 238: }
  2147                           ;PR31_final.c: 240: if (RB0 == 0)
  2148  05A6  1283               	bcf	status, 5	;RP0=0, select bank0
  2149  05A7  1303               	bcf	status, 6	;RP1=0, select bank0
  2150  05A8  1806               	btfsc	(48/8),(48)&7
  2151  05A9  2DAB               	goto	u4061
  2152  05AA  2DAC               	goto	u4060
  2153  05AB                     u4061:
  2154  05AB  2E3D               	goto	l3804
  2155  05AC                     u4060:
  2156                           	line	241
  2157                           	
  2158  05AC                     l3778:	
  2159                           ;PR31_final.c: 241: { unsigned int press=0;
  2160  05AC  3000               	movlw	low(0)
  2161  05AD  00C6               	movwf	(adjust_channel@press_720)
  2162  05AE  3000               	movlw	high(0)
  2163  05AF  00C7               	movwf	((adjust_channel@press_720))+1
  2164                           	line	242
  2165                           ;PR31_final.c: 242: while (RB0==0)
  2166  05B0  2E30               	goto	l3800
  2167                           	
  2168  05B1                     l1312:	
  2169                           	line	244
  2170                           	
  2171  05B1                     l3780:	
  2172                           ;PR31_final.c: 243: {
  2173                           ;PR31_final.c: 244: press += 1;
  2174  05B1  3001               	movlw	low(01h)
  2175  05B2  07C6               	addwf	(adjust_channel@press_720),f
  2176  05B3  1803               	skipnc
  2177  05B4  0AC7               	incf	(adjust_channel@press_720+1),f
  2178  05B5  3000               	movlw	high(01h)
  2179  05B6  07C7               	addwf	(adjust_channel@press_720+1),f
  2180                           	line	245
  2181                           ;PR31_final.c: 245: if (press >= 1300)
  2182  05B7  3005               	movlw	high(0514h)
  2183  05B8  0247               	subwf	(adjust_channel@press_720+1),w
  2184  05B9  3014               	movlw	low(0514h)
  2185  05BA  1903               	skipnz
  2186  05BB  0246               	subwf	(adjust_channel@press_720),w
  2187  05BC  1C03               	skipc
  2188  05BD  2DBF               	goto	u4071
  2189  05BE  2DC0               	goto	u4070
  2190  05BF                     u4071:
  2191  05BF  2E22               	goto	l3798
  2192  05C0                     u4070:
  2193                           	line	247
  2194                           	
  2195  05C0                     l3782:	
  2196                           ;PR31_final.c: 246: {
  2197                           ;PR31_final.c: 247: eprom_write(m,currentChannel);
  2198  05C0  085E               	movf	(_currentChannel+1),w
  2199  05C1  01F1               	clrf	(?_eprom_write+1)
  2200  05C2  07F1               	addwf	(?_eprom_write+1)
  2201  05C3  085D               	movf	(_currentChannel),w
  2202  05C4  01F0               	clrf	(?_eprom_write)
  2203  05C5  07F0               	addwf	(?_eprom_write)
  2204                           
  2205  05C6  0868               	movf	(_m),w
  2206  05C7  120A  158A  2390   	fcall	_eprom_write
              120A  118A         
  2207                           	line	248
  2208                           ;PR31_final.c: 248: lcd_clr();
  2209  05CC  120A  158A  2359   	fcall	_lcd_clr
              120A  118A         
  2210                           	line	249
  2211                           	
  2212  05D1                     l3784:	
  2213                           ;PR31_final.c: 249: send_string("channel ");
  2214  05D1  304D               	movlw	((STR_12-__stringbase))&0ffh
  2215  05D2  120A  158A  2410   	fcall	_send_string
              120A  118A         
  2216                           	line	250
  2217                           	
  2218  05D7                     l3786:	
  2219                           ;PR31_final.c: 250: uart_sendstr("channel ");
  2220  05D7  304D               	movlw	((STR_13-__stringbase))&0ffh
  2221  05D8  120A  158A  2467   	fcall	_uart_sendstr
              120A  118A         
  2222                           	line	251
  2223                           ;PR31_final.c: 251: send_char(0x30+m);
  2224  05DD  1283               	bcf	status, 5	;RP0=0, select bank0
  2225  05DE  1303               	bcf	status, 6	;RP1=0, select bank0
  2226  05DF  0868               	movf	(_m),w
  2227  05E0  3E30               	addlw	030h
  2228  05E1  120A  158A  2340   	fcall	_send_char
              120A  118A         
  2229                           	line	252
  2230                           ;PR31_final.c: 252: uart_tx(0x30+m);
  2231  05E6  1283               	bcf	status, 5	;RP0=0, select bank0
  2232  05E7  1303               	bcf	status, 6	;RP1=0, select bank0
  2233  05E8  0868               	movf	(_m),w
  2234  05E9  3E30               	addlw	030h
  2235  05EA  120A  158A  22D4   	fcall	_uart_tx
              120A  118A         
  2236                           	line	253
  2237                           	
  2238  05EF                     l3788:	
  2239                           ;PR31_final.c: 253: send_string(" setted");
  2240  05EF  3056               	movlw	((STR_14-__stringbase))&0ffh
  2241  05F0  120A  158A  2410   	fcall	_send_string
              120A  118A         
  2242                           	line	254
  2243                           	
  2244  05F5                     l3790:	
  2245                           ;PR31_final.c: 254: uart_sendstr(" setted");
  2246  05F5  3056               	movlw	((STR_15-__stringbase))&0ffh
  2247  05F6  120A  158A  2467   	fcall	_uart_sendstr
              120A  118A         
  2248                           	line	255
  2249                           	
  2250  05FB                     l3792:	
  2251                           ;PR31_final.c: 255: send_dec(currentChannel);
  2252  05FB  1283               	bcf	status, 5	;RP0=0, select bank0
  2253  05FC  1303               	bcf	status, 6	;RP1=0, select bank0
  2254  05FD  0860               	movf	(_currentChannel+3),w
  2255  05FE  00A3               	movwf	(?_send_dec+3)
  2256  05FF  085F               	movf	(_currentChannel+2),w
  2257  0600  00A2               	movwf	(?_send_dec+2)
  2258  0601  085E               	movf	(_currentChannel+1),w
  2259  0602  00A1               	movwf	(?_send_dec+1)
  2260  0603  085D               	movf	(_currentChannel),w
  2261  0604  00A0               	movwf	(?_send_dec)
  2262                           
  2263  0605  120A  118A  2669   	fcall	_send_dec
              120A  118A         
  2264                           	line	256
  2265                           ;PR31_final.c: 256: while (RB0==0);
  2266  060A  2E0B               	goto	l1314
  2267                           	
  2268  060B                     l1315:	
  2269                           	
  2270  060B                     l1314:	
  2271  060B  1283               	bcf	status, 5	;RP0=0, select bank0
  2272  060C  1303               	bcf	status, 6	;RP1=0, select bank0
  2273  060D  1C06               	btfss	(48/8),(48)&7
  2274  060E  2E10               	goto	u4081
  2275  060F  2E11               	goto	u4080
  2276  0610                     u4081:
  2277  0610  2E0B               	goto	l1314
  2278  0611                     u4080:
  2279  0611  2E12               	goto	l3794
  2280                           	
  2281  0612                     l1316:	
  2282                           	line	257
  2283                           	
  2284  0612                     l3794:	
  2285                           ;PR31_final.c: 257: m -= 1;
  2286  0612  3001               	movlw	low(01h)
  2287  0613  02E8               	subwf	(_m),f
  2288                           	line	258
  2289                           	
  2290  0614                     l3796:	
  2291                           ;PR31_final.c: 258: delay(2000);
  2292  0614  3000               	movlw	0
  2293  0615  00F3               	movwf	(?_delay+3)
  2294  0616  3000               	movlw	0
  2295  0617  00F2               	movwf	(?_delay+2)
  2296  0618  3007               	movlw	07h
  2297  0619  00F1               	movwf	(?_delay+1)
  2298  061A  30D0               	movlw	0D0h
  2299  061B  00F0               	movwf	(?_delay)
  2300                           
  2301  061C  120A  118A  2004   	fcall	_delay
              120A  118A         
  2302  0621  2E22               	goto	l3798
  2303                           	line	259
  2304                           	
  2305  0622                     l1313:	
  2306                           	line	260
  2307                           	
  2308  0622                     l3798:	
  2309                           ;PR31_final.c: 259: }
  2310                           ;PR31_final.c: 260: delay(100);
  2311  0622  3000               	movlw	0
  2312  0623  00F3               	movwf	(?_delay+3)
  2313  0624  3000               	movlw	0
  2314  0625  00F2               	movwf	(?_delay+2)
  2315  0626  3000               	movlw	0
  2316  0627  00F1               	movwf	(?_delay+1)
  2317  0628  3064               	movlw	064h
  2318  0629  00F0               	movwf	(?_delay)
  2319                           
  2320  062A  120A  118A  2004   	fcall	_delay
              120A  118A         
  2321  062F  2E30               	goto	l3800
  2322                           	line	262
  2323                           	
  2324  0630                     l1311:	
  2325                           	line	242
  2326                           	
  2327  0630                     l3800:	
  2328  0630  1283               	bcf	status, 5	;RP0=0, select bank0
  2329  0631  1303               	bcf	status, 6	;RP1=0, select bank0
  2330  0632  1C06               	btfss	(48/8),(48)&7
  2331  0633  2E35               	goto	u4091
  2332  0634  2E36               	goto	u4090
  2333  0635                     u4091:
  2334  0635  2DB1               	goto	l3780
  2335  0636                     u4090:
  2336  0636  2E37               	goto	l3802
  2337                           	
  2338  0637                     l1317:	
  2339                           	line	263
  2340                           	
  2341  0637                     l3802:	
  2342                           ;PR31_final.c: 262: }
  2343                           ;PR31_final.c: 263: switch_channel();
  2344  0637  120A  158A  251E   	fcall	_switch_channel
              120A  118A         
  2345  063C  2E3D               	goto	l3804
  2346                           	line	264
  2347                           	
  2348  063D                     l1310:	
  2349                           	line	266
  2350                           	
  2351  063D                     l3804:	
  2352                           ;PR31_final.c: 264: }
  2353                           ;PR31_final.c: 266: if (RB1 == 0)
  2354  063D  1283               	bcf	status, 5	;RP0=0, select bank0
  2355  063E  1303               	bcf	status, 6	;RP1=0, select bank0
  2356  063F  1886               	btfsc	(49/8),(49)&7
  2357  0640  2E42               	goto	u4101
  2358  0641  2E43               	goto	u4100
  2359  0642                     u4101:
  2360  0642  2D16               	goto	l1299
  2361  0643                     u4100:
  2362  0643  2E45               	goto	l1319
  2363                           	line	268
  2364                           	
  2365  0644                     l3806:	
  2366                           ;PR31_final.c: 267: {
  2367                           ;PR31_final.c: 268: while (RB1 == 0);
  2368  0644  2E45               	goto	l1319
  2369                           	
  2370  0645                     l1320:	
  2371                           	
  2372  0645                     l1319:	
  2373  0645  1C86               	btfss	(49/8),(49)&7
  2374  0646  2E48               	goto	u4111
  2375  0647  2E49               	goto	u4110
  2376  0648                     u4111:
  2377  0648  2E45               	goto	l1319
  2378  0649                     u4110:
  2379  0649  2E4A               	goto	l3808
  2380                           	
  2381  064A                     l1321:	
  2382                           	line	269
  2383                           	
  2384  064A                     l3808:	
  2385                           ;PR31_final.c: 269: lcd_goto(0);
  2386  064A  3000               	movlw	(0)
  2387  064B  120A  158A  2373   	fcall	_lcd_goto
              120A  118A         
  2388                           	line	270
  2389                           	
  2390  0650                     l3810:	
  2391                           ;PR31_final.c: 270: send_string("volume level=   ");
  2392  0650  3016               	movlw	((STR_16-__stringbase))&0ffh
  2393  0651  120A  158A  2410   	fcall	_send_string
              120A  118A         
  2394                           	line	271
  2395                           	
  2396  0656                     l3812:	
  2397                           ;PR31_final.c: 271: uart_sendstr("volume level=   ");
  2398  0656  3016               	movlw	((STR_17-__stringbase))&0ffh
  2399  0657  120A  158A  2467   	fcall	_uart_sendstr
              120A  118A         
  2400                           	line	272
  2401                           	
  2402  065C                     l3814:	
  2403                           ;PR31_final.c: 272: m -= 1;
  2404  065C  3001               	movlw	low(01h)
  2405  065D  1283               	bcf	status, 5	;RP0=0, select bank0
  2406  065E  1303               	bcf	status, 6	;RP1=0, select bank0
  2407  065F  02E8               	subwf	(_m),f
  2408                           	line	273
  2409                           	
  2410  0660                     l3816:	
  2411                           ;PR31_final.c: 273: adjust_vol ();
  2412  0660  120A  118A  20E2   	fcall	_adjust_vol
              120A  118A         
  2413  0665  2D16               	goto	l1299
  2414                           	line	274
  2415                           	
  2416  0666                     l1318:	
  2417  0666  2D16               	goto	l1299
  2418                           	line	275
  2419                           	
  2420  0667                     l1322:	
  2421                           	line	210
  2422  0667  2D16               	goto	l1299
  2423                           	
  2424  0668                     l1323:	
  2425                           	line	276
  2426                           	
  2427  0668                     l1324:	
  2428  0668  0008               	return
  2429                           	opt stack 0
  2430                           GLOBAL	__end_of_adjust_channel
  2431  0669                     	__end_of_adjust_channel:
  2432 ;; =============== function _adjust_channel ends ============
  2433                           
  2434                           	signat	_adjust_channel,88
  2435                           	global	_increase_chan
  2436                           psect	text608,local,class=CODE,delta=2
  2437                           global __ptext608
  2438  0D82                     __ptext608:
  2439                           
  2440 ;; *************** function _increase_chan *****************
  2441 ;; Defined at:
  2442 ;;		line 292 in file "C:\Users\Phang\Desktop\9.80\PR 31\PR31_final.c"
  2443 ;; Parameters:    Size  Location     Type
  2444 ;;		None
  2445 ;; Auto vars:     Size  Location     Type
  2446 ;;		None
  2447 ;; Return value:  Size  Location     Type
  2448 ;;		None               void
  2449 ;; Registers used:
  2450 ;;		wreg, fsr0l, fsr0h, status,2, status,0, btemp+1, pclath, cstack
  2451 ;; Tracked objects:
  2452 ;;		On entry : 0/0
  2453 ;;		On exit  : 0/0
  2454 ;;		Unchanged: 0/0
  2455 ;; Data sizes:     COMMON   BANK0   BANK1   BANK3   BANK2
  2456 ;;      Params:         0       0       0       0       0
  2457 ;;      Locals:         0       0       0       0       0
  2458 ;;      Temps:          0       0       0       0       0
  2459 ;;      Totals:         0       0       0       0       0
  2460 ;;Total ram usage:        0 bytes
  2461 ;; Hardware stack levels used:    1
  2462 ;; Hardware stack levels required when called:    5
  2463 ;; This function calls:
  2464 ;;		_setAR1000
  2465 ;;		_uart_tx
  2466 ;;		_uart_sendstr
  2467 ;;		_send_dec
  2468 ;;		_delay
  2469 ;; This function is called by:
  2470 ;;		_adjust_channel
  2471 ;; This function uses a non-reentrant model
  2472 ;;
  2473                           psect	text608
  2474                           	file	"C:\Users\Phang\Desktop\9.80\PR 31\PR31_final.c"
  2475                           	line	292
  2476                           	global	__size_of_increase_chan
  2477  0068                     	__size_of_increase_chan	equ	__end_of_increase_chan-_increase_chan
  2478                           	
  2479  0D82                     _increase_chan:	
  2480                           	opt	stack 1
  2481                           ; Regs used in _increase_chan: [wreg-fsr0h+status,2+status,0+btemp+1+pclath+cstack]
  2482                           	line	293
  2483                           	
  2484  0D82                     l3730:	
  2485                           ;PR31_final.c: 293: currentChannel +=1;
  2486  0D82  3001               	movlw	01h
  2487  0D83  1283               	bcf	status, 5	;RP0=0, select bank0
  2488  0D84  1303               	bcf	status, 6	;RP1=0, select bank0
  2489  0D85  07DD               	addwf	(_currentChannel),f
  2490  0D86  3000               	movlw	0
  2491  0D87  1803               	skipnc
  2492  0D88  3001               movlw 1
  2493  0D89  07DE               	addwf	(_currentChannel+1),f
  2494  0D8A  3000               	movlw	0
  2495  0D8B  1803               	skipnc
  2496  0D8C  3001               movlw 1
  2497  0D8D  07DF               	addwf	(_currentChannel+2),f
  2498  0D8E  3000               	movlw	0
  2499  0D8F  1803               	skipnc
  2500  0D90  3001               movlw 1
  2501  0D91  07E0               	addwf	(_currentChannel+3),f
  2502                           	line	294
  2503                           ;PR31_final.c: 294: if ( currentChannel >= 1080 )
  2504  0D92  3000               	movlw	0
  2505  0D93  0260               	subwf	(_currentChannel+3),w
  2506  0D94  1D03               	skipz
  2507  0D95  2DA0               	goto	u3995
  2508  0D96  3000               	movlw	0
  2509  0D97  025F               	subwf	(_currentChannel+2),w
  2510  0D98  1D03               	skipz
  2511  0D99  2DA0               	goto	u3995
  2512  0D9A  3004               	movlw	04h
  2513  0D9B  025E               	subwf	(_currentChannel+1),w
  2514  0D9C  1D03               	skipz
  2515  0D9D  2DA0               	goto	u3995
  2516  0D9E  3038               	movlw	038h
  2517  0D9F  025D               	subwf	(_currentChannel),w
  2518  0DA0                     u3995:
  2519  0DA0  1C03               	skipc
  2520  0DA1  2DA3               	goto	u3991
  2521  0DA2  2DA4               	goto	u3990
  2522  0DA3                     u3991:
  2523  0DA3  2DAD               	goto	l3734
  2524  0DA4                     u3990:
  2525                           	line	295
  2526                           	
  2527  0DA4                     l3732:	
  2528                           ;PR31_final.c: 295: currentChannel = 875;
  2529  0DA4  3000               	movlw	0
  2530  0DA5  00E0               	movwf	(_currentChannel+3)
  2531  0DA6  3000               	movlw	0
  2532  0DA7  00DF               	movwf	(_currentChannel+2)
  2533  0DA8  3003               	movlw	03h
  2534  0DA9  00DE               	movwf	(_currentChannel+1)
  2535  0DAA  306B               	movlw	06Bh
  2536  0DAB  00DD               	movwf	(_currentChannel)
  2537                           
  2538  0DAC  2DAD               	goto	l3734
  2539                           	
  2540  0DAD                     l1331:	
  2541                           	line	296
  2542                           	
  2543  0DAD                     l3734:	
  2544                           ;PR31_final.c: 296: setAR1000 (currentChannel);
  2545  0DAD  085E               	movf	(_currentChannel+1),w
  2546  0DAE  01AA               	clrf	(?_setAR1000+1)
  2547  0DAF  07AA               	addwf	(?_setAR1000+1)
  2548  0DB0  085D               	movf	(_currentChannel),w
  2549  0DB1  01A9               	clrf	(?_setAR1000)
  2550  0DB2  07A9               	addwf	(?_setAR1000)
  2551                           
  2552  0DB3  120A  118A  2191   	fcall	_setAR1000
              120A  158A         
  2553                           	line	297
  2554                           	
  2555  0DB8                     l3736:	
  2556                           ;PR31_final.c: 297: uart_tx(0x0C);
  2557  0DB8  300C               	movlw	(0Ch)
  2558  0DB9  120A  158A  22D4   	fcall	_uart_tx
              120A  158A         
  2559                           	line	298
  2560                           	
  2561  0DBE                     l3738:	
  2562                           ;PR31_final.c: 298: uart_sendstr("channel ");
  2563  0DBE  304D               	movlw	((STR_19-__stringbase))&0ffh
  2564  0DBF  120A  158A  2467   	fcall	_uart_sendstr
              120A  158A         
  2565                           	line	299
  2566                           	
  2567  0DC4                     l3740:	
  2568                           ;PR31_final.c: 299: uart_tx(0x30+m);
  2569  0DC4  1283               	bcf	status, 5	;RP0=0, select bank0
  2570  0DC5  1303               	bcf	status, 6	;RP1=0, select bank0
  2571  0DC6  0868               	movf	(_m),w
  2572  0DC7  3E30               	addlw	030h
  2573  0DC8  120A  158A  22D4   	fcall	_uart_tx
              120A  158A         
  2574                           	line	300
  2575                           	
  2576  0DCD                     l3742:	
  2577                           ;PR31_final.c: 300: send_dec(currentChannel);
  2578  0DCD  1283               	bcf	status, 5	;RP0=0, select bank0
  2579  0DCE  1303               	bcf	status, 6	;RP1=0, select bank0
  2580  0DCF  0860               	movf	(_currentChannel+3),w
  2581  0DD0  00A3               	movwf	(?_send_dec+3)
  2582  0DD1  085F               	movf	(_currentChannel+2),w
  2583  0DD2  00A2               	movwf	(?_send_dec+2)
  2584  0DD3  085E               	movf	(_currentChannel+1),w
  2585  0DD4  00A1               	movwf	(?_send_dec+1)
  2586  0DD5  085D               	movf	(_currentChannel),w
  2587  0DD6  00A0               	movwf	(?_send_dec)
  2588                           
  2589  0DD7  120A  118A  2669   	fcall	_send_dec
              120A  158A         
  2590                           	line	301
  2591                           	
  2592  0DDC                     l3744:	
  2593                           ;PR31_final.c: 301: delay(1500);
  2594  0DDC  3000               	movlw	0
  2595  0DDD  00F3               	movwf	(?_delay+3)
  2596  0DDE  3000               	movlw	0
  2597  0DDF  00F2               	movwf	(?_delay+2)
  2598  0DE0  3005               	movlw	05h
  2599  0DE1  00F1               	movwf	(?_delay+1)
  2600  0DE2  30DC               	movlw	0DCh
  2601  0DE3  00F0               	movwf	(?_delay)
  2602                           
  2603  0DE4  120A  118A  2004   	fcall	_delay
              120A  158A         
  2604                           	line	302
  2605                           	
  2606  0DE9                     l1332:	
  2607  0DE9  0008               	return
  2608                           	opt stack 0
  2609                           GLOBAL	__end_of_increase_chan
  2610  0DEA                     	__end_of_increase_chan:
  2611 ;; =============== function _increase_chan ends ============
  2612                           
  2613                           	signat	_increase_chan,88
  2614                           	global	_decrease_chan
  2615                           psect	text609,local,class=CODE,delta=2
  2616                           global __ptext609
  2617  0E58                     __ptext609:
  2618                           
  2619 ;; *************** function _decrease_chan *****************
  2620 ;; Defined at:
  2621 ;;		line 279 in file "C:\Users\Phang\Desktop\9.80\PR 31\PR31_final.c"
  2622 ;; Parameters:    Size  Location     Type
  2623 ;;		None
  2624 ;; Auto vars:     Size  Location     Type
  2625 ;;		None
  2626 ;; Return value:  Size  Location     Type
  2627 ;;		None               void
  2628 ;; Registers used:
  2629 ;;		wreg, fsr0l, fsr0h, status,2, status,0, btemp+1, pclath, cstack
  2630 ;; Tracked objects:
  2631 ;;		On entry : 0/0
  2632 ;;		On exit  : 0/0
  2633 ;;		Unchanged: 0/0
  2634 ;; Data sizes:     COMMON   BANK0   BANK1   BANK3   BANK2
  2635 ;;      Params:         0       0       0       0       0
  2636 ;;      Locals:         0       0       0       0       0
  2637 ;;      Temps:          0       4       0       0       0
  2638 ;;      Totals:         0       4       0       0       0
  2639 ;;Total ram usage:        4 bytes
  2640 ;; Hardware stack levels used:    1
  2641 ;; Hardware stack levels required when called:    5
  2642 ;; This function calls:
  2643 ;;		_setAR1000
  2644 ;;		_uart_tx
  2645 ;;		_uart_sendstr
  2646 ;;		_send_dec
  2647 ;;		_delay
  2648 ;; This function is called by:
  2649 ;;		_adjust_channel
  2650 ;; This function uses a non-reentrant model
  2651 ;;
  2652                           psect	text609
  2653                           	file	"C:\Users\Phang\Desktop\9.80\PR 31\PR31_final.c"
  2654                           	line	279
  2655                           	global	__size_of_decrease_chan
  2656  0076                     	__size_of_decrease_chan	equ	__end_of_decrease_chan-_decrease_chan
  2657                           	
  2658  0E58                     _decrease_chan:	
  2659                           	opt	stack 1
  2660                           ; Regs used in _decrease_chan: [wreg-fsr0h+status,2+status,0+btemp+1+pclath+cstack]
  2661                           	line	280
  2662                           	
  2663  0E58                     l3714:	
  2664                           ;PR31_final.c: 280: currentChannel -=1;
  2665  0E58  3001               	movlw	01h
  2666  0E59  1283               	bcf	status, 5	;RP0=0, select bank0
  2667  0E5A  1303               	bcf	status, 6	;RP1=0, select bank0
  2668  0E5B  00BE               	movwf	((??_decrease_chan+0)+0)
  2669  0E5C  3000               	movlw	0
  2670  0E5D  00BF               	movwf	((??_decrease_chan+0)+0+1)
  2671  0E5E  3000               	movlw	0
  2672  0E5F  00C0               	movwf	((??_decrease_chan+0)+0+2)
  2673  0E60  3000               	movlw	0
  2674  0E61  00C1               	movwf	((??_decrease_chan+0)+0+3)
  2675  0E62  083E               	movf	0+(??_decrease_chan+0)+0,w
  2676  0E63  02DD               	subwf	(_currentChannel),f
  2677  0E64  083F               	movf	1+(??_decrease_chan+0)+0,w
  2678  0E65  1C03               	skipc
  2679  0E66  0F3F               	incfsz	1+(??_decrease_chan+0)+0,w
  2680  0E67  2E69               	goto	u3975
  2681  0E68  2E6A               	goto	u3976
  2682  0E69                     u3975:
  2683  0E69  02DE               	subwf	(_currentChannel+1),f
  2684  0E6A                     u3976:
  2685  0E6A  0840               	movf	2+(??_decrease_chan+0)+0,w
  2686  0E6B  1C03               	skipc
  2687  0E6C  0F40               	incfsz	2+(??_decrease_chan+0)+0,w
  2688  0E6D  2E6F               	goto	u3977
  2689  0E6E  2E70               	goto	u3978
  2690  0E6F                     u3977:
  2691  0E6F  02DF               	subwf	(_currentChannel+2),f
  2692  0E70                     u3978:
  2693  0E70  0841               	movf	3+(??_decrease_chan+0)+0,w
  2694  0E71  1C03               	skipc
  2695  0E72  0F41               	incfsz	3+(??_decrease_chan+0)+0,w
  2696  0E73  2E75               	goto	u3979
  2697  0E74  2E76               	goto	u3970
  2698  0E75                     u3979:
  2699  0E75  02E0               	subwf	(_currentChannel+3),f
  2700  0E76                     u3970:
  2701                           
  2702                           	line	281
  2703                           ;PR31_final.c: 281: if ( currentChannel <= 875 )
  2704  0E76  3000               	movlw	0
  2705  0E77  0260               	subwf	(_currentChannel+3),w
  2706  0E78  1D03               	skipz
  2707  0E79  2E84               	goto	u3985
  2708  0E7A  3000               	movlw	0
  2709  0E7B  025F               	subwf	(_currentChannel+2),w
  2710  0E7C  1D03               	skipz
  2711  0E7D  2E84               	goto	u3985
  2712  0E7E  3003               	movlw	03h
  2713  0E7F  025E               	subwf	(_currentChannel+1),w
  2714  0E80  1D03               	skipz
  2715  0E81  2E84               	goto	u3985
  2716  0E82  306C               	movlw	06Ch
  2717  0E83  025D               	subwf	(_currentChannel),w
  2718  0E84                     u3985:
  2719  0E84  1803               	skipnc
  2720  0E85  2E87               	goto	u3981
  2721  0E86  2E88               	goto	u3980
  2722  0E87                     u3981:
  2723  0E87  2E91               	goto	l3718
  2724  0E88                     u3980:
  2725                           	line	282
  2726                           	
  2727  0E88                     l3716:	
  2728                           ;PR31_final.c: 282: currentChannel = 1080;
  2729  0E88  3000               	movlw	0
  2730  0E89  00E0               	movwf	(_currentChannel+3)
  2731  0E8A  3000               	movlw	0
  2732  0E8B  00DF               	movwf	(_currentChannel+2)
  2733  0E8C  3004               	movlw	04h
  2734  0E8D  00DE               	movwf	(_currentChannel+1)
  2735  0E8E  3038               	movlw	038h
  2736  0E8F  00DD               	movwf	(_currentChannel)
  2737                           
  2738  0E90  2E91               	goto	l3718
  2739                           	
  2740  0E91                     l1327:	
  2741                           	line	283
  2742                           	
  2743  0E91                     l3718:	
  2744                           ;PR31_final.c: 283: setAR1000 (currentChannel);
  2745  0E91  085E               	movf	(_currentChannel+1),w
  2746  0E92  01AA               	clrf	(?_setAR1000+1)
  2747  0E93  07AA               	addwf	(?_setAR1000+1)
  2748  0E94  085D               	movf	(_currentChannel),w
  2749  0E95  01A9               	clrf	(?_setAR1000)
  2750  0E96  07A9               	addwf	(?_setAR1000)
  2751                           
  2752  0E97  120A  118A  2191   	fcall	_setAR1000
              120A  158A         
  2753                           	line	284
  2754                           	
  2755  0E9C                     l3720:	
  2756                           ;PR31_final.c: 284: uart_tx(0x0C);
  2757  0E9C  300C               	movlw	(0Ch)
  2758  0E9D  120A  158A  22D4   	fcall	_uart_tx
              120A  158A         
  2759                           	line	285
  2760                           	
  2761  0EA2                     l3722:	
  2762                           ;PR31_final.c: 285: uart_sendstr("channel ");
  2763  0EA2  304D               	movlw	((STR_18-__stringbase))&0ffh
  2764  0EA3  120A  158A  2467   	fcall	_uart_sendstr
              120A  158A         
  2765                           	line	286
  2766                           	
  2767  0EA8                     l3724:	
  2768                           ;PR31_final.c: 286: uart_tx(0x30+m);
  2769  0EA8  1283               	bcf	status, 5	;RP0=0, select bank0
  2770  0EA9  1303               	bcf	status, 6	;RP1=0, select bank0
  2771  0EAA  0868               	movf	(_m),w
  2772  0EAB  3E30               	addlw	030h
  2773  0EAC  120A  158A  22D4   	fcall	_uart_tx
              120A  158A         
  2774                           	line	287
  2775                           	
  2776  0EB1                     l3726:	
  2777                           ;PR31_final.c: 287: send_dec(currentChannel);
  2778  0EB1  1283               	bcf	status, 5	;RP0=0, select bank0
  2779  0EB2  1303               	bcf	status, 6	;RP1=0, select bank0
  2780  0EB3  0860               	movf	(_currentChannel+3),w
  2781  0EB4  00A3               	movwf	(?_send_dec+3)
  2782  0EB5  085F               	movf	(_currentChannel+2),w
  2783  0EB6  00A2               	movwf	(?_send_dec+2)
  2784  0EB7  085E               	movf	(_currentChannel+1),w
  2785  0EB8  00A1               	movwf	(?_send_dec+1)
  2786  0EB9  085D               	movf	(_currentChannel),w
  2787  0EBA  00A0               	movwf	(?_send_dec)
  2788                           
  2789  0EBB  120A  118A  2669   	fcall	_send_dec
              120A  158A         
  2790                           	line	288
  2791                           	
  2792  0EC0                     l3728:	
  2793                           ;PR31_final.c: 288: delay(1500);
  2794  0EC0  3000               	movlw	0
  2795  0EC1  00F3               	movwf	(?_delay+3)
  2796  0EC2  3000               	movlw	0
  2797  0EC3  00F2               	movwf	(?_delay+2)
  2798  0EC4  3005               	movlw	05h
  2799  0EC5  00F1               	movwf	(?_delay+1)
  2800  0EC6  30DC               	movlw	0DCh
  2801  0EC7  00F0               	movwf	(?_delay)
  2802                           
  2803  0EC8  120A  118A  2004   	fcall	_delay
              120A  158A         
  2804                           	line	289
  2805                           	
  2806  0ECD                     l1328:	
  2807  0ECD  0008               	return
  2808                           	opt stack 0
  2809                           GLOBAL	__end_of_decrease_chan
  2810  0ECE                     	__end_of_decrease_chan:
  2811 ;; =============== function _decrease_chan ends ============
  2812                           
  2813                           	signat	_decrease_chan,88
  2814                           	global	_switch_channel
  2815                           psect	text610,local,class=CODE,delta=2
  2816                           global __ptext610
  2817  0D1E                     __ptext610:
  2818                           
  2819 ;; *************** function _switch_channel *****************
  2820 ;; Defined at:
  2821 ;;		line 192 in file "C:\Users\Phang\Desktop\9.80\PR 31\PR31_final.c"
  2822 ;; Parameters:    Size  Location     Type
  2823 ;;		None
  2824 ;; Auto vars:     Size  Location     Type
  2825 ;;		None
  2826 ;; Return value:  Size  Location     Type
  2827 ;;		None               void
  2828 ;; Registers used:
  2829 ;;		wreg, fsr0l, fsr0h, status,2, status,0, btemp+1, pclath, cstack
  2830 ;; Tracked objects:
  2831 ;;		On entry : 0/0
  2832 ;;		On exit  : 0/0
  2833 ;;		Unchanged: 0/0
  2834 ;; Data sizes:     COMMON   BANK0   BANK1   BANK3   BANK2
  2835 ;;      Params:         0       0       0       0       0
  2836 ;;      Locals:         0       0       0       0       0
  2837 ;;      Temps:          0       1       0       0       0
  2838 ;;      Totals:         0       1       0       0       0
  2839 ;;Total ram usage:        1 bytes
  2840 ;; Hardware stack levels used:    1
  2841 ;; Hardware stack levels required when called:    5
  2842 ;; This function calls:
  2843 ;;		_lcd_clr
  2844 ;;		_send_string
  2845 ;;		_uart_tx
  2846 ;;		_uart_sendstr
  2847 ;;		_send_char
  2848 ;;		_eprom_read
  2849 ;;		_setAR1000
  2850 ;;		_send_dec
  2851 ;; This function is called by:
  2852 ;;		_main
  2853 ;;		_adjust_channel
  2854 ;; This function uses a non-reentrant model
  2855 ;;
  2856                           psect	text610
  2857                           	file	"C:\Users\Phang\Desktop\9.80\PR 31\PR31_final.c"
  2858                           	line	192
  2859                           	global	__size_of_switch_channel
  2860  0064                     	__size_of_switch_channel	equ	__end_of_switch_channel-_switch_channel
  2861                           	
  2862  0D1E                     _switch_channel:	
  2863                           	opt	stack 1
  2864                           ; Regs used in _switch_channel: [wreg-fsr0h+status,2+status,0+btemp+1+pclath+cstack]
  2865                           	line	193
  2866                           	
  2867  0D1E                     l3690:	
  2868                           ;PR31_final.c: 193: m++;
  2869  0D1E  3001               	movlw	(01h)
  2870  0D1F  1283               	bcf	status, 5	;RP0=0, select bank0
  2871  0D20  1303               	bcf	status, 6	;RP1=0, select bank0
  2872  0D21  00BE               	movwf	(??_switch_channel+0)+0
  2873  0D22  083E               	movf	(??_switch_channel+0)+0,w
  2874  0D23  07E8               	addwf	(_m),f
  2875                           	line	194
  2876                           	
  2877  0D24                     l3692:	
  2878                           ;PR31_final.c: 194: if ( m > 6) m = 1;
  2879  0D24  3007               	movlw	(07h)
  2880  0D25  0268               	subwf	(_m),w
  2881  0D26  1C03               	skipc
  2882  0D27  2D29               	goto	u3961
  2883  0D28  2D2A               	goto	u3960
  2884  0D29                     u3961:
  2885  0D29  2D2E               	goto	l3696
  2886  0D2A                     u3960:
  2887                           	
  2888  0D2A                     l3694:	
  2889  0D2A  01E8               	clrf	(_m)
  2890  0D2B  1403               	bsf	status,0
  2891  0D2C  0DE8               	rlf	(_m),f
  2892  0D2D  2D2E               	goto	l3696
  2893                           	
  2894  0D2E                     l1295:	
  2895                           	line	196
  2896                           	
  2897  0D2E                     l3696:	
  2898                           ;PR31_final.c: 196: lcd_clr();
  2899  0D2E  120A  158A  2359   	fcall	_lcd_clr
              120A  158A         
  2900                           	line	197
  2901                           	
  2902  0D33                     l3698:	
  2903                           ;PR31_final.c: 197: send_string("channel ");
  2904  0D33  304D               	movlw	((STR_10-__stringbase))&0ffh
  2905  0D34  120A  158A  2410   	fcall	_send_string
              120A  158A         
  2906                           	line	198
  2907                           	
  2908  0D39                     l3700:	
  2909                           ;PR31_final.c: 198: uart_tx(0x0C);
  2910  0D39  300C               	movlw	(0Ch)
  2911  0D3A  120A  158A  22D4   	fcall	_uart_tx
              120A  158A         
  2912                           	line	199
  2913                           	
  2914  0D3F                     l3702:	
  2915                           ;PR31_final.c: 199: uart_sendstr("Channel ");
  2916  0D3F  3044               	movlw	((STR_11-__stringbase))&0ffh
  2917  0D40  120A  158A  2467   	fcall	_uart_sendstr
              120A  158A         
  2918                           	line	200
  2919                           	
  2920  0D45                     l3704:	
  2921                           ;PR31_final.c: 200: send_char(0x30+m);
  2922  0D45  1283               	bcf	status, 5	;RP0=0, select bank0
  2923  0D46  1303               	bcf	status, 6	;RP1=0, select bank0
  2924  0D47  0868               	movf	(_m),w
  2925  0D48  3E30               	addlw	030h
  2926  0D49  120A  158A  2340   	fcall	_send_char
              120A  158A         
  2927                           	line	201
  2928                           	
  2929  0D4E                     l3706:	
  2930                           ;PR31_final.c: 201: uart_tx(0x30+m);
  2931  0D4E  1283               	bcf	status, 5	;RP0=0, select bank0
  2932  0D4F  1303               	bcf	status, 6	;RP1=0, select bank0
  2933  0D50  0868               	movf	(_m),w
  2934  0D51  3E30               	addlw	030h
  2935  0D52  120A  158A  22D4   	fcall	_uart_tx
              120A  158A         
  2936                           	line	202
  2937                           	
  2938  0D57                     l3708:	
  2939                           ;PR31_final.c: 202: currentChannel = eprom_read(m);
  2940  0D57  1283               	bcf	status, 5	;RP0=0, select bank0
  2941  0D58  1303               	bcf	status, 6	;RP1=0, select bank0
  2942  0D59  0868               	movf	(_m),w
  2943  0D5A  120A  158A  23AE   	fcall	_eprom_read
              120A  158A         
  2944  0D5F  0870               	movf	(0+(?_eprom_read)),w
  2945  0D60  1283               	bcf	status, 5	;RP0=0, select bank0
  2946  0D61  1303               	bcf	status, 6	;RP1=0, select bank0
  2947  0D62  00DD               	movwf	(_currentChannel)
  2948  0D63  0871               	movf	(1+(?_eprom_read)),w
  2949  0D64  00DE               	movwf	((_currentChannel))+1
  2950  0D65  01DF               	clrf	2+((_currentChannel))
  2951  0D66  01E0               	clrf	3+((_currentChannel))
  2952                           	line	203
  2953                           	
  2954  0D67                     l3710:	
  2955                           ;PR31_final.c: 203: setAR1000(currentChannel);
  2956  0D67  085E               	movf	(_currentChannel+1),w
  2957  0D68  01AA               	clrf	(?_setAR1000+1)
  2958  0D69  07AA               	addwf	(?_setAR1000+1)
  2959  0D6A  085D               	movf	(_currentChannel),w
  2960  0D6B  01A9               	clrf	(?_setAR1000)
  2961  0D6C  07A9               	addwf	(?_setAR1000)
  2962                           
  2963  0D6D  120A  118A  2191   	fcall	_setAR1000
              120A  158A         
  2964                           	line	204
  2965                           	
  2966  0D72                     l3712:	
  2967                           ;PR31_final.c: 204: send_dec(currentChannel);
  2968  0D72  1283               	bcf	status, 5	;RP0=0, select bank0
  2969  0D73  1303               	bcf	status, 6	;RP1=0, select bank0
  2970  0D74  0860               	movf	(_currentChannel+3),w
  2971  0D75  00A3               	movwf	(?_send_dec+3)
  2972  0D76  085F               	movf	(_currentChannel+2),w
  2973  0D77  00A2               	movwf	(?_send_dec+2)
  2974  0D78  085E               	movf	(_currentChannel+1),w
  2975  0D79  00A1               	movwf	(?_send_dec+1)
  2976  0D7A  085D               	movf	(_currentChannel),w
  2977  0D7B  00A0               	movwf	(?_send_dec)
  2978                           
  2979  0D7C  120A  118A  2669   	fcall	_send_dec
              120A  158A         
  2980                           	line	205
  2981                           	
  2982  0D81                     l1296:	
  2983  0D81  0008               	return
  2984                           	opt stack 0
  2985                           GLOBAL	__end_of_switch_channel
  2986  0D82                     	__end_of_switch_channel:
  2987 ;; =============== function _switch_channel ends ============
  2988                           
  2989                           	signat	_switch_channel,88
  2990                           	global	_send_dec
  2991                           psect	text611,local,class=CODE,delta=2
  2992                           global __ptext611
  2993  0669                     __ptext611:
  2994                           
  2995 ;; *************** function _send_dec *****************
  2996 ;; Defined at:
  2997 ;;		line 305 in file "C:\Users\Phang\Desktop\9.80\PR 31\PR31_final.c"
  2998 ;; Parameters:    Size  Location     Type
  2999 ;;  RC4             4    0[BANK0 ] unsigned long 
  3000 ;; Auto vars:     Size  Location     Type
  3001 ;;  no             20    8[BANK0 ] unsigned long [5]
  3002 ;;  i               2   28[BANK0 ] unsigned short 
  3003 ;;  press           2    0        unsigned int 
  3004 ;; Return value:  Size  Location     Type
  3005 ;;		None               void
  3006 ;; Registers used:
  3007 ;;		wreg, fsr0l, fsr0h, status,2, status,0, pclath, cstack
  3008 ;; Tracked objects:
  3009 ;;		On entry : 0/0
  3010 ;;		On exit  : 0/0
  3011 ;;		Unchanged: 0/0
  3012 ;; Data sizes:     COMMON   BANK0   BANK1   BANK3   BANK2
  3013 ;;      Params:         0       4       0       0       0
  3014 ;;      Locals:         0      22       0       0       0
  3015 ;;      Temps:          0       4       0       0       0
  3016 ;;      Totals:         0      30       0       0       0
  3017 ;;Total ram usage:       30 bytes
  3018 ;; Hardware stack levels used:    1
  3019 ;; Hardware stack levels required when called:    4
  3020 ;; This function calls:
  3021 ;;		___lldiv
  3022 ;;		___llmod
  3023 ;;		_lcd_goto
  3024 ;;		_send_string
  3025 ;;		_uart_sendstr
  3026 ;;		_send_char
  3027 ;;		_uart_tx
  3028 ;;		_delay
  3029 ;; This function is called by:
  3030 ;;		_switch_channel
  3031 ;;		_adjust_channel
  3032 ;;		_decrease_chan
  3033 ;;		_increase_chan
  3034 ;; This function uses a non-reentrant model
  3035 ;;
  3036                           psect	text611
  3037                           	file	"C:\Users\Phang\Desktop\9.80\PR 31\PR31_final.c"
  3038                           	line	305
  3039                           	global	__size_of_send_dec
  3040  0197                     	__size_of_send_dec	equ	__end_of_send_dec-_send_dec
  3041                           	
  3042  0669                     _send_dec:	
  3043                           	opt	stack 1
  3044                           ; Regs used in _send_dec: [wreg-fsr0h+status,2+status,0+pclath+cstack]
  3045                           	line	308
  3046                           	
  3047  0669                     l3664:	
  3048                           ;PR31_final.c: 306: unsigned int press;
  3049                           ;PR31_final.c: 307: unsigned short i;
  3050                           ;PR31_final.c: 308: no[0]=(RC4/1000+0x30);
  3051  0669  3030               	movlw	030h
  3052  066A  1283               	bcf	status, 5	;RP0=0, select bank0
  3053  066B  1303               	bcf	status, 6	;RP1=0, select bank0
  3054  066C  00A4               	movwf	((??_send_dec+0)+0)
  3055  066D  3000               	movlw	0
  3056  066E  00A5               	movwf	((??_send_dec+0)+0+1)
  3057  066F  3000               	movlw	0
  3058  0670  00A6               	movwf	((??_send_dec+0)+0+2)
  3059  0671  3000               	movlw	0
  3060  0672  00A7               	movwf	((??_send_dec+0)+0+3)
  3061  0673  3000               	movlw	0
  3062  0674  00F3               	movwf	(?___lldiv+3)
  3063  0675  3000               	movlw	0
  3064  0676  00F2               	movwf	(?___lldiv+2)
  3065  0677  3003               	movlw	03h
  3066  0678  00F1               	movwf	(?___lldiv+1)
  3067  0679  30E8               	movlw	0E8h
  3068  067A  00F0               	movwf	(?___lldiv)
  3069                           
  3070  067B  0823               	movf	(send_dec@RC4+3),w
  3071  067C  00F7               	movwf	3+(?___lldiv)+04h
  3072  067D  0822               	movf	(send_dec@RC4+2),w
  3073  067E  00F6               	movwf	2+(?___lldiv)+04h
  3074  067F  0821               	movf	(send_dec@RC4+1),w
  3075  0680  00F5               	movwf	1+(?___lldiv)+04h
  3076  0681  0820               	movf	(send_dec@RC4),w
  3077  0682  00F4               	movwf	0+(?___lldiv)+04h
  3078                           
  3079  0683  120A  158A  25EA   	fcall	___lldiv
              120A  118A         
  3080  0688  0870               	movf	(0+(?___lldiv)),w
  3081  0689  1283               	bcf	status, 5	;RP0=0, select bank0
  3082  068A  1303               	bcf	status, 6	;RP1=0, select bank0
  3083  068B  07A4               	addwf	(??_send_dec+0)+0,f
  3084  068C  0871               	movf	(1+(?___lldiv)),w
  3085  068D  1803               	skipnc
  3086  068E  0F71               	incfsz	(1+(?___lldiv)),w
  3087  068F  2E91               	goto	u3880
  3088  0690  2E92               	goto	u3881
  3089  0691                     u3880:
  3090  0691  07A5               	addwf	(??_send_dec+0)+1,f
  3091  0692                     u3881:
  3092  0692  0872               	movf	(2+(?___lldiv)),w
  3093  0693  1803               	skipnc
  3094  0694  0F72               	incfsz	(2+(?___lldiv)),w
  3095  0695  2E97               	goto	u3882
  3096  0696  2E98               	goto	u3883
  3097  0697                     u3882:
  3098  0697  07A6               	addwf	(??_send_dec+0)+2,f
  3099  0698                     u3883:
  3100  0698  0873               	movf	(3+(?___lldiv)),w
  3101  0699  1803               	skipnc
  3102  069A  0A73               	incf	(3+(?___lldiv)),w
  3103  069B  07A7               	addwf	(??_send_dec+0)+3,f
  3104  069C  0827               	movf	3+(??_send_dec+0)+0,w
  3105  069D  00AB               	movwf	(send_dec@no+3)
  3106  069E  0826               	movf	2+(??_send_dec+0)+0,w
  3107  069F  00AA               	movwf	(send_dec@no+2)
  3108  06A0  0825               	movf	1+(??_send_dec+0)+0,w
  3109  06A1  00A9               	movwf	(send_dec@no+1)
  3110  06A2  0824               	movf	0+(??_send_dec+0)+0,w
  3111  06A3  00A8               	movwf	(send_dec@no)
  3112                           
  3113                           	line	309
  3114                           ;PR31_final.c: 309: RC4=RC4%1000;
  3115  06A4  3000               	movlw	0
  3116  06A5  00F3               	movwf	(?___llmod+3)
  3117  06A6  3000               	movlw	0
  3118  06A7  00F2               	movwf	(?___llmod+2)
  3119  06A8  3003               	movlw	03h
  3120  06A9  00F1               	movwf	(?___llmod+1)
  3121  06AA  30E8               	movlw	0E8h
  3122  06AB  00F0               	movwf	(?___llmod)
  3123                           
  3124  06AC  0823               	movf	(send_dec@RC4+3),w
  3125  06AD  00F7               	movwf	3+(?___llmod)+04h
  3126  06AE  0822               	movf	(send_dec@RC4+2),w
  3127  06AF  00F6               	movwf	2+(?___llmod)+04h
  3128  06B0  0821               	movf	(send_dec@RC4+1),w
  3129  06B1  00F5               	movwf	1+(?___llmod)+04h
  3130  06B2  0820               	movf	(send_dec@RC4),w
  3131  06B3  00F4               	movwf	0+(?___llmod)+04h
  3132                           
  3133  06B4  120A  158A  24C2   	fcall	___llmod
              120A  118A         
  3134  06B9  0873               	movf	(3+(?___llmod)),w
  3135  06BA  1283               	bcf	status, 5	;RP0=0, select bank0
  3136  06BB  1303               	bcf	status, 6	;RP1=0, select bank0
  3137  06BC  00A3               	movwf	(send_dec@RC4+3)
  3138  06BD  0872               	movf	(2+(?___llmod)),w
  3139  06BE  00A2               	movwf	(send_dec@RC4+2)
  3140  06BF  0871               	movf	(1+(?___llmod)),w
  3141  06C0  00A1               	movwf	(send_dec@RC4+1)
  3142  06C1  0870               	movf	(0+(?___llmod)),w
  3143  06C2  00A0               	movwf	(send_dec@RC4)
  3144                           
  3145                           	line	310
  3146                           ;PR31_final.c: 310: no[1]=(RC4/100+0x30);
  3147  06C3  3030               	movlw	030h
  3148  06C4  00A4               	movwf	((??_send_dec+0)+0)
  3149  06C5  3000               	movlw	0
  3150  06C6  00A5               	movwf	((??_send_dec+0)+0+1)
  3151  06C7  3000               	movlw	0
  3152  06C8  00A6               	movwf	((??_send_dec+0)+0+2)
  3153  06C9  3000               	movlw	0
  3154  06CA  00A7               	movwf	((??_send_dec+0)+0+3)
  3155  06CB  3000               	movlw	0
  3156  06CC  00F3               	movwf	(?___lldiv+3)
  3157  06CD  3000               	movlw	0
  3158  06CE  00F2               	movwf	(?___lldiv+2)
  3159  06CF  3000               	movlw	0
  3160  06D0  00F1               	movwf	(?___lldiv+1)
  3161  06D1  3064               	movlw	064h
  3162  06D2  00F0               	movwf	(?___lldiv)
  3163                           
  3164  06D3  0823               	movf	(send_dec@RC4+3),w
  3165  06D4  00F7               	movwf	3+(?___lldiv)+04h
  3166  06D5  0822               	movf	(send_dec@RC4+2),w
  3167  06D6  00F6               	movwf	2+(?___lldiv)+04h
  3168  06D7  0821               	movf	(send_dec@RC4+1),w
  3169  06D8  00F5               	movwf	1+(?___lldiv)+04h
  3170  06D9  0820               	movf	(send_dec@RC4),w
  3171  06DA  00F4               	movwf	0+(?___lldiv)+04h
  3172                           
  3173  06DB  120A  158A  25EA   	fcall	___lldiv
              120A  118A         
  3174  06E0  0870               	movf	(0+(?___lldiv)),w
  3175  06E1  1283               	bcf	status, 5	;RP0=0, select bank0
  3176  06E2  1303               	bcf	status, 6	;RP1=0, select bank0
  3177  06E3  07A4               	addwf	(??_send_dec+0)+0,f
  3178  06E4  0871               	movf	(1+(?___lldiv)),w
  3179  06E5  1803               	skipnc
  3180  06E6  0F71               	incfsz	(1+(?___lldiv)),w
  3181  06E7  2EE9               	goto	u3890
  3182  06E8  2EEA               	goto	u3891
  3183  06E9                     u3890:
  3184  06E9  07A5               	addwf	(??_send_dec+0)+1,f
  3185  06EA                     u3891:
  3186  06EA  0872               	movf	(2+(?___lldiv)),w
  3187  06EB  1803               	skipnc
  3188  06EC  0F72               	incfsz	(2+(?___lldiv)),w
  3189  06ED  2EEF               	goto	u3892
  3190  06EE  2EF0               	goto	u3893
  3191  06EF                     u3892:
  3192  06EF  07A6               	addwf	(??_send_dec+0)+2,f
  3193  06F0                     u3893:
  3194  06F0  0873               	movf	(3+(?___lldiv)),w
  3195  06F1  1803               	skipnc
  3196  06F2  0A73               	incf	(3+(?___lldiv)),w
  3197  06F3  07A7               	addwf	(??_send_dec+0)+3,f
  3198  06F4  0827               	movf	3+(??_send_dec+0)+0,w
  3199  06F5  00AF               	movwf	3+(send_dec@no)+04h
  3200  06F6  0826               	movf	2+(??_send_dec+0)+0,w
  3201  06F7  00AE               	movwf	2+(send_dec@no)+04h
  3202  06F8  0825               	movf	1+(??_send_dec+0)+0,w
  3203  06F9  00AD               	movwf	1+(send_dec@no)+04h
  3204  06FA  0824               	movf	0+(??_send_dec+0)+0,w
  3205  06FB  00AC               	movwf	0+(send_dec@no)+04h
  3206                           
  3207                           	line	311
  3208                           ;PR31_final.c: 311: RC4=RC4%100;
  3209  06FC  3000               	movlw	0
  3210  06FD  00F3               	movwf	(?___llmod+3)
  3211  06FE  3000               	movlw	0
  3212  06FF  00F2               	movwf	(?___llmod+2)
  3213  0700  3000               	movlw	0
  3214  0701  00F1               	movwf	(?___llmod+1)
  3215  0702  3064               	movlw	064h
  3216  0703  00F0               	movwf	(?___llmod)
  3217                           
  3218  0704  0823               	movf	(send_dec@RC4+3),w
  3219  0705  00F7               	movwf	3+(?___llmod)+04h
  3220  0706  0822               	movf	(send_dec@RC4+2),w
  3221  0707  00F6               	movwf	2+(?___llmod)+04h
  3222  0708  0821               	movf	(send_dec@RC4+1),w
  3223  0709  00F5               	movwf	1+(?___llmod)+04h
  3224  070A  0820               	movf	(send_dec@RC4),w
  3225  070B  00F4               	movwf	0+(?___llmod)+04h
  3226                           
  3227  070C  120A  158A  24C2   	fcall	___llmod
              120A  118A         
  3228  0711  0873               	movf	(3+(?___llmod)),w
  3229  0712  1283               	bcf	status, 5	;RP0=0, select bank0
  3230  0713  1303               	bcf	status, 6	;RP1=0, select bank0
  3231  0714  00A3               	movwf	(send_dec@RC4+3)
  3232  0715  0872               	movf	(2+(?___llmod)),w
  3233  0716  00A2               	movwf	(send_dec@RC4+2)
  3234  0717  0871               	movf	(1+(?___llmod)),w
  3235  0718  00A1               	movwf	(send_dec@RC4+1)
  3236  0719  0870               	movf	(0+(?___llmod)),w
  3237  071A  00A0               	movwf	(send_dec@RC4)
  3238                           
  3239                           	line	312
  3240                           ;PR31_final.c: 312: no[2]=(RC4/10+0x30);
  3241  071B  3030               	movlw	030h
  3242  071C  00A4               	movwf	((??_send_dec+0)+0)
  3243  071D  3000               	movlw	0
  3244  071E  00A5               	movwf	((??_send_dec+0)+0+1)
  3245  071F  3000               	movlw	0
  3246  0720  00A6               	movwf	((??_send_dec+0)+0+2)
  3247  0721  3000               	movlw	0
  3248  0722  00A7               	movwf	((??_send_dec+0)+0+3)
  3249  0723  3000               	movlw	0
  3250  0724  00F3               	movwf	(?___lldiv+3)
  3251  0725  3000               	movlw	0
  3252  0726  00F2               	movwf	(?___lldiv+2)
  3253  0727  3000               	movlw	0
  3254  0728  00F1               	movwf	(?___lldiv+1)
  3255  0729  300A               	movlw	0Ah
  3256  072A  00F0               	movwf	(?___lldiv)
  3257                           
  3258  072B  0823               	movf	(send_dec@RC4+3),w
  3259  072C  00F7               	movwf	3+(?___lldiv)+04h
  3260  072D  0822               	movf	(send_dec@RC4+2),w
  3261  072E  00F6               	movwf	2+(?___lldiv)+04h
  3262  072F  0821               	movf	(send_dec@RC4+1),w
  3263  0730  00F5               	movwf	1+(?___lldiv)+04h
  3264  0731  0820               	movf	(send_dec@RC4),w
  3265  0732  00F4               	movwf	0+(?___lldiv)+04h
  3266                           
  3267  0733  120A  158A  25EA   	fcall	___lldiv
              120A  118A         
  3268  0738  0870               	movf	(0+(?___lldiv)),w
  3269  0739  1283               	bcf	status, 5	;RP0=0, select bank0
  3270  073A  1303               	bcf	status, 6	;RP1=0, select bank0
  3271  073B  07A4               	addwf	(??_send_dec+0)+0,f
  3272  073C  0871               	movf	(1+(?___lldiv)),w
  3273  073D  1803               	skipnc
  3274  073E  0F71               	incfsz	(1+(?___lldiv)),w
  3275  073F  2F41               	goto	u3900
  3276  0740  2F42               	goto	u3901
  3277  0741                     u3900:
  3278  0741  07A5               	addwf	(??_send_dec+0)+1,f
  3279  0742                     u3901:
  3280  0742  0872               	movf	(2+(?___lldiv)),w
  3281  0743  1803               	skipnc
  3282  0744  0F72               	incfsz	(2+(?___lldiv)),w
  3283  0745  2F47               	goto	u3902
  3284  0746  2F48               	goto	u3903
  3285  0747                     u3902:
  3286  0747  07A6               	addwf	(??_send_dec+0)+2,f
  3287  0748                     u3903:
  3288  0748  0873               	movf	(3+(?___lldiv)),w
  3289  0749  1803               	skipnc
  3290  074A  0A73               	incf	(3+(?___lldiv)),w
  3291  074B  07A7               	addwf	(??_send_dec+0)+3,f
  3292  074C  0827               	movf	3+(??_send_dec+0)+0,w
  3293  074D  00B3               	movwf	3+(send_dec@no)+08h
  3294  074E  0826               	movf	2+(??_send_dec+0)+0,w
  3295  074F  00B2               	movwf	2+(send_dec@no)+08h
  3296  0750  0825               	movf	1+(??_send_dec+0)+0,w
  3297  0751  00B1               	movwf	1+(send_dec@no)+08h
  3298  0752  0824               	movf	0+(??_send_dec+0)+0,w
  3299  0753  00B0               	movwf	0+(send_dec@no)+08h
  3300                           
  3301                           	line	313
  3302                           	
  3303  0754                     l3666:	
  3304                           ;PR31_final.c: 313: no[3]=0x2E;
  3305  0754  3000               	movlw	0
  3306  0755  00B7               	movwf	3+(send_dec@no)+0Ch
  3307  0756  3000               	movlw	0
  3308  0757  00B6               	movwf	2+(send_dec@no)+0Ch
  3309  0758  3000               	movlw	0
  3310  0759  00B5               	movwf	1+(send_dec@no)+0Ch
  3311  075A  302E               	movlw	02Eh
  3312  075B  00B4               	movwf	0+(send_dec@no)+0Ch
  3313                           
  3314                           	line	314
  3315                           	
  3316  075C                     l3668:	
  3317                           ;PR31_final.c: 314: no[4]=(RC4%10+0x30);
  3318  075C  3030               	movlw	030h
  3319  075D  00A4               	movwf	((??_send_dec+0)+0)
  3320  075E  3000               	movlw	0
  3321  075F  00A5               	movwf	((??_send_dec+0)+0+1)
  3322  0760  3000               	movlw	0
  3323  0761  00A6               	movwf	((??_send_dec+0)+0+2)
  3324  0762  3000               	movlw	0
  3325  0763  00A7               	movwf	((??_send_dec+0)+0+3)
  3326  0764  3000               	movlw	0
  3327  0765  00F3               	movwf	(?___llmod+3)
  3328  0766  3000               	movlw	0
  3329  0767  00F2               	movwf	(?___llmod+2)
  3330  0768  3000               	movlw	0
  3331  0769  00F1               	movwf	(?___llmod+1)
  3332  076A  300A               	movlw	0Ah
  3333  076B  00F0               	movwf	(?___llmod)
  3334                           
  3335  076C  0823               	movf	(send_dec@RC4+3),w
  3336  076D  00F7               	movwf	3+(?___llmod)+04h
  3337  076E  0822               	movf	(send_dec@RC4+2),w
  3338  076F  00F6               	movwf	2+(?___llmod)+04h
  3339  0770  0821               	movf	(send_dec@RC4+1),w
  3340  0771  00F5               	movwf	1+(?___llmod)+04h
  3341  0772  0820               	movf	(send_dec@RC4),w
  3342  0773  00F4               	movwf	0+(?___llmod)+04h
  3343                           
  3344  0774  120A  158A  24C2   	fcall	___llmod
              120A  118A         
  3345  0779  0870               	movf	(0+(?___llmod)),w
  3346  077A  1283               	bcf	status, 5	;RP0=0, select bank0
  3347  077B  1303               	bcf	status, 6	;RP1=0, select bank0
  3348  077C  07A4               	addwf	(??_send_dec+0)+0,f
  3349  077D  0871               	movf	(1+(?___llmod)),w
  3350  077E  1803               	skipnc
  3351  077F  0F71               	incfsz	(1+(?___llmod)),w
  3352  0780  2F82               	goto	u3910
  3353  0781  2F83               	goto	u3911
  3354  0782                     u3910:
  3355  0782  07A5               	addwf	(??_send_dec+0)+1,f
  3356  0783                     u3911:
  3357  0783  0872               	movf	(2+(?___llmod)),w
  3358  0784  1803               	skipnc
  3359  0785  0F72               	incfsz	(2+(?___llmod)),w
  3360  0786  2F88               	goto	u3912
  3361  0787  2F89               	goto	u3913
  3362  0788                     u3912:
  3363  0788  07A6               	addwf	(??_send_dec+0)+2,f
  3364  0789                     u3913:
  3365  0789  0873               	movf	(3+(?___llmod)),w
  3366  078A  1803               	skipnc
  3367  078B  0A73               	incf	(3+(?___llmod)),w
  3368  078C  07A7               	addwf	(??_send_dec+0)+3,f
  3369  078D  0827               	movf	3+(??_send_dec+0)+0,w
  3370  078E  00BB               	movwf	3+(send_dec@no)+010h
  3371  078F  0826               	movf	2+(??_send_dec+0)+0,w
  3372  0790  00BA               	movwf	2+(send_dec@no)+010h
  3373  0791  0825               	movf	1+(??_send_dec+0)+0,w
  3374  0792  00B9               	movwf	1+(send_dec@no)+010h
  3375  0793  0824               	movf	0+(??_send_dec+0)+0,w
  3376  0794  00B8               	movwf	0+(send_dec@no)+010h
  3377                           
  3378                           	line	315
  3379                           	
  3380  0795                     l3670:	
  3381                           ;PR31_final.c: 315: lcd_goto(20);
  3382  0795  3014               	movlw	(014h)
  3383  0796  120A  158A  2373   	fcall	_lcd_goto
              120A  118A         
  3384                           	line	316
  3385                           	
  3386  079B                     l3672:	
  3387                           ;PR31_final.c: 316: send_string("FM=");
  3388  079B  3065               	movlw	((STR_20-__stringbase))&0ffh
  3389  079C  120A  158A  2410   	fcall	_send_string
              120A  118A         
  3390                           	line	317
  3391                           	
  3392  07A1                     l3674:	
  3393                           ;PR31_final.c: 317: uart_sendstr("FM=");
  3394  07A1  3065               	movlw	((STR_21-__stringbase))&0ffh
  3395  07A2  120A  158A  2467   	fcall	_uart_sendstr
              120A  118A         
  3396                           	line	318
  3397                           	
  3398  07A7                     l3676:	
  3399                           ;PR31_final.c: 318: for (i=0;i<5;i++)
  3400  07A7  3000               	movlw	low(0)
  3401  07A8  1283               	bcf	status, 5	;RP0=0, select bank0
  3402  07A9  1303               	bcf	status, 6	;RP1=0, select bank0
  3403  07AA  00BC               	movwf	(send_dec@i)
  3404  07AB  3000               	movlw	high(0)
  3405  07AC  00BD               	movwf	((send_dec@i))+1
  3406                           	
  3407  07AD                     l3678:	
  3408  07AD  3000               	movlw	high(05h)
  3409  07AE  023D               	subwf	(send_dec@i+1),w
  3410  07AF  3005               	movlw	low(05h)
  3411  07B0  1903               	skipnz
  3412  07B1  023C               	subwf	(send_dec@i),w
  3413  07B2  1C03               	skipc
  3414  07B3  2FB5               	goto	u3921
  3415  07B4  2FB6               	goto	u3920
  3416  07B5                     u3921:
  3417  07B5  2FB8               	goto	l3682
  3418  07B6                     u3920:
  3419  07B6  2FF2               	goto	l3688
  3420                           	
  3421  07B7                     l3680:	
  3422  07B7  2FF2               	goto	l3688
  3423                           	line	319
  3424                           	
  3425  07B8                     l1335:	
  3426                           	line	320
  3427                           	
  3428  07B8                     l3682:	
  3429                           ;PR31_final.c: 319: {
  3430                           ;PR31_final.c: 320: send_char(no[i]);
  3431  07B8  083C               	movf	(send_dec@i),w
  3432  07B9  00A4               	movwf	(??_send_dec+0)+0
  3433  07BA  3001               	movlw	(02h)-1
  3434  07BB                     u3935:
  3435  07BB  1003               	clrc
  3436  07BC  0DA4               	rlf	(??_send_dec+0)+0,f
  3437  07BD  3EFF               	addlw	-1
  3438  07BE  1D03               	skipz
  3439  07BF  2FBB               	goto	u3935
  3440  07C0  1003               	clrc
  3441  07C1  0D24               	rlf	(??_send_dec+0)+0,w
  3442  07C2  3E28               	addlw	send_dec@no&0ffh
  3443  07C3  0084               	movwf	fsr0
  3444  07C4  1383               	bcf	status, 7	;select IRP bank0
  3445  07C5  0800               	movf	indf,w
  3446  07C6  120A  158A  2340   	fcall	_send_char
              120A  118A         
  3447                           	line	321
  3448                           ;PR31_final.c: 321: uart_tx(no[i]);
  3449  07CB  1283               	bcf	status, 5	;RP0=0, select bank0
  3450  07CC  1303               	bcf	status, 6	;RP1=0, select bank0
  3451  07CD  083C               	movf	(send_dec@i),w
  3452  07CE  00A4               	movwf	(??_send_dec+0)+0
  3453  07CF  3001               	movlw	(02h)-1
  3454  07D0                     u3945:
  3455  07D0  1003               	clrc
  3456  07D1  0DA4               	rlf	(??_send_dec+0)+0,f
  3457  07D2  3EFF               	addlw	-1
  3458  07D3  1D03               	skipz
  3459  07D4  2FD0               	goto	u3945
  3460  07D5  1003               	clrc
  3461  07D6  0D24               	rlf	(??_send_dec+0)+0,w
  3462  07D7  3E28               	addlw	send_dec@no&0ffh
  3463  07D8  0084               	movwf	fsr0
  3464  07D9  1383               	bcf	status, 7	;select IRP bank0
  3465  07DA  0800               	movf	indf,w
  3466  07DB  120A  158A  22D4   	fcall	_uart_tx
              120A  118A         
  3467                           	line	318
  3468                           	
  3469  07E0                     l3684:	
  3470  07E0  3001               	movlw	low(01h)
  3471  07E1  1283               	bcf	status, 5	;RP0=0, select bank0
  3472  07E2  1303               	bcf	status, 6	;RP1=0, select bank0
  3473  07E3  07BC               	addwf	(send_dec@i),f
  3474  07E4  1803               	skipnc
  3475  07E5  0ABD               	incf	(send_dec@i+1),f
  3476  07E6  3000               	movlw	high(01h)
  3477  07E7  07BD               	addwf	(send_dec@i+1),f
  3478                           	
  3479  07E8                     l3686:	
  3480  07E8  3000               	movlw	high(05h)
  3481  07E9  023D               	subwf	(send_dec@i+1),w
  3482  07EA  3005               	movlw	low(05h)
  3483  07EB  1903               	skipnz
  3484  07EC  023C               	subwf	(send_dec@i),w
  3485  07ED  1C03               	skipc
  3486  07EE  2FF0               	goto	u3951
  3487  07EF  2FF1               	goto	u3950
  3488  07F0                     u3951:
  3489  07F0  2FB8               	goto	l3682
  3490  07F1                     u3950:
  3491  07F1  2FF2               	goto	l3688
  3492                           	
  3493  07F2                     l1336:	
  3494                           	line	323
  3495                           	
  3496  07F2                     l3688:	
  3497                           ;PR31_final.c: 322: }
  3498                           ;PR31_final.c: 323: delay(1000);
  3499  07F2  3000               	movlw	0
  3500  07F3  00F3               	movwf	(?_delay+3)
  3501  07F4  3000               	movlw	0
  3502  07F5  00F2               	movwf	(?_delay+2)
  3503  07F6  3003               	movlw	03h
  3504  07F7  00F1               	movwf	(?_delay+1)
  3505  07F8  30E8               	movlw	0E8h
  3506  07F9  00F0               	movwf	(?_delay)
  3507                           
  3508  07FA  120A  118A  2004   	fcall	_delay
              120A  118A         
  3509                           	line	324
  3510                           	
  3511  07FF                     l1337:	
  3512  07FF  0008               	return
  3513                           	opt stack 0
  3514                           GLOBAL	__end_of_send_dec
  3515  0800                     	__end_of_send_dec:
  3516 ;; =============== function _send_dec ends ============
  3517                           
  3518                           	signat	_send_dec,4216
  3519                           	global	_adjust_vol
  3520                           psect	text612,local,class=CODE,delta=2
  3521                           global __ptext612
  3522  00E2                     __ptext612:
  3523                           
  3524 ;; *************** function _adjust_vol *****************
  3525 ;; Defined at:
  3526 ;;		line 344 in file "C:\Users\Phang\Desktop\9.80\PR 31\PR31_final.c"
  3527 ;; Parameters:    Size  Location     Type
  3528 ;;		None
  3529 ;; Auto vars:     Size  Location     Type
  3530 ;;  vol_default     1    6[BANK0 ] unsigned char 
  3531 ;;  check           1    5[BANK0 ] unsigned char 
  3532 ;; Return value:  Size  Location     Type
  3533 ;;		None               void
  3534 ;; Registers used:
  3535 ;;		wreg, fsr0l, fsr0h, status,2, status,0, btemp+1, pclath, cstack
  3536 ;; Tracked objects:
  3537 ;;		On entry : 0/0
  3538 ;;		On exit  : 0/0
  3539 ;;		Unchanged: 0/0
  3540 ;; Data sizes:     COMMON   BANK0   BANK1   BANK3   BANK2
  3541 ;;      Params:         0       0       0       0       0
  3542 ;;      Locals:         0       2       0       0       0
  3543 ;;      Temps:          0       1       0       0       0
  3544 ;;      Totals:         0       3       0       0       0
  3545 ;;Total ram usage:        3 bytes
  3546 ;; Hardware stack levels used:    1
  3547 ;; Hardware stack levels required when called:    4
  3548 ;; This function calls:
  3549 ;;		_lcd_goto
  3550 ;;		_send_char
  3551 ;;		_uart_tx
  3552 ;;		_delay
  3553 ;;		_set_vol
  3554 ;; This function is called by:
  3555 ;;		_main
  3556 ;;		_adjust_channel
  3557 ;; This function uses a non-reentrant model
  3558 ;;
  3559                           psect	text612
  3560                           	file	"C:\Users\Phang\Desktop\9.80\PR 31\PR31_final.c"
  3561                           	line	344
  3562                           	global	__size_of_adjust_vol
  3563  00AF                     	__size_of_adjust_vol	equ	__end_of_adjust_vol-_adjust_vol
  3564                           	
  3565  00E2                     _adjust_vol:	
  3566                           	opt	stack 3
  3567                           ; Regs used in _adjust_vol: [wreg-fsr0h+status,2+status,0+btemp+1+pclath+cstack]
  3568                           	line	346
  3569                           ;PR31_final.c: 346: while (1){
  3570                           	
  3571  00E2                     l1343:	
  3572                           	line	347
  3573                           	
  3574  00E2                     l3616:	
  3575                           ;PR31_final.c: 347: check = 0;
  3576  00E2  1003               	clrc
  3577  00E3  3000               	movlw	0
  3578  00E4  1803               	btfsc	status,0
  3579  00E5  3001               	movlw	1
  3580  00E6  1283               	bcf	status, 5	;RP0=0, select bank0
  3581  00E7  1303               	bcf	status, 6	;RP1=0, select bank0
  3582  00E8  00A5               	movwf	(adjust_vol@check)
  3583                           	line	348
  3584                           	
  3585  00E9                     l3618:	
  3586                           ;PR31_final.c: 348: lcd_goto(13);
  3587  00E9  300D               	movlw	(0Dh)
  3588  00EA  120A  158A  2373   	fcall	_lcd_goto
              120A  118A         
  3589                           	line	349
  3590                           	
  3591  00EF                     l3620:	
  3592                           ;PR31_final.c: 349: vol_default = vol;
  3593  00EF  1283               	bcf	status, 5	;RP0=0, select bank0
  3594  00F0  1303               	bcf	status, 6	;RP1=0, select bank0
  3595  00F1  0869               	movf	(_vol),w
  3596  00F2  00A4               	movwf	(??_adjust_vol+0)+0
  3597  00F3  0824               	movf	(??_adjust_vol+0)+0,w
  3598  00F4  00A6               	movwf	(adjust_vol@vol_default)
  3599                           	line	350
  3600                           	
  3601  00F5                     l3622:	
  3602                           ;PR31_final.c: 350: send_char(0x30+vol);
  3603  00F5  0869               	movf	(_vol),w
  3604  00F6  3E30               	addlw	030h
  3605  00F7  120A  158A  2340   	fcall	_send_char
              120A  118A         
  3606                           	line	351
  3607                           	
  3608  00FC                     l3624:	
  3609                           ;PR31_final.c: 351: uart_tx(0x30+vol);
  3610  00FC  1283               	bcf	status, 5	;RP0=0, select bank0
  3611  00FD  1303               	bcf	status, 6	;RP1=0, select bank0
  3612  00FE  0869               	movf	(_vol),w
  3613  00FF  3E30               	addlw	030h
  3614  0100  120A  158A  22D4   	fcall	_uart_tx
              120A  118A         
  3615                           	line	352
  3616                           	
  3617  0105                     l3626:	
  3618                           ;PR31_final.c: 352: delay(10);
  3619  0105  3000               	movlw	0
  3620  0106  00F3               	movwf	(?_delay+3)
  3621  0107  3000               	movlw	0
  3622  0108  00F2               	movwf	(?_delay+2)
  3623  0109  3000               	movlw	0
  3624  010A  00F1               	movwf	(?_delay+1)
  3625  010B  300A               	movlw	0Ah
  3626  010C  00F0               	movwf	(?_delay)
  3627                           
  3628  010D  120A  118A  2004   	fcall	_delay
              120A  118A         
  3629                           	line	355
  3630                           ;PR31_final.c: 355: while(check==0)
  3631  0112  2981               	goto	l3660
  3632                           	
  3633  0113                     l1345:	
  3634                           	line	357
  3635                           ;PR31_final.c: 356: {
  3636                           ;PR31_final.c: 357: if (RB3 == 0)
  3637  0113  1986               	btfsc	(51/8),(51)&7
  3638  0114  2916               	goto	u3801
  3639  0115  2917               	goto	u3800
  3640  0116                     u3801:
  3641  0116  293E               	goto	l3640
  3642  0117                     u3800:
  3643  0117  2919               	goto	l1347
  3644                           	line	359
  3645                           	
  3646  0118                     l3628:	
  3647                           ;PR31_final.c: 358: {
  3648                           ;PR31_final.c: 359: while (RB3==0);
  3649  0118  2919               	goto	l1347
  3650                           	
  3651  0119                     l1348:	
  3652                           	
  3653  0119                     l1347:	
  3654  0119  1D86               	btfss	(51/8),(51)&7
  3655  011A  291C               	goto	u3811
  3656  011B  291D               	goto	u3810
  3657  011C                     u3811:
  3658  011C  2919               	goto	l1347
  3659  011D                     u3810:
  3660  011D  291E               	goto	l3630
  3661                           	
  3662  011E                     l1349:	
  3663                           	line	360
  3664                           	
  3665  011E                     l3630:	
  3666                           ;PR31_final.c: 360: vol -=1;
  3667  011E  3001               	movlw	low(01h)
  3668  011F  02E9               	subwf	(_vol),f
  3669                           	line	361
  3670                           	
  3671  0120                     l3632:	
  3672                           ;PR31_final.c: 361: if ( vol <= 1 )
  3673  0120  3002               	movlw	(02h)
  3674  0121  0269               	subwf	(_vol),w
  3675  0122  1803               	skipnc
  3676  0123  2925               	goto	u3821
  3677  0124  2926               	goto	u3820
  3678  0125                     u3821:
  3679  0125  292A               	goto	l3636
  3680  0126                     u3820:
  3681                           	line	362
  3682                           	
  3683  0126                     l3634:	
  3684                           ;PR31_final.c: 362: vol = 1;
  3685  0126  01E9               	clrf	(_vol)
  3686  0127  1403               	bsf	status,0
  3687  0128  0DE9               	rlf	(_vol),f
  3688  0129  292A               	goto	l3636
  3689                           	
  3690  012A                     l1350:	
  3691                           	line	363
  3692                           	
  3693  012A                     l3636:	
  3694                           ;PR31_final.c: 363: set_vol (vol);
  3695  012A  0869               	movf	(_vol),w
  3696  012B  120A  158A  2755   	fcall	_set_vol
              120A  118A         
  3697                           	line	364
  3698                           	
  3699  0130                     l3638:	
  3700                           ;PR31_final.c: 364: delay(100);
  3701  0130  3000               	movlw	0
  3702  0131  00F3               	movwf	(?_delay+3)
  3703  0132  3000               	movlw	0
  3704  0133  00F2               	movwf	(?_delay+2)
  3705  0134  3000               	movlw	0
  3706  0135  00F1               	movwf	(?_delay+1)
  3707  0136  3064               	movlw	064h
  3708  0137  00F0               	movwf	(?_delay)
  3709                           
  3710  0138  120A  118A  2004   	fcall	_delay
              120A  118A         
  3711  013D  293E               	goto	l3640
  3712                           	line	365
  3713                           	
  3714  013E                     l1346:	
  3715                           	line	367
  3716                           	
  3717  013E                     l3640:	
  3718                           ;PR31_final.c: 365: }
  3719                           ;PR31_final.c: 367: if (RB2 == 0)
  3720  013E  1283               	bcf	status, 5	;RP0=0, select bank0
  3721  013F  1303               	bcf	status, 6	;RP1=0, select bank0
  3722  0140  1906               	btfsc	(50/8),(50)&7
  3723  0141  2943               	goto	u3831
  3724  0142  2944               	goto	u3830
  3725  0143                     u3831:
  3726  0143  296E               	goto	l3654
  3727  0144                     u3830:
  3728  0144  2946               	goto	l1352
  3729                           	line	369
  3730                           	
  3731  0145                     l3642:	
  3732                           ;PR31_final.c: 368: {
  3733                           ;PR31_final.c: 369: while (RB2==0);
  3734  0145  2946               	goto	l1352
  3735                           	
  3736  0146                     l1353:	
  3737                           	
  3738  0146                     l1352:	
  3739  0146  1D06               	btfss	(50/8),(50)&7
  3740  0147  2949               	goto	u3841
  3741  0148  294A               	goto	u3840
  3742  0149                     u3841:
  3743  0149  2946               	goto	l1352
  3744  014A                     u3840:
  3745  014A  294B               	goto	l3644
  3746                           	
  3747  014B                     l1354:	
  3748                           	line	370
  3749                           	
  3750  014B                     l3644:	
  3751                           ;PR31_final.c: 370: vol +=1;
  3752  014B  3001               	movlw	(01h)
  3753  014C  00A4               	movwf	(??_adjust_vol+0)+0
  3754  014D  0824               	movf	(??_adjust_vol+0)+0,w
  3755  014E  07E9               	addwf	(_vol),f
  3756                           	line	371
  3757                           	
  3758  014F                     l3646:	
  3759                           ;PR31_final.c: 371: if (vol >= 9)
  3760  014F  3009               	movlw	(09h)
  3761  0150  0269               	subwf	(_vol),w
  3762  0151  1C03               	skipc
  3763  0152  2954               	goto	u3851
  3764  0153  2955               	goto	u3850
  3765  0154                     u3851:
  3766  0154  295A               	goto	l3650
  3767  0155                     u3850:
  3768                           	line	372
  3769                           	
  3770  0155                     l3648:	
  3771                           ;PR31_final.c: 372: vol = 9;
  3772  0155  3009               	movlw	(09h)
  3773  0156  00A4               	movwf	(??_adjust_vol+0)+0
  3774  0157  0824               	movf	(??_adjust_vol+0)+0,w
  3775  0158  00E9               	movwf	(_vol)
  3776  0159  295A               	goto	l3650
  3777                           	
  3778  015A                     l1355:	
  3779                           	line	373
  3780                           	
  3781  015A                     l3650:	
  3782                           ;PR31_final.c: 373: set_vol (vol);
  3783  015A  0869               	movf	(_vol),w
  3784  015B  120A  158A  2755   	fcall	_set_vol
              120A  118A         
  3785                           	line	374
  3786                           	
  3787  0160                     l3652:	
  3788                           ;PR31_final.c: 374: delay(100);
  3789  0160  3000               	movlw	0
  3790  0161  00F3               	movwf	(?_delay+3)
  3791  0162  3000               	movlw	0
  3792  0163  00F2               	movwf	(?_delay+2)
  3793  0164  3000               	movlw	0
  3794  0165  00F1               	movwf	(?_delay+1)
  3795  0166  3064               	movlw	064h
  3796  0167  00F0               	movwf	(?_delay)
  3797                           
  3798  0168  120A  118A  2004   	fcall	_delay
              120A  118A         
  3799  016D  296E               	goto	l3654
  3800                           	line	375
  3801                           	
  3802  016E                     l1351:	
  3803                           	line	377
  3804                           	
  3805  016E                     l3654:	
  3806                           ;PR31_final.c: 375: }
  3807                           ;PR31_final.c: 377: if (RB0==0)
  3808  016E  1283               	bcf	status, 5	;RP0=0, select bank0
  3809  016F  1303               	bcf	status, 6	;RP1=0, select bank0
  3810  0170  1806               	btfsc	(48/8),(48)&7
  3811  0171  2973               	goto	u3861
  3812  0172  2974               	goto	u3860
  3813  0173                     u3861:
  3814  0173  2976               	goto	l3658
  3815  0174                     u3860:
  3816  0174  2990               	goto	l1357
  3817                           	line	379
  3818                           	
  3819  0175                     l3656:	
  3820                           ;PR31_final.c: 378: {
  3821                           ;PR31_final.c: 379: return;
  3822  0175  2990               	goto	l1357
  3823                           	line	380
  3824                           	
  3825  0176                     l1356:	
  3826                           	line	382
  3827                           	
  3828  0176                     l3658:	
  3829                           ;PR31_final.c: 380: }
  3830                           ;PR31_final.c: 382: check = vol & ~(vol_default);
  3831  0176  0926               	comf	(adjust_vol@vol_default),w
  3832  0177  0569               	andwf	(_vol),w
  3833  0178  00A4               	movwf	(??_adjust_vol+0)+0
  3834  0179  0824               	movf	(??_adjust_vol+0)+0,w
  3835  017A  00A5               	movwf	(adjust_vol@check)
  3836                           	line	383
  3837                           ;PR31_final.c: 383: check |= ~vol & vol_default;
  3838  017B  0969               	comf	(_vol),w
  3839  017C  0526               	andwf	(adjust_vol@vol_default),w
  3840  017D  00A4               	movwf	(??_adjust_vol+0)+0
  3841  017E  0824               	movf	(??_adjust_vol+0)+0,w
  3842  017F  04A5               	iorwf	(adjust_vol@check),f
  3843  0180  2981               	goto	l3660
  3844                           	line	385
  3845                           	
  3846  0181                     l1344:	
  3847                           	line	355
  3848                           	
  3849  0181                     l3660:	
  3850  0181  1283               	bcf	status, 5	;RP0=0, select bank0
  3851  0182  1303               	bcf	status, 6	;RP1=0, select bank0
  3852  0183  0825               	movf	(adjust_vol@check),w
  3853  0184  1D03               	skipz
  3854  0185  2987               	goto	u3870
  3855  0186  2913               	goto	l1345
  3856  0187                     u3870:
  3857  0187  2988               	goto	l3662
  3858                           	
  3859  0188                     l1358:	
  3860                           	line	386
  3861                           	
  3862  0188                     l3662:	
  3863                           ;PR31_final.c: 385: }
  3864                           ;PR31_final.c: 386: uart_tx(0x08);
  3865  0188  3008               	movlw	(08h)
  3866  0189  120A  158A  22D4   	fcall	_uart_tx
              120A  118A         
  3867  018E  28E2               	goto	l1343
  3868                           	line	387
  3869                           	
  3870  018F                     l1359:	
  3871                           	line	346
  3872  018F  28E2               	goto	l1343
  3873                           	
  3874  0190                     l1360:	
  3875                           	line	388
  3876                           	
  3877  0190                     l1357:	
  3878  0190  0008               	return
  3879                           	opt stack 0
  3880                           GLOBAL	__end_of_adjust_vol
  3881  0191                     	__end_of_adjust_vol:
  3882 ;; =============== function _adjust_vol ends ============
  3883                           
  3884                           	signat	_adjust_vol,88
  3885                           	global	_lcd_clr
  3886                           psect	text613,local,class=CODE,delta=2
  3887                           global __ptext613
  3888  0B59                     __ptext613:
  3889                           
  3890 ;; *************** function _lcd_clr *****************
  3891 ;; Defined at:
  3892 ;;		line 500 in file "C:\Users\Phang\Desktop\9.80\PR 31\PR31_final.c"
  3893 ;; Parameters:    Size  Location     Type
  3894 ;;		None
  3895 ;; Auto vars:     Size  Location     Type
  3896 ;;		None
  3897 ;; Return value:  Size  Location     Type
  3898 ;;		None               void
  3899 ;; Registers used:
  3900 ;;		wreg, status,2, status,0, pclath, cstack
  3901 ;; Tracked objects:
  3902 ;;		On entry : 0/0
  3903 ;;		On exit  : 0/0
  3904 ;;		Unchanged: 0/0
  3905 ;; Data sizes:     COMMON   BANK0   BANK1   BANK3   BANK2
  3906 ;;      Params:         0       0       0       0       0
  3907 ;;      Locals:         0       0       0       0       0
  3908 ;;      Temps:          0       0       0       0       0
  3909 ;;      Totals:         0       0       0       0       0
  3910 ;;Total ram usage:        0 bytes
  3911 ;; Hardware stack levels used:    1
  3912 ;; Hardware stack levels required when called:    3
  3913 ;; This function calls:
  3914 ;;		_send_config
  3915 ;;		_delay
  3916 ;; This function is called by:
  3917 ;;		_main
  3918 ;;		_switch_channel
  3919 ;;		_adjust_channel
  3920 ;; This function uses a non-reentrant model
  3921 ;;
  3922                           psect	text613
  3923                           	file	"C:\Users\Phang\Desktop\9.80\PR 31\PR31_final.c"
  3924                           	line	500
  3925                           	global	__size_of_lcd_clr
  3926  001A                     	__size_of_lcd_clr	equ	__end_of_lcd_clr-_lcd_clr
  3927                           	
  3928  0B59                     _lcd_clr:	
  3929                           	opt	stack 2
  3930                           ; Regs used in _lcd_clr: [wreg+status,2+status,0+pclath+cstack]
  3931                           	line	501
  3932                           	
  3933  0B59                     l3614:	
  3934                           ;PR31_final.c: 501: send_config(0b00000001);
  3935  0B59  3001               	movlw	(01h)
  3936  0B5A  120A  158A  2327   	fcall	_send_config
              120A  158A         
  3937                           	line	502
  3938                           ;PR31_final.c: 502: send_config(0b00000010);
  3939  0B5F  3002               	movlw	(02h)
  3940  0B60  120A  158A  2327   	fcall	_send_config
              120A  158A         
  3941                           	line	503
  3942                           ;PR31_final.c: 503: delay(350);
  3943  0B65  3000               	movlw	0
  3944  0B66  00F3               	movwf	(?_delay+3)
  3945  0B67  3000               	movlw	0
  3946  0B68  00F2               	movwf	(?_delay+2)
  3947  0B69  3001               	movlw	01h
  3948  0B6A  00F1               	movwf	(?_delay+1)
  3949  0B6B  305E               	movlw	05Eh
  3950  0B6C  00F0               	movwf	(?_delay)
  3951                           
  3952  0B6D  120A  118A  2004   	fcall	_delay
              120A  158A         
  3953                           	line	504
  3954                           	
  3955  0B72                     l1396:	
  3956  0B72  0008               	return
  3957                           	opt stack 0
  3958                           GLOBAL	__end_of_lcd_clr
  3959  0B73                     	__end_of_lcd_clr:
  3960 ;; =============== function _lcd_clr ends ============
  3961                           
  3962                           	signat	_lcd_clr,88
  3963                           	global	_lcd_goto
  3964                           psect	text614,local,class=CODE,delta=2
  3965                           global __ptext614
  3966  0B73                     __ptext614:
  3967                           
  3968 ;; *************** function _lcd_goto *****************
  3969 ;; Defined at:
  3970 ;;		line 488 in file "C:\Users\Phang\Desktop\9.80\PR 31\PR31_final.c"
  3971 ;; Parameters:    Size  Location     Type
  3972 ;;  RC4             1    wreg     unsigned char 
  3973 ;; Auto vars:     Size  Location     Type
  3974 ;;  RC4             1   10[COMMON] unsigned char 
  3975 ;; Return value:  Size  Location     Type
  3976 ;;		None               void
  3977 ;; Registers used:
  3978 ;;		wreg, status,2, status,0, pclath, cstack
  3979 ;; Tracked objects:
  3980 ;;		On entry : 0/0
  3981 ;;		On exit  : 0/0
  3982 ;;		Unchanged: 0/0
  3983 ;; Data sizes:     COMMON   BANK0   BANK1   BANK3   BANK2
  3984 ;;      Params:         0       0       0       0       0
  3985 ;;      Locals:         1       0       0       0       0
  3986 ;;      Temps:          1       0       0       0       0
  3987 ;;      Totals:         2       0       0       0       0
  3988 ;;Total ram usage:        2 bytes
  3989 ;; Hardware stack levels used:    1
  3990 ;; Hardware stack levels required when called:    3
  3991 ;; This function calls:
  3992 ;;		_send_config
  3993 ;; This function is called by:
  3994 ;;		_main
  3995 ;;		_adjust_channel
  3996 ;;		_send_dec
  3997 ;;		_adjust_vol
  3998 ;; This function uses a non-reentrant model
  3999 ;;
  4000                           psect	text614
  4001                           	file	"C:\Users\Phang\Desktop\9.80\PR 31\PR31_final.c"
  4002                           	line	488
  4003                           	global	__size_of_lcd_goto
  4004  001D                     	__size_of_lcd_goto	equ	__end_of_lcd_goto-_lcd_goto
  4005                           	
  4006  0B73                     _lcd_goto:	
  4007                           	opt	stack 3
  4008                           ; Regs used in _lcd_goto: [wreg+status,2+status,0+pclath+cstack]
  4009                           ;lcd_goto@RC4 stored from wreg
  4010  0B73  00FA               	movwf	(lcd_goto@RC4)
  4011                           	line	489
  4012                           	
  4013  0B74                     l3606:	
  4014                           ;PR31_final.c: 489: if(RC4<16)
  4015  0B74  3010               	movlw	(010h)
  4016  0B75  027A               	subwf	(lcd_goto@RC4),w
  4017  0B76  1803               	skipnc
  4018  0B77  2B79               	goto	u3791
  4019  0B78  2B7A               	goto	u3790
  4020  0B79                     u3791:
  4021  0B79  2B82               	goto	l3610
  4022  0B7A                     u3790:
  4023                           	line	491
  4024                           	
  4025  0B7A                     l3608:	
  4026                           ;PR31_final.c: 490: {
  4027                           ;PR31_final.c: 491: send_config(0x80+RC4);
  4028  0B7A  087A               	movf	(lcd_goto@RC4),w
  4029  0B7B  3E80               	addlw	080h
  4030  0B7C  120A  158A  2327   	fcall	_send_config
              120A  158A         
  4031                           	line	492
  4032                           ;PR31_final.c: 492: }
  4033  0B81  2B8F               	goto	l1393
  4034                           	line	493
  4035                           	
  4036  0B82                     l1391:	
  4037                           	line	495
  4038                           	
  4039  0B82                     l3610:	
  4040                           ;PR31_final.c: 493: else
  4041                           ;PR31_final.c: 494: {
  4042                           ;PR31_final.c: 495: RC4=RC4-20;
  4043  0B82  087A               	movf	(lcd_goto@RC4),w
  4044  0B83  3EEC               	addlw	0ECh
  4045  0B84  00F9               	movwf	(??_lcd_goto+0)+0
  4046  0B85  0879               	movf	(??_lcd_goto+0)+0,w
  4047  0B86  00FA               	movwf	(lcd_goto@RC4)
  4048                           	line	496
  4049                           	
  4050  0B87                     l3612:	
  4051                           ;PR31_final.c: 496: send_config(0xc0+RC4);
  4052  0B87  087A               	movf	(lcd_goto@RC4),w
  4053  0B88  3EC0               	addlw	0C0h
  4054  0B89  120A  158A  2327   	fcall	_send_config
              120A  158A         
  4055  0B8E  2B8F               	goto	l1393
  4056                           	line	497
  4057                           	
  4058  0B8F                     l1392:	
  4059                           	line	498
  4060                           	
  4061  0B8F                     l1393:	
  4062  0B8F  0008               	return
  4063                           	opt stack 0
  4064                           GLOBAL	__end_of_lcd_goto
  4065  0B90                     	__end_of_lcd_goto:
  4066 ;; =============== function _lcd_goto ends ============
  4067                           
  4068                           	signat	_lcd_goto,4216
  4069                           	global	_send_string
  4070                           psect	text615,local,class=CODE,delta=2
  4071                           global __ptext615
  4072  0C10                     __ptext615:
  4073                           
  4074 ;; *************** function _send_string *****************
  4075 ;; Defined at:
  4076 ;;		line 506 in file "C:\Users\Phang\Desktop\9.80\PR 31\PR31_final.c"
  4077 ;; Parameters:    Size  Location     Type
  4078 ;;  s               1    wreg     PTR const unsigned char 
  4079 ;;		 -> STR_20(4), STR_16(17), STR_14(8), STR_12(9), 
  4080 ;;		 -> STR_10(9), STR_8(17), STR_6(12), STR_4(17), 
  4081 ;;		 -> STR_2(14), STR_1(7), 
  4082 ;; Auto vars:     Size  Location     Type
  4083 ;;  s               1   11[COMMON] PTR const unsigned char 
  4084 ;;		 -> STR_20(4), STR_16(17), STR_14(8), STR_12(9), 
  4085 ;;		 -> STR_10(9), STR_8(17), STR_6(12), STR_4(17), 
  4086 ;;		 -> STR_2(14), STR_1(7), 
  4087 ;;  i               1   10[COMMON] unsigned char 
  4088 ;; Return value:  Size  Location     Type
  4089 ;;		None               void
  4090 ;; Registers used:
  4091 ;;		wreg, fsr0l, fsr0h, status,2, status,0, pclath, cstack
  4092 ;; Tracked objects:
  4093 ;;		On entry : 0/0
  4094 ;;		On exit  : 0/0
  4095 ;;		Unchanged: 0/0
  4096 ;; Data sizes:     COMMON   BANK0   BANK1   BANK3   BANK2
  4097 ;;      Params:         0       0       0       0       0
  4098 ;;      Locals:         2       0       0       0       0
  4099 ;;      Temps:          1       0       0       0       0
  4100 ;;      Totals:         3       0       0       0       0
  4101 ;;Total ram usage:        3 bytes
  4102 ;; Hardware stack levels used:    1
  4103 ;; Hardware stack levels required when called:    3
  4104 ;; This function calls:
  4105 ;;		_send_char
  4106 ;; This function is called by:
  4107 ;;		_main
  4108 ;;		_switch_channel
  4109 ;;		_adjust_channel
  4110 ;;		_send_dec
  4111 ;; This function uses a non-reentrant model
  4112 ;;
  4113                           psect	text615
  4114                           	file	"C:\Users\Phang\Desktop\9.80\PR 31\PR31_final.c"
  4115                           	line	506
  4116                           	global	__size_of_send_string
  4117  002B                     	__size_of_send_string	equ	__end_of_send_string-_send_string
  4118                           	
  4119  0C10                     _send_string:	
  4120                           	opt	stack 1
  4121                           ; Regs used in _send_string: [wreg-fsr0h+status,2+status,0+pclath+cstack]
  4122                           ;send_string@s stored from wreg
  4123  0C10  00FB               	movwf	(send_string@s)
  4124                           	line	507
  4125                           	
  4126  0C11                     l3596:	
  4127                           ;PR31_final.c: 507: unsigned char i=0;
  4128  0C11  1003               	clrc
  4129  0C12  3000               	movlw	0
  4130  0C13  1803               	btfsc	status,0
  4131  0C14  3001               	movlw	1
  4132  0C15  00FA               	movwf	(send_string@i)
  4133                           	line	508
  4134                           ;PR31_final.c: 508: while (s && *s)send_char (*s++);
  4135  0C16  2C28               	goto	l3602
  4136                           	
  4137  0C17                     l1400:	
  4138                           	
  4139  0C17                     l3598:	
  4140  0C17  087B               	movf	(send_string@s),w
  4141  0C18  0084               	movwf	fsr0
  4142  0C19  120A  158A  2000   	fcall	stringdir
              120A  158A         
  4143  0C1E  120A  158A  2340   	fcall	_send_char
              120A  158A         
  4144                           	
  4145  0C23                     l3600:	
  4146  0C23  3001               	movlw	(01h)
  4147  0C24  00F9               	movwf	(??_send_string+0)+0
  4148  0C25  0879               	movf	(??_send_string+0)+0,w
  4149  0C26  07FB               	addwf	(send_string@s),f
  4150  0C27  2C28               	goto	l3602
  4151                           	
  4152  0C28                     l1399:	
  4153                           	
  4154  0C28                     l3602:	
  4155  0C28  087B               	movf	(send_string@s),w
  4156  0C29  1D03               	skipz
  4157  0C2A  2C2C               	goto	u3770
  4158  0C2B  2C3A               	goto	l1404
  4159  0C2C                     u3770:
  4160                           	
  4161  0C2C                     l3604:	
  4162  0C2C  087B               	movf	(send_string@s),w
  4163  0C2D  0084               	movwf	fsr0
  4164  0C2E  120A  158A  2000   	fcall	stringdir
              120A  158A         
  4165  0C33  3800               	iorlw	0
  4166  0C34  1D03               	skipz
  4167  0C35  2C37               	goto	u3781
  4168  0C36  2C38               	goto	u3780
  4169  0C37                     u3781:
  4170  0C37  2C17               	goto	l3598
  4171  0C38                     u3780:
  4172  0C38  2C3A               	goto	l1404
  4173                           	
  4174  0C39                     l1402:	
  4175  0C39  2C3A               	goto	l1404
  4176                           	
  4177  0C3A                     l1403:	
  4178                           	line	509
  4179                           	
  4180  0C3A                     l1404:	
  4181  0C3A  0008               	return
  4182                           	opt stack 0
  4183                           GLOBAL	__end_of_send_string
  4184  0C3B                     	__end_of_send_string:
  4185 ;; =============== function _send_string ends ============
  4186                           
  4187                           	signat	_send_string,4216
  4188                           	global	_send_char
  4189                           psect	text616,local,class=CODE,delta=2
  4190                           global __ptext616
  4191  0B40                     __ptext616:
  4192                           
  4193 ;; *************** function _send_char *****************
  4194 ;; Defined at:
  4195 ;;		line 474 in file "C:\Users\Phang\Desktop\9.80\PR 31\PR31_final.c"
  4196 ;; Parameters:    Size  Location     Type
  4197 ;;  RC4             1    wreg     unsigned char 
  4198 ;; Auto vars:     Size  Location     Type
  4199 ;;  RC4             1    8[COMMON] unsigned char 
  4200 ;; Return value:  Size  Location     Type
  4201 ;;		None               void
  4202 ;; Registers used:
  4203 ;;		wreg, status,2, status,0, pclath, cstack
  4204 ;; Tracked objects:
  4205 ;;		On entry : 0/0
  4206 ;;		On exit  : 0/0
  4207 ;;		Unchanged: 0/0
  4208 ;; Data sizes:     COMMON   BANK0   BANK1   BANK3   BANK2
  4209 ;;      Params:         0       0       0       0       0
  4210 ;;      Locals:         1       0       0       0       0
  4211 ;;      Temps:          0       0       0       0       0
  4212 ;;      Totals:         1       0       0       0       0
  4213 ;;Total ram usage:        1 bytes
  4214 ;; Hardware stack levels used:    1
  4215 ;; Hardware stack levels required when called:    2
  4216 ;; This function calls:
  4217 ;;		_delay
  4218 ;;		_e_pulse
  4219 ;; This function is called by:
  4220 ;;		_switch_channel
  4221 ;;		_adjust_channel
  4222 ;;		_send_dec
  4223 ;;		_adjust_vol
  4224 ;;		_send_string
  4225 ;; This function uses a non-reentrant model
  4226 ;;
  4227                           psect	text616
  4228                           	file	"C:\Users\Phang\Desktop\9.80\PR 31\PR31_final.c"
  4229                           	line	474
  4230                           	global	__size_of_send_char
  4231  0019                     	__size_of_send_char	equ	__end_of_send_char-_send_char
  4232                           	
  4233  0B40                     _send_char:	
  4234                           	opt	stack 4
  4235                           ; Regs used in _send_char: [wreg+status,2+status,0+pclath+cstack]
  4236                           ;send_char@RC4 stored from wreg
  4237  0B40  00F8               	movwf	(send_char@RC4)
  4238                           	line	475
  4239                           	
  4240  0B41                     l3588:	
  4241                           ;PR31_final.c: 475: RB4=1;
  4242  0B41  1283               	bcf	status, 5	;RP0=0, select bank0
  4243  0B42  1303               	bcf	status, 6	;RP1=0, select bank0
  4244  0B43  1606               	bsf	(52/8),(52)&7
  4245                           	line	476
  4246                           	
  4247  0B44                     l3590:	
  4248                           ;PR31_final.c: 476: PORTD=RC4;
  4249  0B44  0878               	movf	(send_char@RC4),w
  4250  0B45  0088               	movwf	(8)	;volatile
  4251                           	line	477
  4252                           	
  4253  0B46                     l3592:	
  4254                           ;PR31_final.c: 477: delay(300);
  4255  0B46  3000               	movlw	0
  4256  0B47  00F3               	movwf	(?_delay+3)
  4257  0B48  3000               	movlw	0
  4258  0B49  00F2               	movwf	(?_delay+2)
  4259  0B4A  3001               	movlw	01h
  4260  0B4B  00F1               	movwf	(?_delay+1)
  4261  0B4C  302C               	movlw	02Ch
  4262  0B4D  00F0               	movwf	(?_delay)
  4263                           
  4264  0B4E  120A  118A  2004   	fcall	_delay
              120A  158A         
  4265                           	line	478
  4266                           	
  4267  0B53                     l3594:	
  4268                           ;PR31_final.c: 478: e_pulse();
  4269  0B53  120A  158A  23EF   	fcall	_e_pulse
              120A  158A         
  4270                           	line	479
  4271                           	
  4272  0B58                     l1385:	
  4273  0B58  0008               	return
  4274                           	opt stack 0
  4275                           GLOBAL	__end_of_send_char
  4276  0B59                     	__end_of_send_char:
  4277 ;; =============== function _send_char ends ============
  4278                           
  4279                           	signat	_send_char,4216
  4280                           	global	_send_config
  4281                           psect	text617,local,class=CODE,delta=2
  4282                           global __ptext617
  4283  0B27                     __ptext617:
  4284                           
  4285 ;; *************** function _send_config *****************
  4286 ;; Defined at:
  4287 ;;		line 467 in file "C:\Users\Phang\Desktop\9.80\PR 31\PR31_final.c"
  4288 ;; Parameters:    Size  Location     Type
  4289 ;;  RC4             1    wreg     unsigned char 
  4290 ;; Auto vars:     Size  Location     Type
  4291 ;;  RC4             1    8[COMMON] unsigned char 
  4292 ;; Return value:  Size  Location     Type
  4293 ;;		None               void
  4294 ;; Registers used:
  4295 ;;		wreg, status,2, status,0, pclath, cstack
  4296 ;; Tracked objects:
  4297 ;;		On entry : 0/0
  4298 ;;		On exit  : 0/0
  4299 ;;		Unchanged: 0/0
  4300 ;; Data sizes:     COMMON   BANK0   BANK1   BANK3   BANK2
  4301 ;;      Params:         0       0       0       0       0
  4302 ;;      Locals:         1       0       0       0       0
  4303 ;;      Temps:          0       0       0       0       0
  4304 ;;      Totals:         1       0       0       0       0
  4305 ;;Total ram usage:        1 bytes
  4306 ;; Hardware stack levels used:    1
  4307 ;; Hardware stack levels required when called:    2
  4308 ;; This function calls:
  4309 ;;		_delay
  4310 ;;		_e_pulse
  4311 ;; This function is called by:
  4312 ;;		_main
  4313 ;;		_lcd_goto
  4314 ;;		_lcd_clr
  4315 ;; This function uses a non-reentrant model
  4316 ;;
  4317                           psect	text617
  4318                           	file	"C:\Users\Phang\Desktop\9.80\PR 31\PR31_final.c"
  4319                           	line	467
  4320                           	global	__size_of_send_config
  4321  0019                     	__size_of_send_config	equ	__end_of_send_config-_send_config
  4322                           	
  4323  0B27                     _send_config:	
  4324                           	opt	stack 3
  4325                           ; Regs used in _send_config: [wreg+status,2+status,0+pclath+cstack]
  4326                           ;send_config@RC4 stored from wreg
  4327  0B27  00F8               	movwf	(send_config@RC4)
  4328                           	line	468
  4329                           	
  4330  0B28                     l3580:	
  4331                           ;PR31_final.c: 468: RB4=0;
  4332  0B28  1283               	bcf	status, 5	;RP0=0, select bank0
  4333  0B29  1303               	bcf	status, 6	;RP1=0, select bank0
  4334  0B2A  1206               	bcf	(52/8),(52)&7
  4335                           	line	469
  4336                           	
  4337  0B2B                     l3582:	
  4338                           ;PR31_final.c: 469: PORTD=RC4;
  4339  0B2B  0878               	movf	(send_config@RC4),w
  4340  0B2C  0088               	movwf	(8)	;volatile
  4341                           	line	470
  4342                           	
  4343  0B2D                     l3584:	
  4344                           ;PR31_final.c: 470: delay(300);
  4345  0B2D  3000               	movlw	0
  4346  0B2E  00F3               	movwf	(?_delay+3)
  4347  0B2F  3000               	movlw	0
  4348  0B30  00F2               	movwf	(?_delay+2)
  4349  0B31  3001               	movlw	01h
  4350  0B32  00F1               	movwf	(?_delay+1)
  4351  0B33  302C               	movlw	02Ch
  4352  0B34  00F0               	movwf	(?_delay)
  4353                           
  4354  0B35  120A  118A  2004   	fcall	_delay
              120A  158A         
  4355                           	line	471
  4356                           	
  4357  0B3A                     l3586:	
  4358                           ;PR31_final.c: 471: e_pulse();
  4359  0B3A  120A  158A  23EF   	fcall	_e_pulse
              120A  158A         
  4360                           	line	472
  4361                           	
  4362  0B3F                     l1382:	
  4363  0B3F  0008               	return
  4364                           	opt stack 0
  4365                           GLOBAL	__end_of_send_config
  4366  0B40                     	__end_of_send_config:
  4367 ;; =============== function _send_config ends ============
  4368                           
  4369                           	signat	_send_config,4216
  4370                           	global	_e_pulse
  4371                           psect	text618,local,class=CODE,delta=2
  4372                           global __ptext618
  4373  0BEF                     __ptext618:
  4374                           
  4375 ;; *************** function _e_pulse *****************
  4376 ;; Defined at:
  4377 ;;		line 481 in file "C:\Users\Phang\Desktop\9.80\PR 31\PR31_final.c"
  4378 ;; Parameters:    Size  Location     Type
  4379 ;;		None
  4380 ;; Auto vars:     Size  Location     Type
  4381 ;;		None
  4382 ;; Return value:  Size  Location     Type
  4383 ;;		None               void
  4384 ;; Registers used:
  4385 ;;		wreg, status,2, status,0, pclath, cstack
  4386 ;; Tracked objects:
  4387 ;;		On entry : 0/0
  4388 ;;		On exit  : 0/0
  4389 ;;		Unchanged: 0/0
  4390 ;; Data sizes:     COMMON   BANK0   BANK1   BANK3   BANK2
  4391 ;;      Params:         0       0       0       0       0
  4392 ;;      Locals:         0       0       0       0       0
  4393 ;;      Temps:          0       0       0       0       0
  4394 ;;      Totals:         0       0       0       0       0
  4395 ;;Total ram usage:        0 bytes
  4396 ;; Hardware stack levels used:    1
  4397 ;; Hardware stack levels required when called:    1
  4398 ;; This function calls:
  4399 ;;		_delay
  4400 ;; This function is called by:
  4401 ;;		_send_config
  4402 ;;		_send_char
  4403 ;; This function uses a non-reentrant model
  4404 ;;
  4405                           psect	text618
  4406                           	file	"C:\Users\Phang\Desktop\9.80\PR 31\PR31_final.c"
  4407                           	line	481
  4408                           	global	__size_of_e_pulse
  4409  0021                     	__size_of_e_pulse	equ	__end_of_e_pulse-_e_pulse
  4410                           	
  4411  0BEF                     _e_pulse:	
  4412                           	opt	stack 4
  4413                           ; Regs used in _e_pulse: [wreg+status,2+status,0+pclath+cstack]
  4414                           	line	482
  4415                           	
  4416  0BEF                     l3574:	
  4417                           ;PR31_final.c: 482: RB5=1;
  4418  0BEF  1283               	bcf	status, 5	;RP0=0, select bank0
  4419  0BF0  1303               	bcf	status, 6	;RP1=0, select bank0
  4420  0BF1  1686               	bsf	(53/8),(53)&7
  4421                           	line	483
  4422                           	
  4423  0BF2                     l3576:	
  4424                           ;PR31_final.c: 483: delay(300);
  4425  0BF2  3000               	movlw	0
  4426  0BF3  00F3               	movwf	(?_delay+3)
  4427  0BF4  3000               	movlw	0
  4428  0BF5  00F2               	movwf	(?_delay+2)
  4429  0BF6  3001               	movlw	01h
  4430  0BF7  00F1               	movwf	(?_delay+1)
  4431  0BF8  302C               	movlw	02Ch
  4432  0BF9  00F0               	movwf	(?_delay)
  4433                           
  4434  0BFA  120A  118A  2004   	fcall	_delay
              120A  158A         
  4435                           	line	484
  4436                           	
  4437  0BFF                     l3578:	
  4438                           ;PR31_final.c: 484: RB5=0;
  4439  0BFF  1283               	bcf	status, 5	;RP0=0, select bank0
  4440  0C00  1303               	bcf	status, 6	;RP1=0, select bank0
  4441  0C01  1286               	bcf	(53/8),(53)&7
  4442                           	line	485
  4443                           ;PR31_final.c: 485: delay(300);
  4444  0C02  3000               	movlw	0
  4445  0C03  00F3               	movwf	(?_delay+3)
  4446  0C04  3000               	movlw	0
  4447  0C05  00F2               	movwf	(?_delay+2)
  4448  0C06  3001               	movlw	01h
  4449  0C07  00F1               	movwf	(?_delay+1)
  4450  0C08  302C               	movlw	02Ch
  4451  0C09  00F0               	movwf	(?_delay)
  4452                           
  4453  0C0A  120A  118A  2004   	fcall	_delay
              120A  158A         
  4454                           	line	486
  4455                           	
  4456  0C0F                     l1388:	
  4457  0C0F  0008               	return
  4458                           	opt stack 0
  4459                           GLOBAL	__end_of_e_pulse
  4460  0C10                     	__end_of_e_pulse:
  4461 ;; =============== function _e_pulse ends ============
  4462                           
  4463                           	signat	_e_pulse,88
  4464                           	global	_setAR1000
  4465                           psect	text619,local,class=CODE,delta=2
  4466                           global __ptext619
  4467  0191                     __ptext619:
  4468                           
  4469 ;; *************** function _setAR1000 *****************
  4470 ;; Defined at:
  4471 ;;		line 416 in file "C:\Users\Phang\Desktop\9.80\PR 31\PR31_final.c"
  4472 ;; Parameters:    Size  Location     Type
  4473 ;;  freq_kHz        2    9[BANK0 ] unsigned int 
  4474 ;; Auto vars:     Size  Location     Type
  4475 ;;		None
  4476 ;; Return value:  Size  Location     Type
  4477 ;;		None               void
  4478 ;; Registers used:
  4479 ;;		wreg, status,2, status,0, btemp+1, pclath, cstack
  4480 ;; Tracked objects:
  4481 ;;		On entry : 0/0
  4482 ;;		On exit  : 0/0
  4483 ;;		Unchanged: 0/0
  4484 ;; Data sizes:     COMMON   BANK0   BANK1   BANK3   BANK2
  4485 ;;      Params:         0       2       0       0       0
  4486 ;;      Locals:         0       0       0       0       0
  4487 ;;      Temps:          0       3       0       0       0
  4488 ;;      Totals:         0       5       0       0       0
  4489 ;;Total ram usage:        5 bytes
  4490 ;; Hardware stack levels used:    1
  4491 ;; Hardware stack levels required when called:    1
  4492 ;; This function calls:
  4493 ;;		_ar_i2c_write
  4494 ;;		_ar_i2c_read
  4495 ;;		_delay
  4496 ;; This function is called by:
  4497 ;;		_switch_channel
  4498 ;;		_decrease_chan
  4499 ;;		_increase_chan
  4500 ;; This function uses a non-reentrant model
  4501 ;;
  4502                           psect	text619
  4503                           	file	"C:\Users\Phang\Desktop\9.80\PR 31\PR31_final.c"
  4504                           	line	416
  4505                           	global	__size_of_setAR1000
  4506  0111                     	__size_of_setAR1000	equ	__end_of_setAR1000-_setAR1000
  4507                           	
  4508  0191                     _setAR1000:	
  4509                           	opt	stack 4
  4510                           ; Regs used in _setAR1000: [wreg+status,2+status,0+btemp+1+pclath+cstack]
  4511                           	line	417
  4512                           	
  4513  0191                     l3538:	
  4514                           ;PR31_final.c: 417: freq_kHz -= 690;
  4515  0191  30B2               	movlw	low(02B2h)
  4516  0192  1283               	bcf	status, 5	;RP0=0, select bank0
  4517  0193  1303               	bcf	status, 6	;RP1=0, select bank0
  4518  0194  02A9               	subwf	(setAR1000@freq_kHz),f
  4519  0195  3002               	movlw	high(02B2h)
  4520  0196  1C03               	skipc
  4521  0197  03AA               	decf	(setAR1000@freq_kHz+1),f
  4522  0198  02AA               	subwf	(setAR1000@freq_kHz+1),f
  4523                           	line	419
  4524                           	
  4525  0199                     l3540:	
  4526                           ;PR31_final.c: 419: register_values[1] |= (1<<1);
  4527  0199  1683               	bsf	status, 5	;RP0=1, select bank1
  4528  019A  1303               	bcf	status, 6	;RP1=0, select bank1
  4529  019B  14AC               	bsf	0+(_register_values)^080h+02h+(1/8),(1)&7
  4530                           	line	420
  4531                           	
  4532  019C                     l3542:	
  4533                           ;PR31_final.c: 420: ar_i2c_write(0x20, 1, register_values[1]);
  4534  019C  01F0               	clrf	(?_ar_i2c_write)
  4535  019D  1403               	bsf	status,0
  4536  019E  0DF0               	rlf	(?_ar_i2c_write),f
  4537  019F  082C               	movf	0+(_register_values)^080h+02h,w
  4538  01A0  00F1               	movwf	0+(?_ar_i2c_write)+01h
  4539  01A1  082D               	movf	1+(_register_values)^080h+02h,w
  4540  01A2  00F2               	movwf	(0+(?_ar_i2c_write)+01h)+1
  4541  01A3  01F3               	clrf	2+(0+(?_ar_i2c_write)+01h)
  4542  01A4  01F4               	clrf	3+(0+(?_ar_i2c_write)+01h)
  4543  01A5  3020               	movlw	(020h)
  4544  01A6  120A  158A  26CE   	fcall	_ar_i2c_write
              120A  118A         
  4545                           	line	423
  4546                           	
  4547  01AB                     l3544:	
  4548                           ;PR31_final.c: 423: register_values[2] &= ~(0x01FF | 0x0200);
  4549  01AB  3000               	movlw	low(0FC00h)
  4550  01AC  1683               	bsf	status, 5	;RP0=1, select bank1
  4551  01AD  1303               	bcf	status, 6	;RP1=0, select bank1
  4552  01AE  05AE               	andwf	0+(_register_values)^080h+04h,f
  4553  01AF  30FC               	movlw	high(0FC00h)
  4554  01B0  05AF               	andwf	1+(_register_values)^080h+04h,f
  4555                           	line	424
  4556                           ;PR31_final.c: 424: ar_i2c_write(0x20, 2, register_values[2]);
  4557  01B1  3002               	movlw	(02h)
  4558  01B2  1283               	bcf	status, 5	;RP0=0, select bank0
  4559  01B3  1303               	bcf	status, 6	;RP1=0, select bank0
  4560  01B4  00AB               	movwf	(??_setAR1000+0)+0
  4561  01B5  082B               	movf	(??_setAR1000+0)+0,w
  4562  01B6  00F0               	movwf	(?_ar_i2c_write)
  4563  01B7  1683               	bsf	status, 5	;RP0=1, select bank1
  4564  01B8  1303               	bcf	status, 6	;RP1=0, select bank1
  4565  01B9  082E               	movf	0+(_register_values)^080h+04h,w
  4566  01BA  00F1               	movwf	0+(?_ar_i2c_write)+01h
  4567  01BB  082F               	movf	1+(_register_values)^080h+04h,w
  4568  01BC  00F2               	movwf	(0+(?_ar_i2c_write)+01h)+1
  4569  01BD  01F3               	clrf	2+(0+(?_ar_i2c_write)+01h)
  4570  01BE  01F4               	clrf	3+(0+(?_ar_i2c_write)+01h)
  4571  01BF  3020               	movlw	(020h)
  4572  01C0  120A  158A  26CE   	fcall	_ar_i2c_write
              120A  118A         
  4573                           	line	427
  4574                           	
  4575  01C5                     l3546:	
  4576                           ;PR31_final.c: 427: register_values[3] &= ~(1<<14);
  4577  01C5  30FF               	movlw	low(0BFFFh)
  4578  01C6  1683               	bsf	status, 5	;RP0=1, select bank1
  4579  01C7  1303               	bcf	status, 6	;RP1=0, select bank1
  4580  01C8  05B0               	andwf	0+(_register_values)^080h+06h,f
  4581  01C9  30BF               	movlw	high(0BFFFh)
  4582  01CA  05B1               	andwf	1+(_register_values)^080h+06h,f
  4583                           	line	428
  4584                           	
  4585  01CB                     l3548:	
  4586                           ;PR31_final.c: 428: ar_i2c_write(0x20, 3,register_values[3]);
  4587  01CB  3003               	movlw	(03h)
  4588  01CC  1283               	bcf	status, 5	;RP0=0, select bank0
  4589  01CD  1303               	bcf	status, 6	;RP1=0, select bank0
  4590  01CE  00AB               	movwf	(??_setAR1000+0)+0
  4591  01CF  082B               	movf	(??_setAR1000+0)+0,w
  4592  01D0  00F0               	movwf	(?_ar_i2c_write)
  4593  01D1  1683               	bsf	status, 5	;RP0=1, select bank1
  4594  01D2  1303               	bcf	status, 6	;RP1=0, select bank1
  4595  01D3  0830               	movf	0+(_register_values)^080h+06h,w
  4596  01D4  00F1               	movwf	0+(?_ar_i2c_write)+01h
  4597  01D5  0831               	movf	1+(_register_values)^080h+06h,w
  4598  01D6  00F2               	movwf	(0+(?_ar_i2c_write)+01h)+1
  4599  01D7  01F3               	clrf	2+(0+(?_ar_i2c_write)+01h)
  4600  01D8  01F4               	clrf	3+(0+(?_ar_i2c_write)+01h)
  4601  01D9  3020               	movlw	(020h)
  4602  01DA  120A  158A  26CE   	fcall	_ar_i2c_write
              120A  118A         
  4603                           	line	431
  4604                           	
  4605  01DF                     l3550:	
  4606                           ;PR31_final.c: 431: register_values[3] |= (1<<13);
  4607  01DF  1683               	bsf	status, 5	;RP0=1, select bank1
  4608  01E0  1303               	bcf	status, 6	;RP1=0, select bank1
  4609  01E1  16B1               	bsf	0+(_register_values)^080h+06h+(13/8),(13)&7
  4610                           	line	432
  4611                           	
  4612  01E2                     l3552:	
  4613                           ;PR31_final.c: 432: ar_i2c_write(0x20, 3,register_values[3]);
  4614  01E2  3003               	movlw	(03h)
  4615  01E3  1283               	bcf	status, 5	;RP0=0, select bank0
  4616  01E4  1303               	bcf	status, 6	;RP1=0, select bank0
  4617  01E5  00AB               	movwf	(??_setAR1000+0)+0
  4618  01E6  082B               	movf	(??_setAR1000+0)+0,w
  4619  01E7  00F0               	movwf	(?_ar_i2c_write)
  4620  01E8  1683               	bsf	status, 5	;RP0=1, select bank1
  4621  01E9  1303               	bcf	status, 6	;RP1=0, select bank1
  4622  01EA  0830               	movf	0+(_register_values)^080h+06h,w
  4623  01EB  00F1               	movwf	0+(?_ar_i2c_write)+01h
  4624  01EC  0831               	movf	1+(_register_values)^080h+06h,w
  4625  01ED  00F2               	movwf	(0+(?_ar_i2c_write)+01h)+1
  4626  01EE  01F3               	clrf	2+(0+(?_ar_i2c_write)+01h)
  4627  01EF  01F4               	clrf	3+(0+(?_ar_i2c_write)+01h)
  4628  01F0  3020               	movlw	(020h)
  4629  01F1  120A  158A  26CE   	fcall	_ar_i2c_write
              120A  118A         
  4630                           	line	435
  4631                           	
  4632  01F6                     l3554:	
  4633                           ;PR31_final.c: 435: register_values[2] |= freq_kHz;
  4634  01F6  1283               	bcf	status, 5	;RP0=0, select bank0
  4635  01F7  1303               	bcf	status, 6	;RP1=0, select bank0
  4636  01F8  0829               	movf	(setAR1000@freq_kHz),w
  4637  01F9  1683               	bsf	status, 5	;RP0=1, select bank1
  4638  01FA  1303               	bcf	status, 6	;RP1=0, select bank1
  4639  01FB  04AE               	iorwf	0+(_register_values)^080h+04h,f
  4640  01FC  1283               	bcf	status, 5	;RP0=0, select bank0
  4641  01FD  1303               	bcf	status, 6	;RP1=0, select bank0
  4642  01FE  082A               	movf	(setAR1000@freq_kHz+1),w
  4643  01FF  1683               	bsf	status, 5	;RP0=1, select bank1
  4644  0200  1303               	bcf	status, 6	;RP1=0, select bank1
  4645  0201  04AF               	iorwf	1+(_register_values)^080h+04h,f
  4646                           	line	436
  4647                           ;PR31_final.c: 436: ar_i2c_write(0x20, 2,register_values[2]);
  4648  0202  3002               	movlw	(02h)
  4649  0203  1283               	bcf	status, 5	;RP0=0, select bank0
  4650  0204  1303               	bcf	status, 6	;RP1=0, select bank0
  4651  0205  00AB               	movwf	(??_setAR1000+0)+0
  4652  0206  082B               	movf	(??_setAR1000+0)+0,w
  4653  0207  00F0               	movwf	(?_ar_i2c_write)
  4654  0208  1683               	bsf	status, 5	;RP0=1, select bank1
  4655  0209  1303               	bcf	status, 6	;RP1=0, select bank1
  4656  020A  082E               	movf	0+(_register_values)^080h+04h,w
  4657  020B  00F1               	movwf	0+(?_ar_i2c_write)+01h
  4658  020C  082F               	movf	1+(_register_values)^080h+04h,w
  4659  020D  00F2               	movwf	(0+(?_ar_i2c_write)+01h)+1
  4660  020E  01F3               	clrf	2+(0+(?_ar_i2c_write)+01h)
  4661  020F  01F4               	clrf	3+(0+(?_ar_i2c_write)+01h)
  4662  0210  3020               	movlw	(020h)
  4663  0211  120A  158A  26CE   	fcall	_ar_i2c_write
              120A  118A         
  4664                           	line	439
  4665                           	
  4666  0216                     l3556:	
  4667                           ;PR31_final.c: 439: register_values[2] |= (1<<9);
  4668  0216  1683               	bsf	status, 5	;RP0=1, select bank1
  4669  0217  1303               	bcf	status, 6	;RP1=0, select bank1
  4670  0218  14AF               	bsf	0+(_register_values)^080h+04h+(9/8),(9)&7
  4671                           	line	440
  4672                           ;PR31_final.c: 440: ar_i2c_write(0x20, 2,register_values[2]);
  4673  0219  3002               	movlw	(02h)
  4674  021A  1283               	bcf	status, 5	;RP0=0, select bank0
  4675  021B  1303               	bcf	status, 6	;RP1=0, select bank0
  4676  021C  00AB               	movwf	(??_setAR1000+0)+0
  4677  021D  082B               	movf	(??_setAR1000+0)+0,w
  4678  021E  00F0               	movwf	(?_ar_i2c_write)
  4679  021F  1683               	bsf	status, 5	;RP0=1, select bank1
  4680  0220  1303               	bcf	status, 6	;RP1=0, select bank1
  4681  0221  082E               	movf	0+(_register_values)^080h+04h,w
  4682  0222  00F1               	movwf	0+(?_ar_i2c_write)+01h
  4683  0223  082F               	movf	1+(_register_values)^080h+04h,w
  4684  0224  00F2               	movwf	(0+(?_ar_i2c_write)+01h)+1
  4685  0225  01F3               	clrf	2+(0+(?_ar_i2c_write)+01h)
  4686  0226  01F4               	clrf	3+(0+(?_ar_i2c_write)+01h)
  4687  0227  3020               	movlw	(020h)
  4688  0228  120A  158A  26CE   	fcall	_ar_i2c_write
              120A  118A         
  4689                           	line	442
  4690                           ;PR31_final.c: 442: while(STC == 0)
  4691  022D  2A54               	goto	l3564
  4692                           	
  4693  022E                     l1372:	
  4694                           	line	444
  4695                           	
  4696  022E                     l3558:	
  4697                           ;PR31_final.c: 443: {
  4698                           ;PR31_final.c: 444: STC = ar_i2c_read(0x20, 0x13);
  4699  022E  3013               	movlw	(013h)
  4700  022F  1283               	bcf	status, 5	;RP0=0, select bank0
  4701  0230  1303               	bcf	status, 6	;RP1=0, select bank0
  4702  0231  00AB               	movwf	(??_setAR1000+0)+0
  4703  0232  082B               	movf	(??_setAR1000+0)+0,w
  4704  0233  00F0               	movwf	(?_ar_i2c_read)
  4705  0234  3020               	movlw	(020h)
  4706  0235  120A  118A  23CE   	fcall	_ar_i2c_read
              120A  118A         
  4707  023A  0871               	movf	(1+(?_ar_i2c_read)),w
  4708  023B  1283               	bcf	status, 5	;RP0=0, select bank0
  4709  023C  1303               	bcf	status, 6	;RP1=0, select bank0
  4710  023D  01E6               	clrf	(_STC+1)
  4711  023E  07E6               	addwf	(_STC+1)
  4712  023F  0870               	movf	(0+(?_ar_i2c_read)),w
  4713  0240  01E5               	clrf	(_STC)
  4714  0241  07E5               	addwf	(_STC)
  4715                           
  4716                           	line	445
  4717                           	
  4718  0242                     l3560:	
  4719                           ;PR31_final.c: 445: STC &= (1<<5);
  4720  0242  3020               	movlw	low(020h)
  4721  0243  05E5               	andwf	(_STC),f
  4722  0244  3000               	movlw	high(020h)
  4723  0245  05E6               	andwf	(_STC+1),f
  4724                           	line	446
  4725                           	
  4726  0246                     l3562:	
  4727                           ;PR31_final.c: 446: delay(10);
  4728  0246  3000               	movlw	0
  4729  0247  00F3               	movwf	(?_delay+3)
  4730  0248  3000               	movlw	0
  4731  0249  00F2               	movwf	(?_delay+2)
  4732  024A  3000               	movlw	0
  4733  024B  00F1               	movwf	(?_delay+1)
  4734  024C  300A               	movlw	0Ah
  4735  024D  00F0               	movwf	(?_delay)
  4736                           
  4737  024E  120A  118A  2004   	fcall	_delay
              120A  118A         
  4738  0253  2A54               	goto	l3564
  4739                           	line	447
  4740                           	
  4741  0254                     l1371:	
  4742                           	line	442
  4743                           	
  4744  0254                     l3564:	
  4745  0254  1283               	bcf	status, 5	;RP0=0, select bank0
  4746  0255  1303               	bcf	status, 6	;RP1=0, select bank0
  4747  0256  0866               	movf	(_STC+1),w
  4748  0257  0465               	iorwf	(_STC),w
  4749  0258  1903               	skipnz
  4750  0259  2A5B               	goto	u3751
  4751  025A  2A5C               	goto	u3750
  4752  025B                     u3751:
  4753  025B  2A2E               	goto	l3558
  4754  025C                     u3750:
  4755  025C  2A5D               	goto	l3566
  4756                           	
  4757  025D                     l1373:	
  4758                           	line	451
  4759                           	
  4760  025D                     l3566:	
  4761                           ;PR31_final.c: 447: }
  4762                           ;PR31_final.c: 451: register_values[1] &= ~(1<<1);
  4763  025D  30FD               	movlw	low(0FFFDh)
  4764  025E  1683               	bsf	status, 5	;RP0=1, select bank1
  4765  025F  1303               	bcf	status, 6	;RP1=0, select bank1
  4766  0260  05AC               	andwf	0+(_register_values)^080h+02h,f
  4767  0261  30FF               	movlw	high(0FFFDh)
  4768  0262  05AD               	andwf	1+(_register_values)^080h+02h,f
  4769                           	line	452
  4770                           	
  4771  0263                     l3568:	
  4772                           ;PR31_final.c: 452: ar_i2c_write(0x20, 1,register_values[1]);
  4773  0263  01F0               	clrf	(?_ar_i2c_write)
  4774  0264  1403               	bsf	status,0
  4775  0265  0DF0               	rlf	(?_ar_i2c_write),f
  4776  0266  082C               	movf	0+(_register_values)^080h+02h,w
  4777  0267  00F1               	movwf	0+(?_ar_i2c_write)+01h
  4778  0268  082D               	movf	1+(_register_values)^080h+02h,w
  4779  0269  00F2               	movwf	(0+(?_ar_i2c_write)+01h)+1
  4780  026A  01F3               	clrf	2+(0+(?_ar_i2c_write)+01h)
  4781  026B  01F4               	clrf	3+(0+(?_ar_i2c_write)+01h)
  4782  026C  3020               	movlw	(020h)
  4783  026D  120A  158A  26CE   	fcall	_ar_i2c_write
              120A  118A         
  4784                           	line	454
  4785                           	
  4786  0272                     l3570:	
  4787                           ;PR31_final.c: 454: currentChannel = (ar_i2c_read(0x20, 0x13)&0xFF80)>>7;
  4788  0272  3013               	movlw	(013h)
  4789  0273  1283               	bcf	status, 5	;RP0=0, select bank0
  4790  0274  1303               	bcf	status, 6	;RP1=0, select bank0
  4791  0275  00AB               	movwf	(??_setAR1000+0)+0
  4792  0276  082B               	movf	(??_setAR1000+0)+0,w
  4793  0277  00F0               	movwf	(?_ar_i2c_read)
  4794  0278  3020               	movlw	(020h)
  4795  0279  120A  118A  23CE   	fcall	_ar_i2c_read
              120A  118A         
  4796  027E  0870               	movf	(0+?_ar_i2c_read),w
  4797  027F  1283               	bcf	status, 5	;RP0=0, select bank0
  4798  0280  1303               	bcf	status, 6	;RP1=0, select bank0
  4799  0281  00AC               	movwf	(??_setAR1000+1)+0
  4800  0282  0871               	movf	(1+?_ar_i2c_read),w
  4801  0283  00AD               	movwf	((??_setAR1000+1)+0+1)
  4802  0284  3007               	movlw	07h
  4803  0285                     u3765:
  4804  0285  1003               	clrc
  4805  0286  0CAD               	rrf	(??_setAR1000+1)+1,f
  4806  0287  0CAC               	rrf	(??_setAR1000+1)+0,f
  4807  0288  3EFF               	addlw	-1
  4808  0289  1D03               	skipz
  4809  028A  2A85               	goto	u3765
  4810  028B  30FF               	movlw	low(01FFh)
  4811  028C  052C               	andwf	0+(??_setAR1000+1)+0,w
  4812  028D  00DD               	movwf	(_currentChannel)
  4813  028E  3001               	movlw	high(01FFh)
  4814  028F  052D               	andwf	1+(??_setAR1000+1)+0,w
  4815  0290  00DE               	movwf	1+(_currentChannel)
  4816  0291  01DF               	clrf	2+(_currentChannel)
  4817  0292  01E0               	clrf	3+(_currentChannel)
  4818                           	line	455
  4819                           	
  4820  0293                     l3572:	
  4821                           ;PR31_final.c: 455: currentChannel += 690;
  4822  0293  30B2               	movlw	0B2h
  4823  0294  07DD               	addwf	(_currentChannel),f
  4824  0295  3002               	movlw	02h
  4825  0296  1803               	skipnc
  4826  0297  3003               movlw 3
  4827  0298  07DE               	addwf	(_currentChannel+1),f
  4828  0299  3000               	movlw	0
  4829  029A  1803               	skipnc
  4830  029B  3001               movlw 1
  4831  029C  07DF               	addwf	(_currentChannel+2),f
  4832  029D  3000               	movlw	0
  4833  029E  1803               	skipnc
  4834  029F  3001               movlw 1
  4835  02A0  07E0               	addwf	(_currentChannel+3),f
  4836                           	line	456
  4837                           	
  4838  02A1                     l1374:	
  4839  02A1  0008               	return
  4840                           	opt stack 0
  4841                           GLOBAL	__end_of_setAR1000
  4842  02A2                     	__end_of_setAR1000:
  4843 ;; =============== function _setAR1000 ends ============
  4844                           
  4845                           	signat	_setAR1000,4216
  4846                           	global	_set_vol
  4847                           psect	text620,local,class=CODE,delta=2
  4848                           global __ptext620
  4849  0F55                     __ptext620:
  4850                           
  4851 ;; *************** function _set_vol *****************
  4852 ;; Defined at:
  4853 ;;		line 327 in file "C:\Users\Phang\Desktop\9.80\PR 31\PR31_final.c"
  4854 ;; Parameters:    Size  Location     Type
  4855 ;;  key             1    wreg     unsigned char 
  4856 ;; Auto vars:     Size  Location     Type
  4857 ;;  key             1   13[COMMON] unsigned char 
  4858 ;; Return value:  Size  Location     Type
  4859 ;;		None               void
  4860 ;; Registers used:
  4861 ;;		wreg, fsr0l, fsr0h, status,2, status,0, btemp+1, pclath, cstack
  4862 ;; Tracked objects:
  4863 ;;		On entry : 0/0
  4864 ;;		On exit  : 0/0
  4865 ;;		Unchanged: 0/0
  4866 ;; Data sizes:     COMMON   BANK0   BANK1   BANK3   BANK2
  4867 ;;      Params:         0       0       0       0       0
  4868 ;;      Locals:         1       0       0       0       0
  4869 ;;      Temps:          0       4       0       0       0
  4870 ;;      Totals:         1       4       0       0       0
  4871 ;;Total ram usage:        5 bytes
  4872 ;; Hardware stack levels used:    1
  4873 ;; Hardware stack levels required when called:    1
  4874 ;; This function calls:
  4875 ;;		_ar_i2c_write
  4876 ;; This function is called by:
  4877 ;;		_main
  4878 ;;		_adjust_vol
  4879 ;; This function uses a non-reentrant model
  4880 ;;
  4881                           psect	text620
  4882                           	file	"C:\Users\Phang\Desktop\9.80\PR 31\PR31_final.c"
  4883                           	line	327
  4884                           	global	__size_of_set_vol
  4885  00AB                     	__size_of_set_vol	equ	__end_of_set_vol-_set_vol
  4886                           	
  4887  0F55                     _set_vol:	
  4888                           	opt	stack 5
  4889                           ; Regs used in _set_vol: [wreg-fsr0h+status,2+status,0+btemp+1+pclath+cstack]
  4890                           ;set_vol@key stored from wreg
  4891  0F55  00FD               	movwf	(set_vol@key)
  4892                           	line	328
  4893                           	
  4894  0F56                     l3522:	
  4895                           ;PR31_final.c: 328: vol = key;
  4896  0F56  087D               	movf	(set_vol@key),w
  4897  0F57  1283               	bcf	status, 5	;RP0=0, select bank0
  4898  0F58  1303               	bcf	status, 6	;RP1=0, select bank0
  4899  0F59  00A0               	movwf	(??_set_vol+0)+0
  4900  0F5A  0820               	movf	(??_set_vol+0)+0,w
  4901  0F5B  00E9               	movwf	(_vol)
  4902                           	line	330
  4903                           	
  4904  0F5C                     l3524:	
  4905                           ;PR31_final.c: 330: register_values[1] |= (1<<1);
  4906  0F5C  1683               	bsf	status, 5	;RP0=1, select bank1
  4907  0F5D  1303               	bcf	status, 6	;RP1=0, select bank1
  4908  0F5E  14AC               	bsf	0+(_register_values)^080h+02h+(1/8),(1)&7
  4909                           	line	331
  4910                           	
  4911  0F5F                     l3526:	
  4912                           ;PR31_final.c: 331: ar_i2c_write(0x20, 1, register_values[1]);
  4913  0F5F  01F0               	clrf	(?_ar_i2c_write)
  4914  0F60  1403               	bsf	status,0
  4915  0F61  0DF0               	rlf	(?_ar_i2c_write),f
  4916  0F62  082C               	movf	0+(_register_values)^080h+02h,w
  4917  0F63  00F1               	movwf	0+(?_ar_i2c_write)+01h
  4918  0F64  082D               	movf	1+(_register_values)^080h+02h,w
  4919  0F65  00F2               	movwf	(0+(?_ar_i2c_write)+01h)+1
  4920  0F66  01F3               	clrf	2+(0+(?_ar_i2c_write)+01h)
  4921  0F67  01F4               	clrf	3+(0+(?_ar_i2c_write)+01h)
  4922  0F68  3020               	movlw	(020h)
  4923  0F69  120A  158A  26CE   	fcall	_ar_i2c_write
              120A  158A         
  4924                           	line	333
  4925                           	
  4926  0F6E                     l3528:	
  4927                           ;PR31_final.c: 333: register_values[3] = (register_values[3] & ~0x0780) | (v1[key] << 7)
                                 ;
  4928  0F6E  087D               	movf	(set_vol@key),w
  4929  0F6F  3EA0               	addlw	_v1&0ffh
  4930  0F70  0084               	movwf	fsr0
  4931  0F71  1383               	bcf	status, 7	;select IRP bank1
  4932  0F72  0800               	movf	indf,w
  4933  0F73  1283               	bcf	status, 5	;RP0=0, select bank0
  4934  0F74  1303               	bcf	status, 6	;RP1=0, select bank0
  4935  0F75  00A0               	movwf	(??_set_vol+0)+0
  4936  0F76  01A1               	clrf	(??_set_vol+0)+0+1
  4937  0F77  3007               	movlw	07h
  4938  0F78  00FF               	movwf	btemp+1
  4939  0F79                     u3735:
  4940  0F79  1003               	clrc
  4941  0F7A  0DA0               	rlf	(??_set_vol+0)+0,f
  4942  0F7B  0DA1               	rlf	(??_set_vol+0)+1,f
  4943  0F7C  0BFF               	decfsz	btemp+1,f
  4944  0F7D  2F79               	goto	u3735
  4945  0F7E  307F               	movlw	low(0F87Fh)
  4946  0F7F  1683               	bsf	status, 5	;RP0=1, select bank1
  4947  0F80  1303               	bcf	status, 6	;RP1=0, select bank1
  4948  0F81  0530               	andwf	0+(_register_values)^080h+06h,w
  4949  0F82  1283               	bcf	status, 5	;RP0=0, select bank0
  4950  0F83  1303               	bcf	status, 6	;RP1=0, select bank0
  4951  0F84  00A2               	movwf	(??_set_vol+2)+0
  4952  0F85  30F8               	movlw	high(0F87Fh)
  4953  0F86  1683               	bsf	status, 5	;RP0=1, select bank1
  4954  0F87  1303               	bcf	status, 6	;RP1=0, select bank1
  4955  0F88  0531               	andwf	1+(_register_values)^080h+06h,w
  4956  0F89  1283               	bcf	status, 5	;RP0=0, select bank0
  4957  0F8A  1303               	bcf	status, 6	;RP1=0, select bank0
  4958  0F8B  00A3               	movwf	1+(??_set_vol+2)+0
  4959  0F8C  0820               	movf	0+(??_set_vol+0)+0,w
  4960  0F8D  0422               	iorwf	0+(??_set_vol+2)+0,w
  4961  0F8E  1683               	bsf	status, 5	;RP0=1, select bank1
  4962  0F8F  1303               	bcf	status, 6	;RP1=0, select bank1
  4963  0F90  00B0               	movwf	0+(_register_values)^080h+06h
  4964  0F91  1283               	bcf	status, 5	;RP0=0, select bank0
  4965  0F92  1303               	bcf	status, 6	;RP1=0, select bank0
  4966  0F93  0821               	movf	1+(??_set_vol+0)+0,w
  4967  0F94  0423               	iorwf	1+(??_set_vol+2)+0,w
  4968  0F95  1683               	bsf	status, 5	;RP0=1, select bank1
  4969  0F96  1303               	bcf	status, 6	;RP1=0, select bank1
  4970  0F97  00B1               	movwf	1+0+(_register_values)^080h+06h
  4971                           	line	334
  4972                           	
  4973  0F98                     l3530:	
  4974                           ;PR31_final.c: 334: ar_i2c_write(0x20, 3, register_values[3]);
  4975  0F98  3003               	movlw	(03h)
  4976  0F99  1283               	bcf	status, 5	;RP0=0, select bank0
  4977  0F9A  1303               	bcf	status, 6	;RP1=0, select bank0
  4978  0F9B  00A0               	movwf	(??_set_vol+0)+0
  4979  0F9C  0820               	movf	(??_set_vol+0)+0,w
  4980  0F9D  00F0               	movwf	(?_ar_i2c_write)
  4981  0F9E  1683               	bsf	status, 5	;RP0=1, select bank1
  4982  0F9F  1303               	bcf	status, 6	;RP1=0, select bank1
  4983  0FA0  0830               	movf	0+(_register_values)^080h+06h,w
  4984  0FA1  00F1               	movwf	0+(?_ar_i2c_write)+01h
  4985  0FA2  0831               	movf	1+(_register_values)^080h+06h,w
  4986  0FA3  00F2               	movwf	(0+(?_ar_i2c_write)+01h)+1
  4987  0FA4  01F3               	clrf	2+(0+(?_ar_i2c_write)+01h)
  4988  0FA5  01F4               	clrf	3+(0+(?_ar_i2c_write)+01h)
  4989  0FA6  3020               	movlw	(020h)
  4990  0FA7  120A  158A  26CE   	fcall	_ar_i2c_write
              120A  158A         
  4991                           	line	336
  4992                           	
  4993  0FAC                     l3532:	
  4994                           ;PR31_final.c: 336: register_values[14] = (register_values[14] & ~0xF000)| (v2[key]<< 12
                                 );
  4995  0FAC  087D               	movf	(set_vol@key),w
  4996  0FAD  3E4C               	addlw	_v2&0ffh
  4997  0FAE  0084               	movwf	fsr0
  4998  0FAF  1383               	bcf	status, 7	;select IRP bank0
  4999  0FB0  0800               	movf	indf,w
  5000  0FB1  1283               	bcf	status, 5	;RP0=0, select bank0
  5001  0FB2  1303               	bcf	status, 6	;RP1=0, select bank0
  5002  0FB3  00A0               	movwf	(??_set_vol+0)+0
  5003  0FB4  01A1               	clrf	(??_set_vol+0)+0+1
  5004  0FB5  300C               	movlw	0Ch
  5005  0FB6  00FF               	movwf	btemp+1
  5006  0FB7                     u3745:
  5007  0FB7  1003               	clrc
  5008  0FB8  0DA0               	rlf	(??_set_vol+0)+0,f
  5009  0FB9  0DA1               	rlf	(??_set_vol+0)+1,f
  5010  0FBA  0BFF               	decfsz	btemp+1,f
  5011  0FBB  2FB7               	goto	u3745
  5012  0FBC  30FF               	movlw	low(0FFFh)
  5013  0FBD  1683               	bsf	status, 5	;RP0=1, select bank1
  5014  0FBE  1303               	bcf	status, 6	;RP1=0, select bank1
  5015  0FBF  0546               	andwf	0+(_register_values)^080h+01Ch,w
  5016  0FC0  1283               	bcf	status, 5	;RP0=0, select bank0
  5017  0FC1  1303               	bcf	status, 6	;RP1=0, select bank0
  5018  0FC2  00A2               	movwf	(??_set_vol+2)+0
  5019  0FC3  300F               	movlw	high(0FFFh)
  5020  0FC4  1683               	bsf	status, 5	;RP0=1, select bank1
  5021  0FC5  1303               	bcf	status, 6	;RP1=0, select bank1
  5022  0FC6  0547               	andwf	1+(_register_values)^080h+01Ch,w
  5023  0FC7  1283               	bcf	status, 5	;RP0=0, select bank0
  5024  0FC8  1303               	bcf	status, 6	;RP1=0, select bank0
  5025  0FC9  00A3               	movwf	1+(??_set_vol+2)+0
  5026  0FCA  0820               	movf	0+(??_set_vol+0)+0,w
  5027  0FCB  0422               	iorwf	0+(??_set_vol+2)+0,w
  5028  0FCC  1683               	bsf	status, 5	;RP0=1, select bank1
  5029  0FCD  1303               	bcf	status, 6	;RP1=0, select bank1
  5030  0FCE  00C6               	movwf	0+(_register_values)^080h+01Ch
  5031  0FCF  1283               	bcf	status, 5	;RP0=0, select bank0
  5032  0FD0  1303               	bcf	status, 6	;RP1=0, select bank0
  5033  0FD1  0821               	movf	1+(??_set_vol+0)+0,w
  5034  0FD2  0423               	iorwf	1+(??_set_vol+2)+0,w
  5035  0FD3  1683               	bsf	status, 5	;RP0=1, select bank1
  5036  0FD4  1303               	bcf	status, 6	;RP1=0, select bank1
  5037  0FD5  00C7               	movwf	1+0+(_register_values)^080h+01Ch
  5038                           	line	337
  5039                           	
  5040  0FD6                     l3534:	
  5041                           ;PR31_final.c: 337: ar_i2c_write(0x20, 14, register_values[14]);
  5042  0FD6  300E               	movlw	(0Eh)
  5043  0FD7  1283               	bcf	status, 5	;RP0=0, select bank0
  5044  0FD8  1303               	bcf	status, 6	;RP1=0, select bank0
  5045  0FD9  00A0               	movwf	(??_set_vol+0)+0
  5046  0FDA  0820               	movf	(??_set_vol+0)+0,w
  5047  0FDB  00F0               	movwf	(?_ar_i2c_write)
  5048  0FDC  1683               	bsf	status, 5	;RP0=1, select bank1
  5049  0FDD  1303               	bcf	status, 6	;RP1=0, select bank1
  5050  0FDE  0846               	movf	0+(_register_values)^080h+01Ch,w
  5051  0FDF  00F1               	movwf	0+(?_ar_i2c_write)+01h
  5052  0FE0  0847               	movf	1+(_register_values)^080h+01Ch,w
  5053  0FE1  00F2               	movwf	(0+(?_ar_i2c_write)+01h)+1
  5054  0FE2  01F3               	clrf	2+(0+(?_ar_i2c_write)+01h)
  5055  0FE3  01F4               	clrf	3+(0+(?_ar_i2c_write)+01h)
  5056  0FE4  3020               	movlw	(020h)
  5057  0FE5  120A  158A  26CE   	fcall	_ar_i2c_write
              120A  158A         
  5058                           	line	339
  5059                           	
  5060  0FEA                     l3536:	
  5061                           ;PR31_final.c: 339: register_values[1] &= ~(1<<1);
  5062  0FEA  30FD               	movlw	low(0FFFDh)
  5063  0FEB  1683               	bsf	status, 5	;RP0=1, select bank1
  5064  0FEC  1303               	bcf	status, 6	;RP1=0, select bank1
  5065  0FED  05AC               	andwf	0+(_register_values)^080h+02h,f
  5066  0FEE  30FF               	movlw	high(0FFFDh)
  5067  0FEF  05AD               	andwf	1+(_register_values)^080h+02h,f
  5068                           	line	340
  5069                           ;PR31_final.c: 340: ar_i2c_write(0x20, 1,register_values[1]);
  5070  0FF0  01F0               	clrf	(?_ar_i2c_write)
  5071  0FF1  1403               	bsf	status,0
  5072  0FF2  0DF0               	rlf	(?_ar_i2c_write),f
  5073  0FF3  082C               	movf	0+(_register_values)^080h+02h,w
  5074  0FF4  00F1               	movwf	0+(?_ar_i2c_write)+01h
  5075  0FF5  082D               	movf	1+(_register_values)^080h+02h,w
  5076  0FF6  00F2               	movwf	(0+(?_ar_i2c_write)+01h)+1
  5077  0FF7  01F3               	clrf	2+(0+(?_ar_i2c_write)+01h)
  5078  0FF8  01F4               	clrf	3+(0+(?_ar_i2c_write)+01h)
  5079  0FF9  3020               	movlw	(020h)
  5080  0FFA  120A  158A  26CE   	fcall	_ar_i2c_write
              120A  158A         
  5081                           	line	341
  5082                           	
  5083  0FFF                     l1340:	
  5084  0FFF  0008               	return
  5085                           	opt stack 0
  5086                           GLOBAL	__end_of_set_vol
  5087  1000                     	__end_of_set_vol:
  5088 ;; =============== function _set_vol ends ============
  5089                           
  5090                           	signat	_set_vol,4216
  5091                           	global	_uart_sendstr
  5092                           psect	text621,local,class=CODE,delta=2
  5093                           global __ptext621
  5094  0C67                     __ptext621:
  5095                           
  5096 ;; *************** function _uart_sendstr *****************
  5097 ;; Defined at:
  5098 ;;		line 545 in file "C:\Users\Phang\Desktop\9.80\PR 31\PR31_final.c"
  5099 ;; Parameters:    Size  Location     Type
  5100 ;;  s               1    wreg     PTR const unsigned char 
  5101 ;;		 -> STR_21(4), STR_19(9), STR_18(9), STR_17(17), 
  5102 ;;		 -> STR_15(8), STR_13(9), STR_11(9), STR_9(17), 
  5103 ;;		 -> STR_7(12), STR_5(17), STR_3(21), 
  5104 ;; Auto vars:     Size  Location     Type
  5105 ;;  s               1    2[COMMON] PTR const unsigned char 
  5106 ;;		 -> STR_21(4), STR_19(9), STR_18(9), STR_17(17), 
  5107 ;;		 -> STR_15(8), STR_13(9), STR_11(9), STR_9(17), 
  5108 ;;		 -> STR_7(12), STR_5(17), STR_3(21), 
  5109 ;; Return value:  Size  Location     Type
  5110 ;;		None               void
  5111 ;; Registers used:
  5112 ;;		wreg, fsr0l, fsr0h, status,2, status,0, pclath, cstack
  5113 ;; Tracked objects:
  5114 ;;		On entry : 0/0
  5115 ;;		On exit  : 0/0
  5116 ;;		Unchanged: 0/0
  5117 ;; Data sizes:     COMMON   BANK0   BANK1   BANK3   BANK2
  5118 ;;      Params:         0       0       0       0       0
  5119 ;;      Locals:         1       0       0       0       0
  5120 ;;      Temps:          1       0       0       0       0
  5121 ;;      Totals:         2       0       0       0       0
  5122 ;;Total ram usage:        2 bytes
  5123 ;; Hardware stack levels used:    1
  5124 ;; Hardware stack levels required when called:    1
  5125 ;; This function calls:
  5126 ;;		_uart_tx
  5127 ;; This function is called by:
  5128 ;;		_main
  5129 ;;		_switch_channel
  5130 ;;		_adjust_channel
  5131 ;;		_decrease_chan
  5132 ;;		_increase_chan
  5133 ;;		_send_dec
  5134 ;; This function uses a non-reentrant model
  5135 ;;
  5136                           psect	text621
  5137                           	file	"C:\Users\Phang\Desktop\9.80\PR 31\PR31_final.c"
  5138                           	line	545
  5139                           	global	__size_of_uart_sendstr
  5140  002D                     	__size_of_uart_sendstr	equ	__end_of_uart_sendstr-_uart_sendstr
  5141                           	
  5142  0C67                     _uart_sendstr:	
  5143                           	opt	stack 3
  5144                           ; Regs used in _uart_sendstr: [wreg-fsr0h+status,2+status,0+pclath+cstack]
  5145                           ;uart_sendstr@s stored from wreg
  5146  0C67  00F2               	movwf	(uart_sendstr@s)
  5147                           	line	546
  5148                           	
  5149  0C68                     l3514:	
  5150                           ;PR31_final.c: 546: uart_tx(0x0A);
  5151  0C68  300A               	movlw	(0Ah)
  5152  0C69  120A  158A  22D4   	fcall	_uart_tx
              120A  158A         
  5153                           	line	547
  5154                           ;PR31_final.c: 547: uart_tx(0x0D);
  5155  0C6E  300D               	movlw	(0Dh)
  5156  0C6F  120A  158A  22D4   	fcall	_uart_tx
              120A  158A         
  5157                           	line	549
  5158                           ;PR31_final.c: 549: while (*s != '\0')
  5159  0C74  2C86               	goto	l3520
  5160                           	
  5161  0C75                     l1424:	
  5162                           	line	551
  5163                           	
  5164  0C75                     l3516:	
  5165                           ;PR31_final.c: 550: {
  5166                           ;PR31_final.c: 551: uart_tx(*s);
  5167  0C75  0872               	movf	(uart_sendstr@s),w
  5168  0C76  0084               	movwf	fsr0
  5169  0C77  120A  158A  2000   	fcall	stringdir
              120A  158A         
  5170  0C7C  120A  158A  22D4   	fcall	_uart_tx
              120A  158A         
  5171                           	line	552
  5172                           	
  5173  0C81                     l3518:	
  5174                           ;PR31_final.c: 552: s++;
  5175  0C81  3001               	movlw	(01h)
  5176  0C82  00F1               	movwf	(??_uart_sendstr+0)+0
  5177  0C83  0871               	movf	(??_uart_sendstr+0)+0,w
  5178  0C84  07F2               	addwf	(uart_sendstr@s),f
  5179  0C85  2C86               	goto	l3520
  5180                           	line	553
  5181                           	
  5182  0C86                     l1423:	
  5183                           	line	549
  5184                           	
  5185  0C86                     l3520:	
  5186  0C86  0872               	movf	(uart_sendstr@s),w
  5187  0C87  0084               	movwf	fsr0
  5188  0C88  120A  158A  2000   	fcall	stringdir
              120A  158A         
  5189  0C8D  3800               	iorlw	0
  5190  0C8E  1D03               	skipz
  5191  0C8F  2C91               	goto	u3721
  5192  0C90  2C92               	goto	u3720
  5193  0C91                     u3721:
  5194  0C91  2C75               	goto	l3516
  5195  0C92                     u3720:
  5196  0C92  2C93               	goto	l1426
  5197                           	
  5198  0C93                     l1425:	
  5199                           	line	555
  5200                           	
  5201  0C93                     l1426:	
  5202  0C93  0008               	return
  5203                           	opt stack 0
  5204                           GLOBAL	__end_of_uart_sendstr
  5205  0C94                     	__end_of_uart_sendstr:
  5206 ;; =============== function _uart_sendstr ends ============
  5207                           
  5208                           	signat	_uart_sendstr,4216
  5209                           	global	_ar1000_init
  5210                           psect	text622,local,class=CODE,delta=2
  5211                           global __ptext622
  5212  0034                     __ptext622:
  5213                           
  5214 ;; *************** function _ar1000_init *****************
  5215 ;; Defined at:
  5216 ;;		line 394 in file "C:\Users\Phang\Desktop\9.80\PR 31\PR31_final.c"
  5217 ;; Parameters:    Size  Location     Type
  5218 ;;		None
  5219 ;; Auto vars:     Size  Location     Type
  5220 ;;  i               2   13[BANK0 ] int 
  5221 ;; Return value:  Size  Location     Type
  5222 ;;		None               void
  5223 ;; Registers used:
  5224 ;;		wreg, fsr0l, fsr0h, status,2, status,0, btemp+1, pclath, cstack
  5225 ;; Tracked objects:
  5226 ;;		On entry : 0/0
  5227 ;;		On exit  : 0/0
  5228 ;;		Unchanged: 0/0
  5229 ;; Data sizes:     COMMON   BANK0   BANK1   BANK3   BANK2
  5230 ;;      Params:         0       0       0       0       0
  5231 ;;      Locals:         0       2       0       0       0
  5232 ;;      Temps:          0       4       0       0       0
  5233 ;;      Totals:         0       6       0       0       0
  5234 ;;Total ram usage:        6 bytes
  5235 ;; Hardware stack levels used:    1
  5236 ;; Hardware stack levels required when called:    1
  5237 ;; This function calls:
  5238 ;;		_delay
  5239 ;;		_ar_i2c_write
  5240 ;;		_ar_i2c_read
  5241 ;; This function is called by:
  5242 ;;		_main
  5243 ;; This function uses a non-reentrant model
  5244 ;;
  5245                           psect	text622
  5246                           	file	"C:\Users\Phang\Desktop\9.80\PR 31\PR31_final.c"
  5247                           	line	394
  5248                           	global	__size_of_ar1000_init
  5249  00AE                     	__size_of_ar1000_init	equ	__end_of_ar1000_init-_ar1000_init
  5250                           	
  5251  0034                     _ar1000_init:	
  5252                           	opt	stack 6
  5253                           ; Regs used in _ar1000_init: [wreg-fsr0h+status,2+status,0+btemp+1+pclath+cstack]
  5254                           	line	395
  5255                           	
  5256  0034                     l3490:	
  5257                           ;PR31_final.c: 395: delay(100);
  5258  0034  3000               	movlw	0
  5259  0035  00F3               	movwf	(?_delay+3)
  5260  0036  3000               	movlw	0
  5261  0037  00F2               	movwf	(?_delay+2)
  5262  0038  3000               	movlw	0
  5263  0039  00F1               	movwf	(?_delay+1)
  5264  003A  3064               	movlw	064h
  5265  003B  00F0               	movwf	(?_delay)
  5266                           
  5267  003C  120A  118A  2004   	fcall	_delay
              120A  118A         
  5268                           	line	396
  5269                           ;PR31_final.c: 396: ar_i2c_write(0x20, 0, register_values[0] & 0xFFFE);
  5270  0041  1003               	clrc
  5271  0042  3000               	movlw	0
  5272  0043  1803               	btfsc	status,0
  5273  0044  3001               	movlw	1
  5274  0045  00F0               	movwf	(?_ar_i2c_write)
  5275  0046  30FE               	movlw	low(0FFFEh)
  5276  0047  1683               	bsf	status, 5	;RP0=1, select bank1
  5277  0048  1303               	bcf	status, 6	;RP1=0, select bank1
  5278  0049  052A               	andwf	(_register_values)^080h,w
  5279  004A  00F1               	movwf	0+(?_ar_i2c_write)+01h
  5280  004B  30FF               	movlw	high(0FFFEh)
  5281  004C  052B               	andwf	(_register_values+1)^080h,w
  5282  004D  00F2               	movwf	1+0+(?_ar_i2c_write)+01h
  5283  004E  01F3               	clrf	2+0+(?_ar_i2c_write)+01h
  5284  004F  01F4               	clrf	3+0+(?_ar_i2c_write)+01h
  5285  0050  3020               	movlw	(020h)
  5286  0051  120A  158A  26CE   	fcall	_ar_i2c_write
              120A  118A         
  5287                           	line	398
  5288                           	
  5289  0056                     l3492:	
  5290                           ;PR31_final.c: 398: for(int i = 1 ; i < 18 ; i++)
  5291  0056  3001               	movlw	low(01h)
  5292  0057  1283               	bcf	status, 5	;RP0=0, select bank0
  5293  0058  1303               	bcf	status, 6	;RP1=0, select bank0
  5294  0059  00AD               	movwf	(ar1000_init@i)
  5295  005A  3000               	movlw	high(01h)
  5296  005B  00AE               	movwf	((ar1000_init@i))+1
  5297                           	
  5298  005C                     l3494:	
  5299  005C  082E               	movf	(ar1000_init@i+1),w
  5300  005D  3A80               	xorlw	80h
  5301  005E  00FF               	movwf	btemp+1
  5302  005F  3080               	movlw	(high(012h))^80h
  5303  0060  027F               	subwf	btemp+1,w
  5304  0061  1D03               	skipz
  5305  0062  2865               	goto	u3695
  5306  0063  3012               	movlw	low(012h)
  5307  0064  022D               	subwf	(ar1000_init@i),w
  5308  0065                     u3695:
  5309                           
  5310  0065  1C03               	skipc
  5311  0066  2868               	goto	u3691
  5312  0067  2869               	goto	u3690
  5313  0068                     u3691:
  5314  0068  286B               	goto	l3498
  5315  0069                     u3690:
  5316  0069  289E               	goto	l3504
  5317                           	
  5318  006A                     l3496:	
  5319  006A  289E               	goto	l3504
  5320                           	line	399
  5321                           	
  5322  006B                     l1363:	
  5323                           	line	400
  5324                           	
  5325  006B                     l3498:	
  5326                           ;PR31_final.c: 399: {
  5327                           ;PR31_final.c: 400: ar_i2c_write(0x20, i, register_values[i]);
  5328  006B  1283               	bcf	status, 5	;RP0=0, select bank0
  5329  006C  1303               	bcf	status, 6	;RP1=0, select bank0
  5330  006D  082D               	movf	(ar1000_init@i),w
  5331  006E  00A9               	movwf	(??_ar1000_init+0)+0
  5332  006F  0829               	movf	(??_ar1000_init+0)+0,w
  5333  0070  00F0               	movwf	(?_ar_i2c_write)
  5334  0071  082D               	movf	(ar1000_init@i),w
  5335  0072  00AA               	movwf	(??_ar1000_init+1)+0
  5336  0073  072A               	addwf	(??_ar1000_init+1)+0,w
  5337  0074  3EAA               	addlw	_register_values&0ffh
  5338  0075  0084               	movwf	fsr0
  5339  0076  1383               	bcf	status, 7	;select IRP bank1
  5340  0077  0800               	movf	indf,w
  5341  0078  00AB               	movwf	(??_ar1000_init+2)+0+0
  5342  0079  0A84               	incf	fsr0,f
  5343  007A  0800               	movf	indf,w
  5344  007B  00AC               	movwf	(??_ar1000_init+2)+0+1
  5345  007C  082B               	movf	0+(??_ar1000_init+2)+0,w
  5346  007D  00F1               	movwf	0+(?_ar_i2c_write)+01h
  5347  007E  082C               	movf	1+(??_ar1000_init+2)+0,w
  5348  007F  00F2               	movwf	(0+(?_ar_i2c_write)+01h)+1
  5349  0080  01F3               	clrf	2+(0+(?_ar_i2c_write)+01h)
  5350  0081  01F4               	clrf	3+(0+(?_ar_i2c_write)+01h)
  5351  0082  3020               	movlw	(020h)
  5352  0083  120A  158A  26CE   	fcall	_ar_i2c_write
              120A  118A         
  5353                           	line	398
  5354                           	
  5355  0088                     l3500:	
  5356  0088  3001               	movlw	low(01h)
  5357  0089  1283               	bcf	status, 5	;RP0=0, select bank0
  5358  008A  1303               	bcf	status, 6	;RP1=0, select bank0
  5359  008B  07AD               	addwf	(ar1000_init@i),f
  5360  008C  1803               	skipnc
  5361  008D  0AAE               	incf	(ar1000_init@i+1),f
  5362  008E  3000               	movlw	high(01h)
  5363  008F  07AE               	addwf	(ar1000_init@i+1),f
  5364                           	
  5365  0090                     l3502:	
  5366  0090  082E               	movf	(ar1000_init@i+1),w
  5367  0091  3A80               	xorlw	80h
  5368  0092  00FF               	movwf	btemp+1
  5369  0093  3080               	movlw	(high(012h))^80h
  5370  0094  027F               	subwf	btemp+1,w
  5371  0095  1D03               	skipz
  5372  0096  2899               	goto	u3705
  5373  0097  3012               	movlw	low(012h)
  5374  0098  022D               	subwf	(ar1000_init@i),w
  5375  0099                     u3705:
  5376                           
  5377  0099  1C03               	skipc
  5378  009A  289C               	goto	u3701
  5379  009B  289D               	goto	u3700
  5380  009C                     u3701:
  5381  009C  286B               	goto	l3498
  5382  009D                     u3700:
  5383  009D  289E               	goto	l3504
  5384                           	
  5385  009E                     l1364:	
  5386                           	line	403
  5387                           	
  5388  009E                     l3504:	
  5389                           ;PR31_final.c: 401: }
  5390                           ;PR31_final.c: 403: ar_i2c_write(0x20, 0, register_values[0]);
  5391  009E  1003               	clrc
  5392  009F  3000               	movlw	0
  5393  00A0  1803               	btfsc	status,0
  5394  00A1  3001               	movlw	1
  5395  00A2  00F0               	movwf	(?_ar_i2c_write)
  5396  00A3  1683               	bsf	status, 5	;RP0=1, select bank1
  5397  00A4  1303               	bcf	status, 6	;RP1=0, select bank1
  5398  00A5  082A               	movf	(_register_values)^080h,w
  5399  00A6  00F1               	movwf	0+(?_ar_i2c_write)+01h
  5400  00A7  082B               	movf	(_register_values+1)^080h,w
  5401  00A8  00F2               	movwf	(0+(?_ar_i2c_write)+01h)+1
  5402  00A9  01F3               	clrf	2+(0+(?_ar_i2c_write)+01h)
  5403  00AA  01F4               	clrf	3+(0+(?_ar_i2c_write)+01h)
  5404  00AB  3020               	movlw	(020h)
  5405  00AC  120A  158A  26CE   	fcall	_ar_i2c_write
              120A  118A         
  5406                           	line	405
  5407                           ;PR31_final.c: 405: while(STC == 0)
  5408  00B1  28D8               	goto	l3512
  5409                           	
  5410  00B2                     l1366:	
  5411                           	line	407
  5412                           	
  5413  00B2                     l3506:	
  5414                           ;PR31_final.c: 406: {
  5415                           ;PR31_final.c: 407: STC = ar_i2c_read(0x20, 0x13);
  5416  00B2  3013               	movlw	(013h)
  5417  00B3  1283               	bcf	status, 5	;RP0=0, select bank0
  5418  00B4  1303               	bcf	status, 6	;RP1=0, select bank0
  5419  00B5  00A9               	movwf	(??_ar1000_init+0)+0
  5420  00B6  0829               	movf	(??_ar1000_init+0)+0,w
  5421  00B7  00F0               	movwf	(?_ar_i2c_read)
  5422  00B8  3020               	movlw	(020h)
  5423  00B9  120A  118A  23CE   	fcall	_ar_i2c_read
              120A  118A         
  5424  00BE  0871               	movf	(1+(?_ar_i2c_read)),w
  5425  00BF  1283               	bcf	status, 5	;RP0=0, select bank0
  5426  00C0  1303               	bcf	status, 6	;RP1=0, select bank0
  5427  00C1  01E6               	clrf	(_STC+1)
  5428  00C2  07E6               	addwf	(_STC+1)
  5429  00C3  0870               	movf	(0+(?_ar_i2c_read)),w
  5430  00C4  01E5               	clrf	(_STC)
  5431  00C5  07E5               	addwf	(_STC)
  5432                           
  5433                           	line	408
  5434                           	
  5435  00C6                     l3508:	
  5436                           ;PR31_final.c: 408: STC &= (1<<5);
  5437  00C6  3020               	movlw	low(020h)
  5438  00C7  05E5               	andwf	(_STC),f
  5439  00C8  3000               	movlw	high(020h)
  5440  00C9  05E6               	andwf	(_STC+1),f
  5441                           	line	409
  5442                           	
  5443  00CA                     l3510:	
  5444                           ;PR31_final.c: 409: delay(10);
  5445  00CA  3000               	movlw	0
  5446  00CB  00F3               	movwf	(?_delay+3)
  5447  00CC  3000               	movlw	0
  5448  00CD  00F2               	movwf	(?_delay+2)
  5449  00CE  3000               	movlw	0
  5450  00CF  00F1               	movwf	(?_delay+1)
  5451  00D0  300A               	movlw	0Ah
  5452  00D1  00F0               	movwf	(?_delay)
  5453                           
  5454  00D2  120A  118A  2004   	fcall	_delay
              120A  118A         
  5455  00D7  28D8               	goto	l3512
  5456                           	line	411
  5457                           	
  5458  00D8                     l1365:	
  5459                           	line	405
  5460                           	
  5461  00D8                     l3512:	
  5462  00D8  1283               	bcf	status, 5	;RP0=0, select bank0
  5463  00D9  1303               	bcf	status, 6	;RP1=0, select bank0
  5464  00DA  0866               	movf	(_STC+1),w
  5465  00DB  0465               	iorwf	(_STC),w
  5466  00DC  1903               	skipnz
  5467  00DD  28DF               	goto	u3711
  5468  00DE  28E0               	goto	u3710
  5469  00DF                     u3711:
  5470  00DF  28B2               	goto	l3506
  5471  00E0                     u3710:
  5472  00E0  28E1               	goto	l1368
  5473                           	
  5474  00E1                     l1367:	
  5475                           	line	413
  5476                           	
  5477  00E1                     l1368:	
  5478  00E1  0008               	return
  5479                           	opt stack 0
  5480                           GLOBAL	__end_of_ar1000_init
  5481  00E2                     	__end_of_ar1000_init:
  5482 ;; =============== function _ar1000_init ends ============
  5483                           
  5484                           	signat	_ar1000_init,88
  5485                           	global	_uart_init
  5486                           psect	text623,local,class=CODE,delta=2
  5487                           global __ptext623
  5488  0B12                     __ptext623:
  5489                           
  5490 ;; *************** function _uart_init *****************
  5491 ;; Defined at:
  5492 ;;		line 516 in file "C:\Users\Phang\Desktop\9.80\PR 31\PR31_final.c"
  5493 ;; Parameters:    Size  Location     Type
  5494 ;;		None
  5495 ;; Auto vars:     Size  Location     Type
  5496 ;;		None
  5497 ;; Return value:  Size  Location     Type
  5498 ;;		None               void
  5499 ;; Registers used:
  5500 ;;		wreg, status,2, status,0, pclath, cstack
  5501 ;; Tracked objects:
  5502 ;;		On entry : 0/0
  5503 ;;		On exit  : 0/0
  5504 ;;		Unchanged: 0/0
  5505 ;; Data sizes:     COMMON   BANK0   BANK1   BANK3   BANK2
  5506 ;;      Params:         0       0       0       0       0
  5507 ;;      Locals:         0       0       0       0       0
  5508 ;;      Temps:          0       0       0       0       0
  5509 ;;      Totals:         0       0       0       0       0
  5510 ;;Total ram usage:        0 bytes
  5511 ;; Hardware stack levels used:    1
  5512 ;; Hardware stack levels required when called:    1
  5513 ;; This function calls:
  5514 ;;		_uart_tx
  5515 ;; This function is called by:
  5516 ;;		_main
  5517 ;; This function uses a non-reentrant model
  5518 ;;
  5519                           psect	text623
  5520                           	file	"C:\Users\Phang\Desktop\9.80\PR 31\PR31_final.c"
  5521                           	line	516
  5522                           	global	__size_of_uart_init
  5523  0015                     	__size_of_uart_init	equ	__end_of_uart_init-_uart_init
  5524                           	
  5525  0B12                     _uart_init:	
  5526                           	opt	stack 6
  5527                           ; Regs used in _uart_init: [wreg+status,2+status,0+pclath+cstack]
  5528                           	line	517
  5529                           	
  5530  0B12                     l3474:	
  5531                           ;PR31_final.c: 517: BRGH = 1;
  5532  0B12  1683               	bsf	status, 5	;RP0=1, select bank1
  5533  0B13  1303               	bcf	status, 6	;RP1=0, select bank1
  5534  0B14  1518               	bsf	(1218/8)^080h,(1218)&7
  5535                           	line	518
  5536                           	
  5537  0B15                     l3476:	
  5538                           ;PR31_final.c: 518: SPBRG = (20000000 / 16 / 9600) - 1;
  5539  0B15  3081               	movlw	(081h)
  5540  0B16  0099               	movwf	(153)^080h	;volatile
  5541                           	line	519
  5542                           	
  5543  0B17                     l3478:	
  5544                           ;PR31_final.c: 519: SPEN = 1;
  5545  0B17  1283               	bcf	status, 5	;RP0=0, select bank0
  5546  0B18  1303               	bcf	status, 6	;RP1=0, select bank0
  5547  0B19  1798               	bsf	(199/8),(199)&7
  5548                           	line	520
  5549                           	
  5550  0B1A                     l3480:	
  5551                           ;PR31_final.c: 520: CREN = 1;
  5552  0B1A  1618               	bsf	(196/8),(196)&7
  5553                           	line	521
  5554                           	
  5555  0B1B                     l3482:	
  5556                           ;PR31_final.c: 521: TXEN = 1;
  5557  0B1B  1683               	bsf	status, 5	;RP0=1, select bank1
  5558  0B1C  1303               	bcf	status, 6	;RP1=0, select bank1
  5559  0B1D  1698               	bsf	(1221/8)^080h,(1221)&7
  5560                           	line	522
  5561                           	
  5562  0B1E                     l3484:	
  5563                           ;PR31_final.c: 522: TRISC6 = 0;
  5564  0B1E  1307               	bcf	(1086/8)^080h,(1086)&7
  5565                           	line	523
  5566                           	
  5567  0B1F                     l3486:	
  5568                           ;PR31_final.c: 523: TRISC7 = 1;
  5569  0B1F  1787               	bsf	(1087/8)^080h,(1087)&7
  5570                           	line	524
  5571                           	
  5572  0B20                     l3488:	
  5573                           ;PR31_final.c: 524: uart_tx(0x0C);
  5574  0B20  300C               	movlw	(0Ch)
  5575  0B21  120A  158A  22D4   	fcall	_uart_tx
              120A  158A         
  5576                           	line	525
  5577                           	
  5578  0B26                     l1407:	
  5579  0B26  0008               	return
  5580                           	opt stack 0
  5581                           GLOBAL	__end_of_uart_init
  5582  0B27                     	__end_of_uart_init:
  5583 ;; =============== function _uart_init ends ============
  5584                           
  5585                           	signat	_uart_init,88
  5586                           	global	___lldiv
  5587                           psect	text624,local,class=CODE,delta=2
  5588                           global __ptext624
  5589  0DEA                     __ptext624:
  5590                           
  5591 ;; *************** function ___lldiv *****************
  5592 ;; Defined at:
  5593 ;;		line 5 in file "C:\Program Files\HI-TECH Software\sources\lldiv.c"
  5594 ;; Parameters:    Size  Location     Type
  5595 ;;  divisor         4    0[COMMON] unsigned long 
  5596 ;;  dividend        4    4[COMMON] unsigned long 
  5597 ;; Auto vars:     Size  Location     Type
  5598 ;;  quotient        4    9[COMMON] unsigned long 
  5599 ;;  counter         1   13[COMMON] unsigned char 
  5600 ;; Return value:  Size  Location     Type
  5601 ;;                  4    0[COMMON] unsigned long 
  5602 ;; Registers used:
  5603 ;;		wreg, status,2, status,0
  5604 ;; Tracked objects:
  5605 ;;		On entry : 0/0
  5606 ;;		On exit  : 0/0
  5607 ;;		Unchanged: 0/0
  5608 ;; Data sizes:     COMMON   BANK0   BANK1   BANK3   BANK2
  5609 ;;      Params:         8       0       0       0       0
  5610 ;;      Locals:         5       0       0       0       0
  5611 ;;      Temps:          1       0       0       0       0
  5612 ;;      Totals:        14       0       0       0       0
  5613 ;;Total ram usage:       14 bytes
  5614 ;; Hardware stack levels used:    1
  5615 ;; This function calls:
  5616 ;;		Nothing
  5617 ;; This function is called by:
  5618 ;;		_send_dec
  5619 ;; This function uses a non-reentrant model
  5620 ;;
  5621                           psect	text624
  5622                           	file	"C:\Program Files\HI-TECH Software\sources\lldiv.c"
  5623                           	line	5
  5624                           	global	__size_of___lldiv
  5625  006E                     	__size_of___lldiv	equ	__end_of___lldiv-___lldiv
  5626                           	
  5627  0DEA                     ___lldiv:	
  5628                           	opt	stack 4
  5629                           ; Regs used in ___lldiv: [wreg+status,2+status,0]
  5630                           	line	9
  5631                           	
  5632  0DEA                     l3450:	
  5633  0DEA  3000               	movlw	0
  5634  0DEB  00FC               	movwf	(___lldiv@quotient+3)
  5635  0DEC  3000               	movlw	0
  5636  0DED  00FB               	movwf	(___lldiv@quotient+2)
  5637  0DEE  3000               	movlw	0
  5638  0DEF  00FA               	movwf	(___lldiv@quotient+1)
  5639  0DF0  3000               	movlw	0
  5640  0DF1  00F9               	movwf	(___lldiv@quotient)
  5641                           
  5642                           	line	10
  5643  0DF2  0873               	movf	(___lldiv@divisor+3),w
  5644  0DF3  0472               	iorwf	(___lldiv@divisor+2),w
  5645  0DF4  0471               	iorwf	(___lldiv@divisor+1),w
  5646  0DF5  0470               	iorwf	(___lldiv@divisor),w
  5647  0DF6  1903               	skipnz
  5648  0DF7  2DF9               	goto	u3621
  5649  0DF8  2DFA               	goto	u3620
  5650  0DF9                     u3621:
  5651  0DF9  2E4E               	goto	l3470
  5652  0DFA                     u3620:
  5653                           	line	11
  5654                           	
  5655  0DFA                     l3452:	
  5656  0DFA  01FD               	clrf	(___lldiv@counter)
  5657  0DFB  1403               	bsf	status,0
  5658  0DFC  0DFD               	rlf	(___lldiv@counter),f
  5659                           	line	12
  5660  0DFD  2E0C               	goto	l3456
  5661                           	
  5662  0DFE                     l1636:	
  5663                           	line	13
  5664                           	
  5665  0DFE                     l3454:	
  5666  0DFE  3001               	movlw	01h
  5667  0DFF  00F8               	movwf	(??___lldiv+0)+0
  5668  0E00                     u3635:
  5669  0E00  1003               	clrc
  5670  0E01  0DF0               	rlf	(___lldiv@divisor),f
  5671  0E02  0DF1               	rlf	(___lldiv@divisor+1),f
  5672  0E03  0DF2               	rlf	(___lldiv@divisor+2),f
  5673  0E04  0DF3               	rlf	(___lldiv@divisor+3),f
  5674  0E05  0BF8               	decfsz	(??___lldiv+0)+0
  5675  0E06  2E00               	goto	u3635
  5676                           	line	14
  5677  0E07  3001               	movlw	(01h)
  5678  0E08  00F8               	movwf	(??___lldiv+0)+0
  5679  0E09  0878               	movf	(??___lldiv+0)+0,w
  5680  0E0A  07FD               	addwf	(___lldiv@counter),f
  5681  0E0B  2E0C               	goto	l3456
  5682                           	line	15
  5683                           	
  5684  0E0C                     l1635:	
  5685                           	line	12
  5686                           	
  5687  0E0C                     l3456:	
  5688  0E0C  1FF3               	btfss	(___lldiv@divisor+3),(31)&7
  5689  0E0D  2E0F               	goto	u3641
  5690  0E0E  2E10               	goto	u3640
  5691  0E0F                     u3641:
  5692  0E0F  2DFE               	goto	l3454
  5693  0E10                     u3640:
  5694  0E10  2E12               	goto	l3458
  5695                           	
  5696  0E11                     l1637:	
  5697  0E11  2E12               	goto	l3458
  5698                           	line	16
  5699                           	
  5700  0E12                     l1638:	
  5701                           	line	17
  5702                           	
  5703  0E12                     l3458:	
  5704  0E12  3001               	movlw	01h
  5705  0E13  00F8               	movwf	(??___lldiv+0)+0
  5706  0E14                     u3655:
  5707  0E14  1003               	clrc
  5708  0E15  0DF9               	rlf	(___lldiv@quotient),f
  5709  0E16  0DFA               	rlf	(___lldiv@quotient+1),f
  5710  0E17  0DFB               	rlf	(___lldiv@quotient+2),f
  5711  0E18  0DFC               	rlf	(___lldiv@quotient+3),f
  5712  0E19  0BF8               	decfsz	(??___lldiv+0)+0
  5713  0E1A  2E14               	goto	u3655
  5714                           	line	18
  5715                           	
  5716  0E1B                     l3460:	
  5717  0E1B  0873               	movf	(___lldiv@divisor+3),w
  5718  0E1C  0277               	subwf	(___lldiv@dividend+3),w
  5719  0E1D  1D03               	skipz
  5720  0E1E  2E29               	goto	u3665
  5721  0E1F  0872               	movf	(___lldiv@divisor+2),w
  5722  0E20  0276               	subwf	(___lldiv@dividend+2),w
  5723  0E21  1D03               	skipz
  5724  0E22  2E29               	goto	u3665
  5725  0E23  0871               	movf	(___lldiv@divisor+1),w
  5726  0E24  0275               	subwf	(___lldiv@dividend+1),w
  5727  0E25  1D03               	skipz
  5728  0E26  2E29               	goto	u3665
  5729  0E27  0870               	movf	(___lldiv@divisor),w
  5730  0E28  0274               	subwf	(___lldiv@dividend),w
  5731  0E29                     u3665:
  5732  0E29  1C03               	skipc
  5733  0E2A  2E2C               	goto	u3661
  5734  0E2B  2E2D               	goto	u3660
  5735  0E2C                     u3661:
  5736  0E2C  2E3D               	goto	l3466
  5737  0E2D                     u3660:
  5738                           	line	19
  5739                           	
  5740  0E2D                     l3462:	
  5741  0E2D  0870               	movf	(___lldiv@divisor),w
  5742  0E2E  02F4               	subwf	(___lldiv@dividend),f
  5743  0E2F  0871               	movf	(___lldiv@divisor+1),w
  5744  0E30  1C03               	skipc
  5745  0E31  0F71               	incfsz	(___lldiv@divisor+1),w
  5746  0E32  02F5               	subwf	(___lldiv@dividend+1),f
  5747  0E33  0872               	movf	(___lldiv@divisor+2),w
  5748  0E34  1C03               	skipc
  5749  0E35  0F72               	incfsz	(___lldiv@divisor+2),w
  5750  0E36  02F6               	subwf	(___lldiv@dividend+2),f
  5751  0E37  0873               	movf	(___lldiv@divisor+3),w
  5752  0E38  1C03               	skipc
  5753  0E39  0F73               	incfsz	(___lldiv@divisor+3),w
  5754  0E3A  02F7               	subwf	(___lldiv@dividend+3),f
  5755                           	line	20
  5756                           	
  5757  0E3B                     l3464:	
  5758  0E3B  1479               	bsf	(___lldiv@quotient)+(0/8),(0)&7
  5759  0E3C  2E3D               	goto	l3466
  5760                           	line	21
  5761                           	
  5762  0E3D                     l1639:	
  5763                           	line	22
  5764                           	
  5765  0E3D                     l3466:	
  5766  0E3D  3001               	movlw	01h
  5767  0E3E                     u3675:
  5768  0E3E  1003               	clrc
  5769  0E3F  0CF3               	rrf	(___lldiv@divisor+3),f
  5770  0E40  0CF2               	rrf	(___lldiv@divisor+2),f
  5771  0E41  0CF1               	rrf	(___lldiv@divisor+1),f
  5772  0E42  0CF0               	rrf	(___lldiv@divisor),f
  5773  0E43  3EFF               	addlw	-1
  5774  0E44  1D03               	skipz
  5775  0E45  2E3E               	goto	u3675
  5776                           
  5777                           	line	23
  5778                           	
  5779  0E46                     l3468:	
  5780  0E46  3001               	movlw	low(01h)
  5781  0E47  02FD               	subwf	(___lldiv@counter),f
  5782  0E48  1D03               	btfss	status,2
  5783  0E49  2E4B               	goto	u3681
  5784  0E4A  2E4C               	goto	u3680
  5785  0E4B                     u3681:
  5786  0E4B  2E12               	goto	l3458
  5787  0E4C                     u3680:
  5788  0E4C  2E4E               	goto	l3470
  5789                           	
  5790  0E4D                     l1640:	
  5791  0E4D  2E4E               	goto	l3470
  5792                           	line	24
  5793                           	
  5794  0E4E                     l1634:	
  5795                           	line	25
  5796                           	
  5797  0E4E                     l3470:	
  5798  0E4E  087C               	movf	(___lldiv@quotient+3),w
  5799  0E4F  00F3               	movwf	(?___lldiv+3)
  5800  0E50  087B               	movf	(___lldiv@quotient+2),w
  5801  0E51  00F2               	movwf	(?___lldiv+2)
  5802  0E52  087A               	movf	(___lldiv@quotient+1),w
  5803  0E53  00F1               	movwf	(?___lldiv+1)
  5804  0E54  0879               	movf	(___lldiv@quotient),w
  5805  0E55  00F0               	movwf	(?___lldiv)
  5806                           
  5807  0E56  2E57               	goto	l1641
  5808                           	
  5809  0E57                     l3472:	
  5810                           	line	26
  5811                           	
  5812  0E57                     l1641:	
  5813  0E57  0008               	return
  5814                           	opt stack 0
  5815                           GLOBAL	__end_of___lldiv
  5816  0E58                     	__end_of___lldiv:
  5817 ;; =============== function ___lldiv ends ============
  5818                           
  5819                           	signat	___lldiv,8316
  5820                           	global	___llmod
  5821                           psect	text625,local,class=CODE,delta=2
  5822                           global __ptext625
  5823  0CC2                     __ptext625:
  5824                           
  5825 ;; *************** function ___llmod *****************
  5826 ;; Defined at:
  5827 ;;		line 5 in file "C:\Program Files\HI-TECH Software\sources\llmod.c"
  5828 ;; Parameters:    Size  Location     Type
  5829 ;;  divisor         4    0[COMMON] unsigned long 
  5830 ;;  dividend        4    4[COMMON] unsigned long 
  5831 ;; Auto vars:     Size  Location     Type
  5832 ;;  counter         1    9[COMMON] unsigned char 
  5833 ;; Return value:  Size  Location     Type
  5834 ;;                  4    0[COMMON] unsigned long 
  5835 ;; Registers used:
  5836 ;;		wreg, status,2, status,0
  5837 ;; Tracked objects:
  5838 ;;		On entry : 0/0
  5839 ;;		On exit  : 0/0
  5840 ;;		Unchanged: 0/0
  5841 ;; Data sizes:     COMMON   BANK0   BANK1   BANK3   BANK2
  5842 ;;      Params:         8       0       0       0       0
  5843 ;;      Locals:         1       0       0       0       0
  5844 ;;      Temps:          1       0       0       0       0
  5845 ;;      Totals:        10       0       0       0       0
  5846 ;;Total ram usage:       10 bytes
  5847 ;; Hardware stack levels used:    1
  5848 ;; This function calls:
  5849 ;;		Nothing
  5850 ;; This function is called by:
  5851 ;;		_send_dec
  5852 ;; This function uses a non-reentrant model
  5853 ;;
  5854                           psect	text625
  5855                           	file	"C:\Program Files\HI-TECH Software\sources\llmod.c"
  5856                           	line	5
  5857                           	global	__size_of___llmod
  5858  005C                     	__size_of___llmod	equ	__end_of___llmod-___llmod
  5859                           	
  5860  0CC2                     ___llmod:	
  5861                           	opt	stack 4
  5862                           ; Regs used in ___llmod: [wreg+status,2+status,0]
  5863                           	line	8
  5864                           	
  5865  0CC2                     l3430:	
  5866  0CC2  0873               	movf	(___llmod@divisor+3),w
  5867  0CC3  0472               	iorwf	(___llmod@divisor+2),w
  5868  0CC4  0471               	iorwf	(___llmod@divisor+1),w
  5869  0CC5  0470               	iorwf	(___llmod@divisor),w
  5870  0CC6  1903               	skipnz
  5871  0CC7  2CC9               	goto	u3561
  5872  0CC8  2CCA               	goto	u3560
  5873  0CC9                     u3561:
  5874  0CC9  2D14               	goto	l3446
  5875  0CCA                     u3560:
  5876                           	line	9
  5877                           	
  5878  0CCA                     l3432:	
  5879  0CCA  01F9               	clrf	(___llmod@counter)
  5880  0CCB  1403               	bsf	status,0
  5881  0CCC  0DF9               	rlf	(___llmod@counter),f
  5882                           	line	10
  5883  0CCD  2CDC               	goto	l3436
  5884                           	
  5885  0CCE                     l1617:	
  5886                           	line	11
  5887                           	
  5888  0CCE                     l3434:	
  5889  0CCE  3001               	movlw	01h
  5890  0CCF  00F8               	movwf	(??___llmod+0)+0
  5891  0CD0                     u3575:
  5892  0CD0  1003               	clrc
  5893  0CD1  0DF0               	rlf	(___llmod@divisor),f
  5894  0CD2  0DF1               	rlf	(___llmod@divisor+1),f
  5895  0CD3  0DF2               	rlf	(___llmod@divisor+2),f
  5896  0CD4  0DF3               	rlf	(___llmod@divisor+3),f
  5897  0CD5  0BF8               	decfsz	(??___llmod+0)+0
  5898  0CD6  2CD0               	goto	u3575
  5899                           	line	12
  5900  0CD7  3001               	movlw	(01h)
  5901  0CD8  00F8               	movwf	(??___llmod+0)+0
  5902  0CD9  0878               	movf	(??___llmod+0)+0,w
  5903  0CDA  07F9               	addwf	(___llmod@counter),f
  5904  0CDB  2CDC               	goto	l3436
  5905                           	line	13
  5906                           	
  5907  0CDC                     l1616:	
  5908                           	line	10
  5909                           	
  5910  0CDC                     l3436:	
  5911  0CDC  1FF3               	btfss	(___llmod@divisor+3),(31)&7
  5912  0CDD  2CDF               	goto	u3581
  5913  0CDE  2CE0               	goto	u3580
  5914  0CDF                     u3581:
  5915  0CDF  2CCE               	goto	l3434
  5916  0CE0                     u3580:
  5917  0CE0  2CE2               	goto	l3438
  5918                           	
  5919  0CE1                     l1618:	
  5920  0CE1  2CE2               	goto	l3438
  5921                           	line	14
  5922                           	
  5923  0CE2                     l1619:	
  5924                           	line	15
  5925                           	
  5926  0CE2                     l3438:	
  5927  0CE2  0873               	movf	(___llmod@divisor+3),w
  5928  0CE3  0277               	subwf	(___llmod@dividend+3),w
  5929  0CE4  1D03               	skipz
  5930  0CE5  2CF0               	goto	u3595
  5931  0CE6  0872               	movf	(___llmod@divisor+2),w
  5932  0CE7  0276               	subwf	(___llmod@dividend+2),w
  5933  0CE8  1D03               	skipz
  5934  0CE9  2CF0               	goto	u3595
  5935  0CEA  0871               	movf	(___llmod@divisor+1),w
  5936  0CEB  0275               	subwf	(___llmod@dividend+1),w
  5937  0CEC  1D03               	skipz
  5938  0CED  2CF0               	goto	u3595
  5939  0CEE  0870               	movf	(___llmod@divisor),w
  5940  0CEF  0274               	subwf	(___llmod@dividend),w
  5941  0CF0                     u3595:
  5942  0CF0  1C03               	skipc
  5943  0CF1  2CF3               	goto	u3591
  5944  0CF2  2CF4               	goto	u3590
  5945  0CF3                     u3591:
  5946  0CF3  2D03               	goto	l3442
  5947  0CF4                     u3590:
  5948                           	line	16
  5949                           	
  5950  0CF4                     l3440:	
  5951  0CF4  0870               	movf	(___llmod@divisor),w
  5952  0CF5  02F4               	subwf	(___llmod@dividend),f
  5953  0CF6  0871               	movf	(___llmod@divisor+1),w
  5954  0CF7  1C03               	skipc
  5955  0CF8  0F71               	incfsz	(___llmod@divisor+1),w
  5956  0CF9  02F5               	subwf	(___llmod@dividend+1),f
  5957  0CFA  0872               	movf	(___llmod@divisor+2),w
  5958  0CFB  1C03               	skipc
  5959  0CFC  0F72               	incfsz	(___llmod@divisor+2),w
  5960  0CFD  02F6               	subwf	(___llmod@dividend+2),f
  5961  0CFE  0873               	movf	(___llmod@divisor+3),w
  5962  0CFF  1C03               	skipc
  5963  0D00  0F73               	incfsz	(___llmod@divisor+3),w
  5964  0D01  02F7               	subwf	(___llmod@dividend+3),f
  5965  0D02  2D03               	goto	l3442
  5966                           	
  5967  0D03                     l1620:	
  5968                           	line	17
  5969                           	
  5970  0D03                     l3442:	
  5971  0D03  3001               	movlw	01h
  5972  0D04                     u3605:
  5973  0D04  1003               	clrc
  5974  0D05  0CF3               	rrf	(___llmod@divisor+3),f
  5975  0D06  0CF2               	rrf	(___llmod@divisor+2),f
  5976  0D07  0CF1               	rrf	(___llmod@divisor+1),f
  5977  0D08  0CF0               	rrf	(___llmod@divisor),f
  5978  0D09  3EFF               	addlw	-1
  5979  0D0A  1D03               	skipz
  5980  0D0B  2D04               	goto	u3605
  5981                           
  5982                           	line	18
  5983                           	
  5984  0D0C                     l3444:	
  5985  0D0C  3001               	movlw	low(01h)
  5986  0D0D  02F9               	subwf	(___llmod@counter),f
  5987  0D0E  1D03               	btfss	status,2
  5988  0D0F  2D11               	goto	u3611
  5989  0D10  2D12               	goto	u3610
  5990  0D11                     u3611:
  5991  0D11  2CE2               	goto	l3438
  5992  0D12                     u3610:
  5993  0D12  2D14               	goto	l3446
  5994                           	
  5995  0D13                     l1621:	
  5996  0D13  2D14               	goto	l3446
  5997                           	line	19
  5998                           	
  5999  0D14                     l1615:	
  6000                           	line	20
  6001                           	
  6002  0D14                     l3446:	
  6003  0D14  0877               	movf	(___llmod@dividend+3),w
  6004  0D15  00F3               	movwf	(?___llmod+3)
  6005  0D16  0876               	movf	(___llmod@dividend+2),w
  6006  0D17  00F2               	movwf	(?___llmod+2)
  6007  0D18  0875               	movf	(___llmod@dividend+1),w
  6008  0D19  00F1               	movwf	(?___llmod+1)
  6009  0D1A  0874               	movf	(___llmod@dividend),w
  6010  0D1B  00F0               	movwf	(?___llmod)
  6011                           
  6012  0D1C  2D1D               	goto	l1622
  6013                           	
  6014  0D1D                     l3448:	
  6015                           	line	21
  6016                           	
  6017  0D1D                     l1622:	
  6018  0D1D  0008               	return
  6019                           	opt stack 0
  6020                           GLOBAL	__end_of___llmod
  6021  0D1E                     	__end_of___llmod:
  6022 ;; =============== function ___llmod ends ============
  6023                           
  6024                           	signat	___llmod,8316
  6025                           	global	_eprom_read
  6026                           psect	text626,local,class=CODE,delta=2
  6027                           global __ptext626
  6028  0BAE                     __ptext626:
  6029                           
  6030 ;; *************** function _eprom_read *****************
  6031 ;; Defined at:
  6032 ;;		line 561 in file "C:\Users\Phang\Desktop\9.80\PR 31\PR31_final.c"
  6033 ;; Parameters:    Size  Location     Type
  6034 ;;  channel_adr     1    wreg     unsigned char 
  6035 ;; Auto vars:     Size  Location     Type
  6036 ;;  channel_adr     1    4[COMMON] unsigned char 
  6037 ;;  fm_value        2    2[COMMON] unsigned int 
  6038 ;; Return value:  Size  Location     Type
  6039 ;;                  2    0[COMMON] unsigned int 
  6040 ;; Registers used:
  6041 ;;		wreg, status,2, status,0
  6042 ;; Tracked objects:
  6043 ;;		On entry : 0/0
  6044 ;;		On exit  : 0/0
  6045 ;;		Unchanged: 0/0
  6046 ;; Data sizes:     COMMON   BANK0   BANK1   BANK3   BANK2
  6047 ;;      Params:         2       0       0       0       0
  6048 ;;      Locals:         3       0       0       0       0
  6049 ;;      Temps:          0       0       0       0       0
  6050 ;;      Totals:         5       0       0       0       0
  6051 ;;Total ram usage:        5 bytes
  6052 ;; Hardware stack levels used:    1
  6053 ;; This function calls:
  6054 ;;		Nothing
  6055 ;; This function is called by:
  6056 ;;		_switch_channel
  6057 ;; This function uses a non-reentrant model
  6058 ;;
  6059                           psect	text626
  6060                           	file	"C:\Users\Phang\Desktop\9.80\PR 31\PR31_final.c"
  6061                           	line	561
  6062                           	global	__size_of_eprom_read
  6063  0020                     	__size_of_eprom_read	equ	__end_of_eprom_read-_eprom_read
  6064                           	
  6065  0BAE                     _eprom_read:	
  6066                           	opt	stack 5
  6067                           ; Regs used in _eprom_read: [wreg+status,2+status,0]
  6068                           ;eprom_read@channel_adr stored from wreg
  6069                           	line	563
  6070  0BAE  00F4               	movwf	(eprom_read@channel_adr)
  6071                           	
  6072  0BAF                     l3418:	
  6073                           ;PR31_final.c: 562: unsigned int fm_value;
  6074                           ;PR31_final.c: 563: EEADR = channel_adr;
  6075  0BAF  0874               	movf	(eprom_read@channel_adr),w
  6076  0BB0  1283               	bcf	status, 5	;RP0=0, select bank2
  6077  0BB1  1703               	bsf	status, 6	;RP1=1, select bank2
  6078  0BB2  008D               	movwf	(269)^0100h	;volatile
  6079                           	line	564
  6080                           	
  6081  0BB3                     l3420:	
  6082                           ;PR31_final.c: 564: EEPGD = 0;
  6083  0BB3  1683               	bsf	status, 5	;RP0=1, select bank3
  6084  0BB4  1703               	bsf	status, 6	;RP1=1, select bank3
  6085  0BB5  138C               	bcf	(3175/8)^0180h,(3175)&7
  6086                           	line	565
  6087                           	
  6088  0BB6                     l3422:	
  6089                           ;PR31_final.c: 565: RD = 1;
  6090  0BB6  140C               	bsf	(3168/8)^0180h,(3168)&7
  6091                           	line	566
  6092                           ;PR31_final.c: 566: while (RD == 1);
  6093  0BB7  2BB8               	goto	l1429
  6094                           	
  6095  0BB8                     l1430:	
  6096                           	
  6097  0BB8                     l1429:	
  6098  0BB8  180C               	btfsc	(3168/8)^0180h,(3168)&7
  6099  0BB9  2BBB               	goto	u3551
  6100  0BBA  2BBC               	goto	u3550
  6101  0BBB                     u3551:
  6102  0BBB  2BB8               	goto	l1429
  6103  0BBC                     u3550:
  6104  0BBC  2BBD               	goto	l3424
  6105                           	
  6106  0BBD                     l1431:	
  6107                           	line	567
  6108                           	
  6109  0BBD                     l3424:	
  6110                           ;PR31_final.c: 567: fm_value = (EEDATA + 825);
  6111  0BBD  1283               	bcf	status, 5	;RP0=0, select bank2
  6112  0BBE  1703               	bsf	status, 6	;RP1=1, select bank2
  6113  0BBF  080C               	movf	(268)^0100h,w	;volatile
  6114  0BC0  3E39               	addlw	low(0339h)
  6115  0BC1  00F2               	movwf	(eprom_read@fm_value)
  6116  0BC2  3003               	movlw	high(0339h)
  6117  0BC3  1803               	skipnc
  6118  0BC4  3004               	movlw	(high(0339h)+1)&0ffh
  6119  0BC5  00F3               	movwf	((eprom_read@fm_value))+1
  6120                           	line	569
  6121                           	
  6122  0BC6                     l3426:	
  6123                           ;PR31_final.c: 569: return fm_value;
  6124  0BC6  0873               	movf	(eprom_read@fm_value+1),w
  6125  0BC7  01F1               	clrf	(?_eprom_read+1)
  6126  0BC8  07F1               	addwf	(?_eprom_read+1)
  6127  0BC9  0872               	movf	(eprom_read@fm_value),w
  6128  0BCA  01F0               	clrf	(?_eprom_read)
  6129  0BCB  07F0               	addwf	(?_eprom_read)
  6130                           
  6131  0BCC  2BCD               	goto	l1432
  6132                           	
  6133  0BCD                     l3428:	
  6134                           	line	570
  6135                           	
  6136  0BCD                     l1432:	
  6137  0BCD  0008               	return
  6138                           	opt stack 0
  6139                           GLOBAL	__end_of_eprom_read
  6140  0BCE                     	__end_of_eprom_read:
  6141 ;; =============== function _eprom_read ends ============
  6142                           
  6143                           	signat	_eprom_read,4218
  6144                           	global	_uart_tx
  6145                           psect	text627,local,class=CODE,delta=2
  6146                           global __ptext627
  6147  0AD4                     __ptext627:
  6148                           
  6149 ;; *************** function _uart_tx *****************
  6150 ;; Defined at:
  6151 ;;		line 528 in file "C:\Users\Phang\Desktop\9.80\PR 31\PR31_final.c"
  6152 ;; Parameters:    Size  Location     Type
  6153 ;;  uc_data         1    wreg     unsigned char 
  6154 ;; Auto vars:     Size  Location     Type
  6155 ;;  uc_data         1    0[COMMON] unsigned char 
  6156 ;; Return value:  Size  Location     Type
  6157 ;;		None               void
  6158 ;; Registers used:
  6159 ;;		wreg
  6160 ;; Tracked objects:
  6161 ;;		On entry : 0/0
  6162 ;;		On exit  : 0/0
  6163 ;;		Unchanged: 0/0
  6164 ;; Data sizes:     COMMON   BANK0   BANK1   BANK3   BANK2
  6165 ;;      Params:         0       0       0       0       0
  6166 ;;      Locals:         1       0       0       0       0
  6167 ;;      Temps:          0       0       0       0       0
  6168 ;;      Totals:         1       0       0       0       0
  6169 ;;Total ram usage:        1 bytes
  6170 ;; Hardware stack levels used:    1
  6171 ;; This function calls:
  6172 ;;		Nothing
  6173 ;; This function is called by:
  6174 ;;		_switch_channel
  6175 ;;		_adjust_channel
  6176 ;;		_decrease_chan
  6177 ;;		_increase_chan
  6178 ;;		_send_dec
  6179 ;;		_adjust_vol
  6180 ;;		_uart_init
  6181 ;;		_uart_sendstr
  6182 ;; This function uses a non-reentrant model
  6183 ;;
  6184                           psect	text627
  6185                           	file	"C:\Users\Phang\Desktop\9.80\PR 31\PR31_final.c"
  6186                           	line	528
  6187                           	global	__size_of_uart_tx
  6188  000C                     	__size_of_uart_tx	equ	__end_of_uart_tx-_uart_tx
  6189                           	
  6190  0AD4                     _uart_tx:	
  6191                           	opt	stack 6
  6192                           ; Regs used in _uart_tx: [wreg]
  6193                           ;uart_tx@uc_data stored from wreg
  6194  0AD4  00F0               	movwf	(uart_tx@uc_data)
  6195                           	line	529
  6196                           	
  6197  0AD5                     l3414:	
  6198                           ;PR31_final.c: 529: while (TXIF == 0);
  6199  0AD5  2AD6               	goto	l1410
  6200                           	
  6201  0AD6                     l1411:	
  6202                           	
  6203  0AD6                     l1410:	
  6204  0AD6  1283               	bcf	status, 5	;RP0=0, select bank0
  6205  0AD7  1303               	bcf	status, 6	;RP1=0, select bank0
  6206  0AD8  1E0C               	btfss	(100/8),(100)&7
  6207  0AD9  2ADB               	goto	u3541
  6208  0ADA  2ADC               	goto	u3540
  6209  0ADB                     u3541:
  6210  0ADB  2AD6               	goto	l1410
  6211  0ADC                     u3540:
  6212  0ADC  2ADD               	goto	l3416
  6213                           	
  6214  0ADD                     l1412:	
  6215                           	line	530
  6216                           	
  6217  0ADD                     l3416:	
  6218                           ;PR31_final.c: 530: TXREG = uc_data;
  6219  0ADD  0870               	movf	(uart_tx@uc_data),w
  6220  0ADE  0099               	movwf	(25)	;volatile
  6221                           	line	531
  6222                           	
  6223  0ADF                     l1413:	
  6224  0ADF  0008               	return
  6225                           	opt stack 0
  6226                           GLOBAL	__end_of_uart_tx
  6227  0AE0                     	__end_of_uart_tx:
  6228 ;; =============== function _uart_tx ends ============
  6229                           
  6230                           	signat	_uart_tx,4216
  6231                           	global	_eprom_write
  6232                           psect	text628,local,class=CODE,delta=2
  6233                           global __ptext628
  6234  0B90                     __ptext628:
  6235                           
  6236 ;; *************** function _eprom_write *****************
  6237 ;; Defined at:
  6238 ;;		line 573 in file "C:\Users\Phang\Desktop\9.80\PR 31\PR31_final.c"
  6239 ;; Parameters:    Size  Location     Type
  6240 ;;  channel_adr     1    wreg     unsigned char 
  6241 ;;  fm_value        2    0[COMMON] unsigned int 
  6242 ;; Auto vars:     Size  Location     Type
  6243 ;;  channel_adr     1    2[COMMON] unsigned char 
  6244 ;; Return value:  Size  Location     Type
  6245 ;;		None               void
  6246 ;; Registers used:
  6247 ;;		wreg
  6248 ;; Tracked objects:
  6249 ;;		On entry : 0/0
  6250 ;;		On exit  : 0/0
  6251 ;;		Unchanged: 0/0
  6252 ;; Data sizes:     COMMON   BANK0   BANK1   BANK3   BANK2
  6253 ;;      Params:         2       0       0       0       0
  6254 ;;      Locals:         1       0       0       0       0
  6255 ;;      Temps:          0       0       0       0       0
  6256 ;;      Totals:         3       0       0       0       0
  6257 ;;Total ram usage:        3 bytes
  6258 ;; Hardware stack levels used:    1
  6259 ;; This function calls:
  6260 ;;		Nothing
  6261 ;; This function is called by:
  6262 ;;		_main
  6263 ;;		_adjust_channel
  6264 ;; This function uses a non-reentrant model
  6265 ;;
  6266                           psect	text628
  6267                           	file	"C:\Users\Phang\Desktop\9.80\PR 31\PR31_final.c"
  6268                           	line	573
  6269                           	global	__size_of_eprom_write
  6270  001E                     	__size_of_eprom_write	equ	__end_of_eprom_write-_eprom_write
  6271                           	
  6272  0B90                     _eprom_write:	
  6273                           	opt	stack 6
  6274                           ; Regs used in _eprom_write: [wreg]
  6275                           ;eprom_write@channel_adr stored from wreg
  6276  0B90  00F2               	movwf	(eprom_write@channel_adr)
  6277                           	line	574
  6278                           	
  6279  0B91                     l3404:	
  6280                           ;PR31_final.c: 574: EEADR = channel_adr;
  6281  0B91  0872               	movf	(eprom_write@channel_adr),w
  6282  0B92  1283               	bcf	status, 5	;RP0=0, select bank2
  6283  0B93  1703               	bsf	status, 6	;RP1=1, select bank2
  6284  0B94  008D               	movwf	(269)^0100h	;volatile
  6285                           	line	575
  6286                           ;PR31_final.c: 575: fm_value -= 825;
  6287  0B95  3039               	movlw	low(0339h)
  6288  0B96  02F0               	subwf	(eprom_write@fm_value),f
  6289  0B97  3003               	movlw	high(0339h)
  6290  0B98  1C03               	skipc
  6291  0B99  03F1               	decf	(eprom_write@fm_value+1),f
  6292  0B9A  02F1               	subwf	(eprom_write@fm_value+1),f
  6293                           	line	576
  6294                           ;PR31_final.c: 576: EEDATA = fm_value;
  6295  0B9B  0870               	movf	(eprom_write@fm_value),w
  6296  0B9C  008C               	movwf	(268)^0100h	;volatile
  6297                           	line	577
  6298                           	
  6299  0B9D                     l3406:	
  6300                           ;PR31_final.c: 577: EEPGD = 0;
  6301  0B9D  1683               	bsf	status, 5	;RP0=1, select bank3
  6302  0B9E  1703               	bsf	status, 6	;RP1=1, select bank3
  6303  0B9F  138C               	bcf	(3175/8)^0180h,(3175)&7
  6304                           	line	578
  6305                           	
  6306  0BA0                     l3408:	
  6307                           ;PR31_final.c: 578: WREN = 1;
  6308  0BA0  150C               	bsf	(3170/8)^0180h,(3170)&7
  6309                           	line	579
  6310                           ;PR31_final.c: 579: EECON2 = 0x55;
  6311  0BA1  3055               	movlw	(055h)
  6312  0BA2  008D               	movwf	(397)^0180h	;volatile
  6313                           	line	580
  6314                           ;PR31_final.c: 580: EECON2 = 0xAA;
  6315  0BA3  30AA               	movlw	(0AAh)
  6316  0BA4  008D               	movwf	(397)^0180h	;volatile
  6317                           	line	581
  6318                           	
  6319  0BA5                     l3410:	
  6320                           ;PR31_final.c: 581: WR = 1;
  6321  0BA5  148C               	bsf	(3169/8)^0180h,(3169)&7
  6322                           	line	582
  6323                           	
  6324  0BA6                     l3412:	
  6325                           ;PR31_final.c: 582: WREN = 0;
  6326  0BA6  110C               	bcf	(3170/8)^0180h,(3170)&7
  6327                           	line	583
  6328                           ;PR31_final.c: 583: while (WR == 1);
  6329  0BA7  2BA8               	goto	l1435
  6330                           	
  6331  0BA8                     l1436:	
  6332                           	
  6333  0BA8                     l1435:	
  6334  0BA8  188C               	btfsc	(3169/8)^0180h,(3169)&7
  6335  0BA9  2BAB               	goto	u3531
  6336  0BAA  2BAC               	goto	u3530
  6337  0BAB                     u3531:
  6338  0BAB  2BA8               	goto	l1435
  6339  0BAC                     u3530:
  6340  0BAC  2BAD               	goto	l1438
  6341                           	
  6342  0BAD                     l1437:	
  6343                           	line	584
  6344                           	
  6345  0BAD                     l1438:	
  6346  0BAD  0008               	return
  6347                           	opt stack 0
  6348                           GLOBAL	__end_of_eprom_write
  6349  0BAE                     	__end_of_eprom_write:
  6350 ;; =============== function _eprom_write ends ============
  6351                           
  6352                           	signat	_eprom_write,8312
  6353                           	global	_eeprom_read
  6354                           psect	text629,local,class=CODE,delta=2
  6355                           global __ptext629
  6356  0BCE                     __ptext629:
  6357                           
  6358 ;; *************** function _eeprom_read *****************
  6359 ;; Defined at:
  6360 ;;		line 8 in file "eeread.c"
  6361 ;; Parameters:    Size  Location     Type
  6362 ;;  addr            1    wreg     unsigned char 
  6363 ;; Auto vars:     Size  Location     Type
  6364 ;;  addr            1    3[COMMON] unsigned char 
  6365 ;; Return value:  Size  Location     Type
  6366 ;;                  1    wreg      unsigned char 
  6367 ;; Registers used:
  6368 ;;		wreg, status,2, status,0
  6369 ;; Tracked objects:
  6370 ;;		On entry : 0/0
  6371 ;;		On exit  : 0/0
  6372 ;;		Unchanged: 0/0
  6373 ;; Data sizes:     COMMON   BANK0   BANK1   BANK3   BANK2
  6374 ;;      Params:         0       0       0       0       0
  6375 ;;      Locals:         1       0       0       0       0
  6376 ;;      Temps:          3       0       0       0       0
  6377 ;;      Totals:         4       0       0       0       0
  6378 ;;Total ram usage:        4 bytes
  6379 ;; Hardware stack levels used:    1
  6380 ;; This function calls:
  6381 ;;		Nothing
  6382 ;; This function is called by:
  6383 ;;		_main
  6384 ;; This function uses a non-reentrant model
  6385 ;;
  6386                           psect	text629
  6387                           	file	"C:\Program Files\HI-TECH Software\sources\eeread.c"
  6388                           	line	8
  6389                           	global	__size_of_eeprom_read
  6390  0021                     	__size_of_eeprom_read	equ	__end_of_eeprom_read-_eeprom_read
  6391                           	
  6392  0BCE                     _eeprom_read:	
  6393                           	opt	stack 7
  6394                           ; Regs used in _eeprom_read: [wreg+status,2+status,0]
  6395                           ;eeprom_read@addr stored from wreg
  6396                           	line	10
  6397  0BCE  00F3               	movwf	(eeprom_read@addr)
  6398                           	line	9
  6399                           	
  6400  0BCF                     l1451:	
  6401                           	line	10
  6402                           # 10 "C:\Program Files\HI-TECH Software\sources\eeread.c"
  6403  0BCF  0064               clrwdt ;#
  6404                           psect	text629
  6405                           	line	11
  6406  0BD0  1683               	bsf	status, 5	;RP0=1, select bank3
  6407  0BD1  1703               	bsf	status, 6	;RP1=1, select bank3
  6408  0BD2  188C               	btfsc	(3169/8)^0180h,(3169)&7
  6409  0BD3  2BD5               	goto	u3521
  6410  0BD4  2BD6               	goto	u3520
  6411  0BD5                     u3521:
  6412  0BD5  2BCF               	goto	l1451
  6413  0BD6                     u3520:
  6414  0BD6  2BD7               	goto	l3400
  6415                           	
  6416  0BD7                     l1452:	
  6417                           	line	12
  6418                           	
  6419  0BD7                     l3400:	
  6420  0BD7  0873               	movf	(eeprom_read@addr),w
  6421  0BD8  1283               	bcf	status, 5	;RP0=0, select bank2
  6422  0BD9  1703               	bsf	status, 6	;RP1=1, select bank2
  6423  0BDA  008D               	movwf	(269)^0100h	;volatile
  6424  0BDB  303F               	movlw	(03Fh)
  6425  0BDC  00F0               	movwf	(??_eeprom_read+0)+0
  6426  0BDD  0870               	movf	(??_eeprom_read+0)+0,w
  6427  0BDE  1683               	bsf	status, 5	;RP0=1, select bank3
  6428  0BDF  1703               	bsf	status, 6	;RP1=1, select bank3
  6429  0BE0  058C               	andwf	(396)^0180h,f	;volatile
  6430  0BE1  140C               	bsf	(3168/8)^0180h,(3168)&7
  6431  0BE2  1003               	clrc
  6432  0BE3  180C               	btfsc	(3168/8)^0180h,(3168)&7
  6433  0BE4  1403               	setc
  6434  0BE5  3000               	movlw	0
  6435  0BE6  1803               	skipnc
  6436  0BE7  3001               	movlw	1
  6437                           
  6438  0BE8  00F1               	movwf	(??_eeprom_read+1)+0
  6439  0BE9  01F2               	clrf	(??_eeprom_read+1)+0+1
  6440  0BEA  1283               	bcf	status, 5	;RP0=0, select bank2
  6441  0BEB  1703               	bsf	status, 6	;RP1=1, select bank2
  6442  0BEC  080C               	movf	(268)^0100h,w	;volatile
  6443  0BED  2BEE               	goto	l1453
  6444                           	
  6445  0BEE                     l3402:	
  6446                           	line	13
  6447                           	
  6448  0BEE                     l1453:	
  6449  0BEE  0008               	return
  6450                           	opt stack 0
  6451                           GLOBAL	__end_of_eeprom_read
  6452  0BEF                     	__end_of_eeprom_read:
  6453 ;; =============== function _eeprom_read ends ============
  6454                           
  6455                           	signat	_eeprom_read,4217
  6456                           	global	_delay
  6457                           psect	text630,local,class=CODE,delta=2
  6458                           global __ptext630
  6459  0004                     __ptext630:
  6460                           
  6461 ;; *************** function _delay *****************
  6462 ;; Defined at:
  6463 ;;		line 462 in file "C:\Users\Phang\Desktop\9.80\PR 31\PR31_final.c"
  6464 ;; Parameters:    Size  Location     Type
  6465 ;;  RC4             4    0[COMMON] unsigned long 
  6466 ;; Auto vars:     Size  Location     Type
  6467 ;;		None
  6468 ;; Return value:  Size  Location     Type
  6469 ;;		None               void
  6470 ;; Registers used:
  6471 ;;		wreg
  6472 ;; Tracked objects:
  6473 ;;		On entry : 0/0
  6474 ;;		On exit  : 0/0
  6475 ;;		Unchanged: 0/0
  6476 ;; Data sizes:     COMMON   BANK0   BANK1   BANK3   BANK2
  6477 ;;      Params:         4       0       0       0       0
  6478 ;;      Locals:         0       0       0       0       0
  6479 ;;      Temps:          4       0       0       0       0
  6480 ;;      Totals:         8       0       0       0       0
  6481 ;;Total ram usage:        8 bytes
  6482 ;; Hardware stack levels used:    1
  6483 ;; This function calls:
  6484 ;;		Nothing
  6485 ;; This function is called by:
  6486 ;;		_main
  6487 ;;		_adjust_channel
  6488 ;;		_decrease_chan
  6489 ;;		_increase_chan
  6490 ;;		_send_dec
  6491 ;;		_adjust_vol
  6492 ;;		_ar1000_init
  6493 ;;		_setAR1000
  6494 ;;		_send_config
  6495 ;;		_send_char
  6496 ;;		_e_pulse
  6497 ;;		_lcd_clr
  6498 ;; This function uses a non-reentrant model
  6499 ;;
  6500                           psect	text630
  6501                           	file	"C:\Users\Phang\Desktop\9.80\PR 31\PR31_final.c"
  6502                           	line	462
  6503                           	global	__size_of_delay
  6504  0030                     	__size_of_delay	equ	__end_of_delay-_delay
  6505                           	
  6506  0004                     _delay:	
  6507                           	opt	stack 6
  6508                           ; Regs used in _delay: [wreg]
  6509                           	line	463
  6510                           	
  6511  0004                     l3394:	
  6512                           ;PR31_final.c: 463: for( ;RC4>0;RC4-=1);
  6513  0004  0873               	movf	(delay@RC4+3),w
  6514  0005  0472               	iorwf	(delay@RC4+2),w
  6515  0006  0471               	iorwf	(delay@RC4+1),w
  6516  0007  0470               	iorwf	(delay@RC4),w
  6517  0008  1D03               	skipz
  6518  0009  280B               	goto	u3491
  6519  000A  280C               	goto	u3490
  6520  000B                     u3491:
  6521  000B  280E               	goto	l3398
  6522  000C                     u3490:
  6523  000C  2833               	goto	l1379
  6524                           	
  6525  000D                     l3396:	
  6526  000D  2833               	goto	l1379
  6527                           	
  6528  000E                     l1377:	
  6529                           	
  6530  000E                     l3398:	
  6531  000E  3001               	movlw	01h
  6532  000F  00F4               	movwf	((??_delay+0)+0)
  6533  0010  3000               	movlw	0
  6534  0011  00F5               	movwf	((??_delay+0)+0+1)
  6535  0012  3000               	movlw	0
  6536  0013  00F6               	movwf	((??_delay+0)+0+2)
  6537  0014  3000               	movlw	0
  6538  0015  00F7               	movwf	((??_delay+0)+0+3)
  6539  0016  0874               	movf	0+(??_delay+0)+0,w
  6540  0017  02F0               	subwf	(delay@RC4),f
  6541  0018  0875               	movf	1+(??_delay+0)+0,w
  6542  0019  1C03               	skipc
  6543  001A  0F75               	incfsz	1+(??_delay+0)+0,w
  6544  001B  281D               	goto	u3505
  6545  001C  281E               	goto	u3506
  6546  001D                     u3505:
  6547  001D  02F1               	subwf	(delay@RC4+1),f
  6548  001E                     u3506:
  6549  001E  0876               	movf	2+(??_delay+0)+0,w
  6550  001F  1C03               	skipc
  6551  0020  0F76               	incfsz	2+(??_delay+0)+0,w
  6552  0021  2823               	goto	u3507
  6553  0022  2824               	goto	u3508
  6554  0023                     u3507:
  6555  0023  02F2               	subwf	(delay@RC4+2),f
  6556  0024                     u3508:
  6557  0024  0877               	movf	3+(??_delay+0)+0,w
  6558  0025  1C03               	skipc
  6559  0026  0F77               	incfsz	3+(??_delay+0)+0,w
  6560  0027  2829               	goto	u3509
  6561  0028  282A               	goto	u3500
  6562  0029                     u3509:
  6563  0029  02F3               	subwf	(delay@RC4+3),f
  6564  002A                     u3500:
  6565                           
  6566  002A  0873               	movf	(delay@RC4+3),w
  6567  002B  0472               	iorwf	(delay@RC4+2),w
  6568  002C  0471               	iorwf	(delay@RC4+1),w
  6569  002D  0470               	iorwf	(delay@RC4),w
  6570  002E  1D03               	skipz
  6571  002F  2831               	goto	u3511
  6572  0030  2832               	goto	u3510
  6573  0031                     u3511:
  6574  0031  280E               	goto	l3398
  6575  0032                     u3510:
  6576  0032  2833               	goto	l1379
  6577                           	
  6578  0033                     l1378:	
  6579                           	line	464
  6580                           	
  6581  0033                     l1379:	
  6582  0033  0008               	return
  6583                           	opt stack 0
  6584                           GLOBAL	__end_of_delay
  6585  0034                     	__end_of_delay:
  6586 ;; =============== function _delay ends ============
  6587                           
  6588                           	signat	_delay,4216
  6589                           	global	_ar_i2c_write
  6590                           psect	text631,local,class=CODE,delta=2
  6591                           global __ptext631
  6592  0ECE                     __ptext631:
  6593                           
  6594 ;; *************** function _ar_i2c_write *****************
  6595 ;; Defined at:
  6596 ;;		line 220 in file "C:\Users\Phang\Desktop\9.80\PR 31\i2c_ar1000.c"
  6597 ;; Parameters:    Size  Location     Type
  6598 ;;  ar_slave_add    1    wreg     unsigned char 
  6599 ;;  ar_register     1    0[COMMON] unsigned char 
  6600 ;;  ar_data         4    1[COMMON] unsigned long 
  6601 ;; Auto vars:     Size  Location     Type
  6602 ;;  ar_slave_add    1   10[COMMON] unsigned char 
  6603 ;;  ar_transmit_    1   12[COMMON] unsigned char 
  6604 ;;  ar_transmit_    1   11[COMMON] unsigned char 
  6605 ;; Return value:  Size  Location     Type
  6606 ;;		None               void
  6607 ;; Registers used:
  6608 ;;		wreg, status,2, status,0
  6609 ;; Tracked objects:
  6610 ;;		On entry : 0/0
  6611 ;;		On exit  : 0/0
  6612 ;;		Unchanged: 0/0
  6613 ;; Data sizes:     COMMON   BANK0   BANK1   BANK3   BANK2
  6614 ;;      Params:         5       0       0       0       0
  6615 ;;      Locals:         3       0       0       0       0
  6616 ;;      Temps:          5       0       0       0       0
  6617 ;;      Totals:        13       0       0       0       0
  6618 ;;Total ram usage:       13 bytes
  6619 ;; Hardware stack levels used:    1
  6620 ;; This function calls:
  6621 ;;		Nothing
  6622 ;; This function is called by:
  6623 ;;		_set_vol
  6624 ;;		_ar1000_init
  6625 ;;		_setAR1000
  6626 ;; This function uses a non-reentrant model
  6627 ;;
  6628                           psect	text631
  6629                           	file	"C:\Users\Phang\Desktop\9.80\PR 31\i2c_ar1000.c"
  6630                           	line	220
  6631                           	global	__size_of_ar_i2c_write
  6632  0087                     	__size_of_ar_i2c_write	equ	__end_of_ar_i2c_write-_ar_i2c_write
  6633                           	
  6634  0ECE                     _ar_i2c_write:	
  6635                           	opt	stack 5
  6636                           ; Regs used in _ar_i2c_write: [wreg+status,2+status,0]
  6637                           ;ar_i2c_write@ar_slave_address stored from wreg
  6638                           	line	224
  6639  0ECE  00FA               	movwf	(ar_i2c_write@ar_slave_address)
  6640                           	
  6641  0ECF                     l3372:	
  6642                           ;i2c_ar1000.c: 223: unsigned char ar_transmit_byte1, ar_transmit_byte2;
  6643                           ;i2c_ar1000.c: 224: ar_transmit_byte1 = (ar_data & 0xFF00) >> 8;
  6644  0ECF  0871               	movf	(ar_i2c_write@ar_data),w
  6645  0ED0  00F5               	movwf	(??_ar_i2c_write+0)+0
  6646  0ED1  0872               	movf	(ar_i2c_write@ar_data+1),w
  6647  0ED2  00F6               	movwf	((??_ar_i2c_write+0)+0+1)
  6648  0ED3  0873               	movf	(ar_i2c_write@ar_data+2),w
  6649  0ED4  00F7               	movwf	((??_ar_i2c_write+0)+0+2)
  6650  0ED5  0874               	movf	(ar_i2c_write@ar_data+3),w
  6651  0ED6  00F8               	movwf	((??_ar_i2c_write+0)+0+3)
  6652  0ED7  3008               	movlw	08h
  6653  0ED8                     u3345:
  6654  0ED8  1003               	clrc
  6655  0ED9  0CF8               	rrf	(??_ar_i2c_write+0)+3,f
  6656  0EDA  0CF7               	rrf	(??_ar_i2c_write+0)+2,f
  6657  0EDB  0CF6               	rrf	(??_ar_i2c_write+0)+1,f
  6658  0EDC  0CF5               	rrf	(??_ar_i2c_write+0)+0,f
  6659  0EDD                     u3340:
  6660  0EDD  3EFF               	addlw	-1
  6661  0EDE  1D03               	skipz
  6662  0EDF  2ED8               	goto	u3345
  6663  0EE0  0875               	movf	0+(??_ar_i2c_write+0)+0,w
  6664  0EE1  00F9               	movwf	(??_ar_i2c_write+4)+0
  6665  0EE2  0879               	movf	(??_ar_i2c_write+4)+0,w
  6666  0EE3  00FB               	movwf	(ar_i2c_write@ar_transmit_byte1)
  6667                           	line	225
  6668                           	
  6669  0EE4                     l3374:	
  6670                           ;i2c_ar1000.c: 225: ar_transmit_byte2 = (ar_data & 0x00FF);
  6671  0EE4  0871               	movf	(ar_i2c_write@ar_data),w
  6672  0EE5  00F5               	movwf	(??_ar_i2c_write+0)+0
  6673  0EE6  0875               	movf	(??_ar_i2c_write+0)+0,w
  6674  0EE7  00FC               	movwf	(ar_i2c_write@ar_transmit_byte2)
  6675                           	line	228
  6676                           	
  6677  0EE8                     l3376:	
  6678                           ;i2c_ar1000.c: 228: SEN = 1;
  6679  0EE8  1683               	bsf	status, 5	;RP0=1, select bank1
  6680  0EE9  1303               	bcf	status, 6	;RP1=0, select bank1
  6681  0EEA  1411               	bsf	(1160/8)^080h,(1160)&7
  6682                           	line	229
  6683                           ;i2c_ar1000.c: 229: while (SEN == 1);
  6684  0EEB  2EEC               	goto	l615
  6685                           	
  6686  0EEC                     l616:	
  6687                           	
  6688  0EEC                     l615:	
  6689  0EEC  1811               	btfsc	(1160/8)^080h,(1160)&7
  6690  0EED  2EEF               	goto	u3351
  6691  0EEE  2EF0               	goto	u3350
  6692  0EEF                     u3351:
  6693  0EEF  2EEC               	goto	l615
  6694  0EF0                     u3350:
  6695  0EF0  2EF1               	goto	l3378
  6696                           	
  6697  0EF1                     l617:	
  6698                           	line	232
  6699                           	
  6700  0EF1                     l3378:	
  6701                           ;i2c_ar1000.c: 232: SSPBUF = ar_slave_address | 0x00;
  6702  0EF1  087A               	movf	(ar_i2c_write@ar_slave_address),w
  6703  0EF2  1283               	bcf	status, 5	;RP0=0, select bank0
  6704  0EF3  1303               	bcf	status, 6	;RP1=0, select bank0
  6705  0EF4  0093               	movwf	(19)	;volatile
  6706                           	line	235
  6707                           ;i2c_ar1000.c: 235: while (RW == 1);
  6708  0EF5  2EF6               	goto	l618
  6709                           	
  6710  0EF6                     l619:	
  6711                           	
  6712  0EF6                     l618:	
  6713  0EF6  1683               	bsf	status, 5	;RP0=1, select bank1
  6714  0EF7  1303               	bcf	status, 6	;RP1=0, select bank1
  6715  0EF8  1914               	btfsc	(1186/8)^080h,(1186)&7
  6716  0EF9  2EFB               	goto	u3361
  6717  0EFA  2EFC               	goto	u3360
  6718  0EFB                     u3361:
  6719  0EFB  2EF6               	goto	l618
  6720  0EFC                     u3360:
  6721                           	
  6722  0EFC                     l620:	
  6723                           	line	238
  6724                           ;i2c_ar1000.c: 238: if (ACKSTAT == 1) {
  6725  0EFC  1F11               	btfss	(1166/8)^080h,(1166)&7
  6726  0EFD  2EFF               	goto	u3371
  6727  0EFE  2F00               	goto	u3370
  6728  0EFF                     u3371:
  6729  0EFF  2F08               	goto	l3382
  6730  0F00                     u3370:
  6731                           	line	240
  6732                           	
  6733  0F00                     l3380:	
  6734                           ;i2c_ar1000.c: 240: PEN = 1;
  6735  0F00  1511               	bsf	(1162/8)^080h,(1162)&7
  6736                           	line	241
  6737                           ;i2c_ar1000.c: 241: while (PEN == 1);
  6738  0F01  2F02               	goto	l622
  6739                           	
  6740  0F02                     l623:	
  6741                           	
  6742  0F02                     l622:	
  6743  0F02  1911               	btfsc	(1162/8)^080h,(1162)&7
  6744  0F03  2F05               	goto	u3381
  6745  0F04  2F06               	goto	u3380
  6746  0F05                     u3381:
  6747  0F05  2F02               	goto	l622
  6748  0F06                     u3380:
  6749  0F06  2F54               	goto	l625
  6750                           	
  6751  0F07                     l624:	
  6752                           	line	243
  6753                           ;i2c_ar1000.c: 243: return;
  6754  0F07  2F54               	goto	l625
  6755                           	line	244
  6756                           	
  6757  0F08                     l621:	
  6758                           	line	247
  6759                           	
  6760  0F08                     l3382:	
  6761                           ;i2c_ar1000.c: 244: }
  6762                           ;i2c_ar1000.c: 247: SSPBUF = ar_register;
  6763  0F08  0870               	movf	(ar_i2c_write@ar_register),w
  6764  0F09  1283               	bcf	status, 5	;RP0=0, select bank0
  6765  0F0A  1303               	bcf	status, 6	;RP1=0, select bank0
  6766  0F0B  0093               	movwf	(19)	;volatile
  6767                           	line	250
  6768                           ;i2c_ar1000.c: 250: while (RW == 1);
  6769  0F0C  2F0D               	goto	l626
  6770                           	
  6771  0F0D                     l627:	
  6772                           	
  6773  0F0D                     l626:	
  6774  0F0D  1683               	bsf	status, 5	;RP0=1, select bank1
  6775  0F0E  1303               	bcf	status, 6	;RP1=0, select bank1
  6776  0F0F  1914               	btfsc	(1186/8)^080h,(1186)&7
  6777  0F10  2F12               	goto	u3391
  6778  0F11  2F13               	goto	u3390
  6779  0F12                     u3391:
  6780  0F12  2F0D               	goto	l626
  6781  0F13                     u3390:
  6782                           	
  6783  0F13                     l628:	
  6784                           	line	253
  6785                           ;i2c_ar1000.c: 253: if (ACKSTAT == 1) {
  6786  0F13  1F11               	btfss	(1166/8)^080h,(1166)&7
  6787  0F14  2F16               	goto	u3401
  6788  0F15  2F17               	goto	u3400
  6789  0F16                     u3401:
  6790  0F16  2F1F               	goto	l3386
  6791  0F17                     u3400:
  6792                           	line	255
  6793                           	
  6794  0F17                     l3384:	
  6795                           ;i2c_ar1000.c: 255: PEN = 1;
  6796  0F17  1511               	bsf	(1162/8)^080h,(1162)&7
  6797                           	line	256
  6798                           ;i2c_ar1000.c: 256: while (PEN == 1);
  6799  0F18  2F19               	goto	l630
  6800                           	
  6801  0F19                     l631:	
  6802                           	
  6803  0F19                     l630:	
  6804  0F19  1911               	btfsc	(1162/8)^080h,(1162)&7
  6805  0F1A  2F1C               	goto	u3411
  6806  0F1B  2F1D               	goto	u3410
  6807  0F1C                     u3411:
  6808  0F1C  2F19               	goto	l630
  6809  0F1D                     u3410:
  6810  0F1D  2F54               	goto	l625
  6811                           	
  6812  0F1E                     l632:	
  6813                           	line	258
  6814                           ;i2c_ar1000.c: 258: return;
  6815  0F1E  2F54               	goto	l625
  6816                           	line	259
  6817                           	
  6818  0F1F                     l629:	
  6819                           	line	263
  6820                           	
  6821  0F1F                     l3386:	
  6822                           ;i2c_ar1000.c: 259: }
  6823                           ;i2c_ar1000.c: 263: SSPBUF = ar_transmit_byte1;
  6824  0F1F  087B               	movf	(ar_i2c_write@ar_transmit_byte1),w
  6825  0F20  1283               	bcf	status, 5	;RP0=0, select bank0
  6826  0F21  1303               	bcf	status, 6	;RP1=0, select bank0
  6827  0F22  0093               	movwf	(19)	;volatile
  6828                           	line	266
  6829                           ;i2c_ar1000.c: 266: while (RW == 1);
  6830  0F23  2F24               	goto	l633
  6831                           	
  6832  0F24                     l634:	
  6833                           	
  6834  0F24                     l633:	
  6835  0F24  1683               	bsf	status, 5	;RP0=1, select bank1
  6836  0F25  1303               	bcf	status, 6	;RP1=0, select bank1
  6837  0F26  1914               	btfsc	(1186/8)^080h,(1186)&7
  6838  0F27  2F29               	goto	u3421
  6839  0F28  2F2A               	goto	u3420
  6840  0F29                     u3421:
  6841  0F29  2F24               	goto	l633
  6842  0F2A                     u3420:
  6843                           	
  6844  0F2A                     l635:	
  6845                           	line	269
  6846                           ;i2c_ar1000.c: 269: if (ACKSTAT == 1) {
  6847  0F2A  1F11               	btfss	(1166/8)^080h,(1166)&7
  6848  0F2B  2F2D               	goto	u3431
  6849  0F2C  2F2E               	goto	u3430
  6850  0F2D                     u3431:
  6851  0F2D  2F36               	goto	l3390
  6852  0F2E                     u3430:
  6853                           	line	271
  6854                           	
  6855  0F2E                     l3388:	
  6856                           ;i2c_ar1000.c: 271: PEN = 1;
  6857  0F2E  1511               	bsf	(1162/8)^080h,(1162)&7
  6858                           	line	272
  6859                           ;i2c_ar1000.c: 272: while (PEN == 1);
  6860  0F2F  2F30               	goto	l637
  6861                           	
  6862  0F30                     l638:	
  6863                           	
  6864  0F30                     l637:	
  6865  0F30  1911               	btfsc	(1162/8)^080h,(1162)&7
  6866  0F31  2F33               	goto	u3441
  6867  0F32  2F34               	goto	u3440
  6868  0F33                     u3441:
  6869  0F33  2F30               	goto	l637
  6870  0F34                     u3440:
  6871  0F34  2F54               	goto	l625
  6872                           	
  6873  0F35                     l639:	
  6874                           	line	274
  6875                           ;i2c_ar1000.c: 274: return;
  6876  0F35  2F54               	goto	l625
  6877                           	line	275
  6878                           	
  6879  0F36                     l636:	
  6880                           	line	278
  6881                           	
  6882  0F36                     l3390:	
  6883                           ;i2c_ar1000.c: 275: }
  6884                           ;i2c_ar1000.c: 278: SSPBUF = ar_transmit_byte2;
  6885  0F36  087C               	movf	(ar_i2c_write@ar_transmit_byte2),w
  6886  0F37  1283               	bcf	status, 5	;RP0=0, select bank0
  6887  0F38  1303               	bcf	status, 6	;RP1=0, select bank0
  6888  0F39  0093               	movwf	(19)	;volatile
  6889                           	line	281
  6890                           ;i2c_ar1000.c: 281: while (RW == 1);
  6891  0F3A  2F3B               	goto	l640
  6892                           	
  6893  0F3B                     l641:	
  6894                           	
  6895  0F3B                     l640:	
  6896  0F3B  1683               	bsf	status, 5	;RP0=1, select bank1
  6897  0F3C  1303               	bcf	status, 6	;RP1=0, select bank1
  6898  0F3D  1914               	btfsc	(1186/8)^080h,(1186)&7
  6899  0F3E  2F40               	goto	u3451
  6900  0F3F  2F41               	goto	u3450
  6901  0F40                     u3451:
  6902  0F40  2F3B               	goto	l640
  6903  0F41                     u3450:
  6904                           	
  6905  0F41                     l642:	
  6906                           	line	284
  6907                           ;i2c_ar1000.c: 284: if (ACKSTAT == 1) {
  6908  0F41  1F11               	btfss	(1166/8)^080h,(1166)&7
  6909  0F42  2F44               	goto	u3461
  6910  0F43  2F45               	goto	u3460
  6911  0F44                     u3461:
  6912  0F44  2F4D               	goto	l643
  6913  0F45                     u3460:
  6914                           	line	286
  6915                           	
  6916  0F45                     l3392:	
  6917                           ;i2c_ar1000.c: 286: PEN = 1;
  6918  0F45  1511               	bsf	(1162/8)^080h,(1162)&7
  6919                           	line	287
  6920                           ;i2c_ar1000.c: 287: while (PEN == 1);
  6921  0F46  2F47               	goto	l644
  6922                           	
  6923  0F47                     l645:	
  6924                           	
  6925  0F47                     l644:	
  6926  0F47  1911               	btfsc	(1162/8)^080h,(1162)&7
  6927  0F48  2F4A               	goto	u3471
  6928  0F49  2F4B               	goto	u3470
  6929  0F4A                     u3471:
  6930  0F4A  2F47               	goto	l644
  6931  0F4B                     u3470:
  6932  0F4B  2F54               	goto	l625
  6933                           	
  6934  0F4C                     l646:	
  6935                           	line	289
  6936                           ;i2c_ar1000.c: 289: return;
  6937  0F4C  2F54               	goto	l625
  6938                           	line	290
  6939                           	
  6940  0F4D                     l643:	
  6941                           	line	293
  6942                           ;i2c_ar1000.c: 290: }
  6943                           ;i2c_ar1000.c: 293: PEN = 1;
  6944  0F4D  1511               	bsf	(1162/8)^080h,(1162)&7
  6945                           	line	294
  6946                           ;i2c_ar1000.c: 294: while (PEN == 1);
  6947  0F4E  2F4F               	goto	l647
  6948                           	
  6949  0F4F                     l648:	
  6950                           	
  6951  0F4F                     l647:	
  6952  0F4F  1911               	btfsc	(1162/8)^080h,(1162)&7
  6953  0F50  2F52               	goto	u3481
  6954  0F51  2F53               	goto	u3480
  6955  0F52                     u3481:
  6956  0F52  2F4F               	goto	l647
  6957  0F53                     u3480:
  6958  0F53  2F54               	goto	l625
  6959                           	
  6960  0F54                     l649:	
  6961                           	line	296
  6962                           	
  6963  0F54                     l625:	
  6964  0F54  0008               	return
  6965                           	opt stack 0
  6966                           GLOBAL	__end_of_ar_i2c_write
  6967  0F55                     	__end_of_ar_i2c_write:
  6968 ;; =============== function _ar_i2c_write ends ============
  6969                           
  6970                           	signat	_ar_i2c_write,12408
  6971                           	global	_ar_i2c_read
  6972                           psect	text632,local,class=CODE,delta=2
  6973                           global __ptext632
  6974  03CE                     __ptext632:
  6975                           
  6976 ;; *************** function _ar_i2c_read *****************
  6977 ;; Defined at:
  6978 ;;		line 83 in file "C:\Users\Phang\Desktop\9.80\PR 31\i2c_ar1000.c"
  6979 ;; Parameters:    Size  Location     Type
  6980 ;;  ar_slave_add    1    wreg     unsigned char 
  6981 ;;  ar_register     1    0[COMMON] unsigned char 
  6982 ;; Auto vars:     Size  Location     Type
  6983 ;;  ar_slave_add    1    4[BANK0 ] unsigned char 
  6984 ;;  count           4    5[BANK0 ] unsigned long 
  6985 ;;  ar_received_    2    0[BANK0 ] unsigned int 
  6986 ;;  ar_received_    1    3[BANK0 ] unsigned char 
  6987 ;;  ar_received_    1    2[BANK0 ] unsigned char 
  6988 ;; Return value:  Size  Location     Type
  6989 ;;                  2    0[COMMON] unsigned int 
  6990 ;; Registers used:
  6991 ;;		wreg, status,2, status,0, btemp+1
  6992 ;; Tracked objects:
  6993 ;;		On entry : 0/0
  6994 ;;		On exit  : 0/0
  6995 ;;		Unchanged: 0/0
  6996 ;; Data sizes:     COMMON   BANK0   BANK1   BANK3   BANK2
  6997 ;;      Params:         2       0       0       0       0
  6998 ;;      Locals:         0       9       0       0       0
  6999 ;;      Temps:          4       0       0       0       0
  7000 ;;      Totals:         6       9       0       0       0
  7001 ;;Total ram usage:       15 bytes
  7002 ;; Hardware stack levels used:    1
  7003 ;; This function calls:
  7004 ;;		Nothing
  7005 ;; This function is called by:
  7006 ;;		_ar1000_init
  7007 ;;		_setAR1000
  7008 ;; This function uses a non-reentrant model
  7009 ;;
  7010                           psect	text632
  7011                           	file	"C:\Users\Phang\Desktop\9.80\PR 31\i2c_ar1000.c"
  7012                           	line	83
  7013                           	global	__size_of_ar_i2c_read
  7014  0148                     	__size_of_ar_i2c_read	equ	__end_of_ar_i2c_read-_ar_i2c_read
  7015                           	
  7016  03CE                     _ar_i2c_read:	
  7017                           	opt	stack 4
  7018                           ; Regs used in _ar_i2c_read: [wreg+status,2+status,0+btemp+1]
  7019                           ;ar_i2c_read@ar_slave_address stored from wreg
  7020                           	line	85
  7021  03CE  1283               	bcf	status, 5	;RP0=0, select bank0
  7022  03CF  1303               	bcf	status, 6	;RP1=0, select bank0
  7023  03D0  00A4               	movwf	(ar_i2c_read@ar_slave_address)
  7024                           	
  7025  03D1                     l3302:	
  7026                           ;i2c_ar1000.c: 85: unsigned char ar_received_byte1=0, ar_received_byte2=0;
  7027  03D1  1003               	clrc
  7028  03D2  3000               	movlw	0
  7029  03D3  1803               	btfsc	status,0
  7030  03D4  3001               	movlw	1
  7031  03D5  00A2               	movwf	(ar_i2c_read@ar_received_byte1)
  7032  03D6  1003               	clrc
  7033  03D7  3000               	movlw	0
  7034  03D8  1803               	btfsc	status,0
  7035  03D9  3001               	movlw	1
  7036  03DA  00A3               	movwf	(ar_i2c_read@ar_received_byte2)
  7037                           	line	86
  7038                           	
  7039  03DB                     l3304:	
  7040                           ;i2c_ar1000.c: 86: unsigned int ar_received_byte=0;
  7041  03DB  3000               	movlw	low(0)
  7042  03DC  00A0               	movwf	(ar_i2c_read@ar_received_byte)
  7043  03DD  3000               	movlw	high(0)
  7044  03DE  00A1               	movwf	((ar_i2c_read@ar_received_byte))+1
  7045                           	line	90
  7046                           	
  7047  03DF                     l3306:	
  7048                           ;i2c_ar1000.c: 90: SEN = 1;
  7049  03DF  1683               	bsf	status, 5	;RP0=1, select bank1
  7050  03E0  1303               	bcf	status, 6	;RP1=0, select bank1
  7051  03E1  1411               	bsf	(1160/8)^080h,(1160)&7
  7052                           	line	91
  7053                           ;i2c_ar1000.c: 91: while (SEN == 1);
  7054  03E2  2BE3               	goto	l562
  7055                           	
  7056  03E3                     l563:	
  7057                           	
  7058  03E3                     l562:	
  7059  03E3  1811               	btfsc	(1160/8)^080h,(1160)&7
  7060  03E4  2BE6               	goto	u3111
  7061  03E5  2BE7               	goto	u3110
  7062  03E6                     u3111:
  7063  03E6  2BE3               	goto	l562
  7064  03E7                     u3110:
  7065  03E7  2BE8               	goto	l3308
  7066                           	
  7067  03E8                     l564:	
  7068                           	line	94
  7069                           	
  7070  03E8                     l3308:	
  7071                           ;i2c_ar1000.c: 94: SSPBUF = ar_slave_address | 0x00;
  7072  03E8  1283               	bcf	status, 5	;RP0=0, select bank0
  7073  03E9  1303               	bcf	status, 6	;RP1=0, select bank0
  7074  03EA  0824               	movf	(ar_i2c_read@ar_slave_address),w
  7075  03EB  0093               	movwf	(19)	;volatile
  7076                           	line	97
  7077                           ;i2c_ar1000.c: 97: while (RW == 1);
  7078  03EC  2BED               	goto	l565
  7079                           	
  7080  03ED                     l566:	
  7081                           	
  7082  03ED                     l565:	
  7083  03ED  1683               	bsf	status, 5	;RP0=1, select bank1
  7084  03EE  1303               	bcf	status, 6	;RP1=0, select bank1
  7085  03EF  1914               	btfsc	(1186/8)^080h,(1186)&7
  7086  03F0  2BF2               	goto	u3121
  7087  03F1  2BF3               	goto	u3120
  7088  03F2                     u3121:
  7089  03F2  2BED               	goto	l565
  7090  03F3                     u3120:
  7091                           	
  7092  03F3                     l567:	
  7093                           	line	100
  7094                           ;i2c_ar1000.c: 100: if (ACKSTAT == 1) {
  7095  03F3  1F11               	btfss	(1166/8)^080h,(1166)&7
  7096  03F4  2BF6               	goto	u3131
  7097  03F5  2BF7               	goto	u3130
  7098  03F6                     u3131:
  7099  03F6  2C04               	goto	l3316
  7100  03F7                     u3130:
  7101                           	line	102
  7102                           	
  7103  03F7                     l3310:	
  7104                           ;i2c_ar1000.c: 102: PEN = 1;
  7105  03F7  1511               	bsf	(1162/8)^080h,(1162)&7
  7106                           	line	103
  7107                           ;i2c_ar1000.c: 103: while (PEN == 1);
  7108  03F8  2BF9               	goto	l569
  7109                           	
  7110  03F9                     l570:	
  7111                           	
  7112  03F9                     l569:	
  7113  03F9  1911               	btfsc	(1162/8)^080h,(1162)&7
  7114  03FA  2BFC               	goto	u3141
  7115  03FB  2BFD               	goto	u3140
  7116  03FC                     u3141:
  7117  03FC  2BF9               	goto	l569
  7118  03FD                     u3140:
  7119  03FD  2BFE               	goto	l3312
  7120                           	
  7121  03FE                     l571:	
  7122                           	line	105
  7123                           	
  7124  03FE                     l3312:	
  7125                           ;i2c_ar1000.c: 105: return 0;
  7126  03FE  3000               	movlw	low(0)
  7127  03FF  00F0               	movwf	(?_ar_i2c_read)
  7128  0400  3000               	movlw	high(0)
  7129  0401  00F1               	movwf	((?_ar_i2c_read))+1
  7130  0402  2D15               	goto	l572
  7131                           	
  7132  0403                     l3314:	
  7133  0403  2D15               	goto	l572
  7134                           	line	106
  7135                           	
  7136  0404                     l568:	
  7137                           	line	109
  7138                           	
  7139  0404                     l3316:	
  7140                           ;i2c_ar1000.c: 106: }
  7141                           ;i2c_ar1000.c: 109: SSPBUF = ar_register;
  7142  0404  0870               	movf	(ar_i2c_read@ar_register),w
  7143  0405  1283               	bcf	status, 5	;RP0=0, select bank0
  7144  0406  1303               	bcf	status, 6	;RP1=0, select bank0
  7145  0407  0093               	movwf	(19)	;volatile
  7146                           	line	112
  7147                           ;i2c_ar1000.c: 112: while (RW == 1);
  7148  0408  2C09               	goto	l573
  7149                           	
  7150  0409                     l574:	
  7151                           	
  7152  0409                     l573:	
  7153  0409  1683               	bsf	status, 5	;RP0=1, select bank1
  7154  040A  1303               	bcf	status, 6	;RP1=0, select bank1
  7155  040B  1914               	btfsc	(1186/8)^080h,(1186)&7
  7156  040C  2C0E               	goto	u3151
  7157  040D  2C0F               	goto	u3150
  7158  040E                     u3151:
  7159  040E  2C09               	goto	l573
  7160  040F                     u3150:
  7161                           	
  7162  040F                     l575:	
  7163                           	line	115
  7164                           ;i2c_ar1000.c: 115: if (ACKSTAT == 1) {
  7165  040F  1F11               	btfss	(1166/8)^080h,(1166)&7
  7166  0410  2C12               	goto	u3161
  7167  0411  2C13               	goto	u3160
  7168  0412                     u3161:
  7169  0412  2C20               	goto	l576
  7170  0413                     u3160:
  7171                           	line	117
  7172                           	
  7173  0413                     l3318:	
  7174                           ;i2c_ar1000.c: 117: PEN = 1;
  7175  0413  1511               	bsf	(1162/8)^080h,(1162)&7
  7176                           	line	118
  7177                           ;i2c_ar1000.c: 118: while (PEN == 1);
  7178  0414  2C15               	goto	l577
  7179                           	
  7180  0415                     l578:	
  7181                           	
  7182  0415                     l577:	
  7183  0415  1911               	btfsc	(1162/8)^080h,(1162)&7
  7184  0416  2C18               	goto	u3171
  7185  0417  2C19               	goto	u3170
  7186  0418                     u3171:
  7187  0418  2C15               	goto	l577
  7188  0419                     u3170:
  7189  0419  2C1A               	goto	l3320
  7190                           	
  7191  041A                     l579:	
  7192                           	line	120
  7193                           	
  7194  041A                     l3320:	
  7195                           ;i2c_ar1000.c: 120: return 0;
  7196  041A  3000               	movlw	low(0)
  7197  041B  00F0               	movwf	(?_ar_i2c_read)
  7198  041C  3000               	movlw	high(0)
  7199  041D  00F1               	movwf	((?_ar_i2c_read))+1
  7200  041E  2D15               	goto	l572
  7201                           	
  7202  041F                     l3322:	
  7203  041F  2D15               	goto	l572
  7204                           	line	121
  7205                           	
  7206  0420                     l576:	
  7207                           	line	126
  7208                           ;i2c_ar1000.c: 121: }
  7209                           ;i2c_ar1000.c: 126: RSEN = 1;
  7210  0420  1491               	bsf	(1161/8)^080h,(1161)&7
  7211                           	line	127
  7212                           ;i2c_ar1000.c: 127: while (RSEN == 1);
  7213  0421  2C22               	goto	l580
  7214                           	
  7215  0422                     l581:	
  7216                           	
  7217  0422                     l580:	
  7218  0422  1891               	btfsc	(1161/8)^080h,(1161)&7
  7219  0423  2C25               	goto	u3181
  7220  0424  2C26               	goto	u3180
  7221  0425                     u3181:
  7222  0425  2C22               	goto	l580
  7223  0426                     u3180:
  7224  0426  2C27               	goto	l3324
  7225                           	
  7226  0427                     l582:	
  7227                           	line	130
  7228                           	
  7229  0427                     l3324:	
  7230                           ;i2c_ar1000.c: 130: SSPBUF = ar_slave_address | 0x01;
  7231  0427  1283               	bcf	status, 5	;RP0=0, select bank0
  7232  0428  1303               	bcf	status, 6	;RP1=0, select bank0
  7233  0429  0824               	movf	(ar_i2c_read@ar_slave_address),w
  7234  042A  3801               	iorlw	01h
  7235  042B  0093               	movwf	(19)	;volatile
  7236                           	line	133
  7237                           ;i2c_ar1000.c: 133: while (RW == 1);
  7238  042C  2C2D               	goto	l583
  7239                           	
  7240  042D                     l584:	
  7241                           	
  7242  042D                     l583:	
  7243  042D  1683               	bsf	status, 5	;RP0=1, select bank1
  7244  042E  1303               	bcf	status, 6	;RP1=0, select bank1
  7245  042F  1914               	btfsc	(1186/8)^080h,(1186)&7
  7246  0430  2C32               	goto	u3191
  7247  0431  2C33               	goto	u3190
  7248  0432                     u3191:
  7249  0432  2C2D               	goto	l583
  7250  0433                     u3190:
  7251                           	
  7252  0433                     l585:	
  7253                           	line	136
  7254                           ;i2c_ar1000.c: 136: if (ACKSTAT == 1) {
  7255  0433  1F11               	btfss	(1166/8)^080h,(1166)&7
  7256  0434  2C36               	goto	u3201
  7257  0435  2C37               	goto	u3200
  7258  0436                     u3201:
  7259  0436  2C44               	goto	l586
  7260  0437                     u3200:
  7261                           	line	138
  7262                           	
  7263  0437                     l3326:	
  7264                           ;i2c_ar1000.c: 138: PEN = 1;
  7265  0437  1511               	bsf	(1162/8)^080h,(1162)&7
  7266                           	line	139
  7267                           ;i2c_ar1000.c: 139: while (PEN == 1);
  7268  0438  2C39               	goto	l587
  7269                           	
  7270  0439                     l588:	
  7271                           	
  7272  0439                     l587:	
  7273  0439  1911               	btfsc	(1162/8)^080h,(1162)&7
  7274  043A  2C3C               	goto	u3211
  7275  043B  2C3D               	goto	u3210
  7276  043C                     u3211:
  7277  043C  2C39               	goto	l587
  7278  043D                     u3210:
  7279  043D  2C3E               	goto	l3328
  7280                           	
  7281  043E                     l589:	
  7282                           	line	141
  7283                           	
  7284  043E                     l3328:	
  7285                           ;i2c_ar1000.c: 141: return 0;
  7286  043E  3000               	movlw	low(0)
  7287  043F  00F0               	movwf	(?_ar_i2c_read)
  7288  0440  3000               	movlw	high(0)
  7289  0441  00F1               	movwf	((?_ar_i2c_read))+1
  7290  0442  2D15               	goto	l572
  7291                           	
  7292  0443                     l3330:	
  7293  0443  2D15               	goto	l572
  7294                           	line	142
  7295                           	
  7296  0444                     l586:	
  7297                           	line	145
  7298                           ;i2c_ar1000.c: 142: }
  7299                           ;i2c_ar1000.c: 145: RCEN = 1;
  7300  0444  1591               	bsf	(1163/8)^080h,(1163)&7
  7301                           	line	148
  7302                           	
  7303  0445                     l3332:	
  7304                           ;i2c_ar1000.c: 148: unsigned long count = 10000L;
  7305  0445  3000               	movlw	0
  7306  0446  1283               	bcf	status, 5	;RP0=0, select bank0
  7307  0447  1303               	bcf	status, 6	;RP1=0, select bank0
  7308  0448  00A8               	movwf	(ar_i2c_read@count+3)
  7309  0449  3000               	movlw	0
  7310  044A  00A7               	movwf	(ar_i2c_read@count+2)
  7311  044B  3027               	movlw	027h
  7312  044C  00A6               	movwf	(ar_i2c_read@count+1)
  7313  044D  3010               	movlw	010h
  7314  044E  00A5               	movwf	(ar_i2c_read@count)
  7315                           
  7316                           	line	149
  7317                           ;i2c_ar1000.c: 149: while (BF == 0) {
  7318  044F  2C84               	goto	l590
  7319                           	
  7320  0450                     l591:	
  7321                           	line	152
  7322                           	
  7323  0450                     l3334:	
  7324                           ;i2c_ar1000.c: 152: if (--count == 0) {
  7325  0450  3001               	movlw	01h
  7326  0451  00F2               	movwf	((??_ar_i2c_read+0)+0)
  7327  0452  3000               	movlw	0
  7328  0453  00F3               	movwf	((??_ar_i2c_read+0)+0+1)
  7329  0454  3000               	movlw	0
  7330  0455  00F4               	movwf	((??_ar_i2c_read+0)+0+2)
  7331  0456  3000               	movlw	0
  7332  0457  00F5               	movwf	((??_ar_i2c_read+0)+0+3)
  7333  0458  0872               	movf	0+(??_ar_i2c_read+0)+0,w
  7334  0459  1283               	bcf	status, 5	;RP0=0, select bank0
  7335  045A  02A5               	subwf	(ar_i2c_read@count),f
  7336  045B  0873               	movf	1+(??_ar_i2c_read+0)+0,w
  7337  045C  1C03               	skipc
  7338  045D  0F73               	incfsz	1+(??_ar_i2c_read+0)+0,w
  7339  045E  2C60               	goto	u3225
  7340  045F  2C61               	goto	u3226
  7341  0460                     u3225:
  7342  0460  02A6               	subwf	(ar_i2c_read@count+1),f
  7343  0461                     u3226:
  7344  0461  0874               	movf	2+(??_ar_i2c_read+0)+0,w
  7345  0462  1C03               	skipc
  7346  0463  0F74               	incfsz	2+(??_ar_i2c_read+0)+0,w
  7347  0464  2C66               	goto	u3227
  7348  0465  2C67               	goto	u3228
  7349  0466                     u3227:
  7350  0466  02A7               	subwf	(ar_i2c_read@count+2),f
  7351  0467                     u3228:
  7352  0467  0875               	movf	3+(??_ar_i2c_read+0)+0,w
  7353  0468  1C03               	skipc
  7354  0469  0F75               	incfsz	3+(??_ar_i2c_read+0)+0,w
  7355  046A  2C6C               	goto	u3229
  7356  046B  2C6D               	goto	u3220
  7357  046C                     u3229:
  7358  046C  02A8               	subwf	(ar_i2c_read@count+3),f
  7359  046D                     u3220:
  7360                           
  7361  046D  0828               	movf	((ar_i2c_read@count+3)),w
  7362  046E  0427               	iorwf	((ar_i2c_read@count+2)),w
  7363  046F  0426               	iorwf	((ar_i2c_read@count+1)),w
  7364  0470  0425               	iorwf	((ar_i2c_read@count)),w
  7365  0471  1D03               	skipz
  7366  0472  2C74               	goto	u3231
  7367  0473  2C75               	goto	u3230
  7368  0474                     u3231:
  7369  0474  2C84               	goto	l590
  7370  0475                     u3230:
  7371                           	line	154
  7372                           	
  7373  0475                     l3336:	
  7374                           ;i2c_ar1000.c: 154: PEN = 1;
  7375  0475  1683               	bsf	status, 5	;RP0=1, select bank1
  7376  0476  1303               	bcf	status, 6	;RP1=0, select bank1
  7377  0477  1511               	bsf	(1162/8)^080h,(1162)&7
  7378                           	line	155
  7379                           ;i2c_ar1000.c: 155: while (PEN == 1);
  7380  0478  2C79               	goto	l593
  7381                           	
  7382  0479                     l594:	
  7383                           	
  7384  0479                     l593:	
  7385  0479  1911               	btfsc	(1162/8)^080h,(1162)&7
  7386  047A  2C7C               	goto	u3241
  7387  047B  2C7D               	goto	u3240
  7388  047C                     u3241:
  7389  047C  2C79               	goto	l593
  7390  047D                     u3240:
  7391  047D  2C7E               	goto	l3338
  7392                           	
  7393  047E                     l595:	
  7394                           	line	157
  7395                           	
  7396  047E                     l3338:	
  7397                           ;i2c_ar1000.c: 157: return 0;
  7398  047E  3000               	movlw	low(0)
  7399  047F  00F0               	movwf	(?_ar_i2c_read)
  7400  0480  3000               	movlw	high(0)
  7401  0481  00F1               	movwf	((?_ar_i2c_read))+1
  7402  0482  2D15               	goto	l572
  7403                           	
  7404  0483                     l3340:	
  7405  0483  2D15               	goto	l572
  7406                           	line	158
  7407                           	
  7408  0484                     l592:	
  7409                           	line	159
  7410                           	
  7411  0484                     l590:	
  7412                           	line	149
  7413  0484  1683               	bsf	status, 5	;RP0=1, select bank1
  7414  0485  1303               	bcf	status, 6	;RP1=0, select bank1
  7415  0486  1C14               	btfss	(1184/8)^080h,(1184)&7
  7416  0487  2C89               	goto	u3251
  7417  0488  2C8A               	goto	u3250
  7418  0489                     u3251:
  7419  0489  2C50               	goto	l3334
  7420  048A                     u3250:
  7421  048A  2C8B               	goto	l3342
  7422                           	
  7423  048B                     l596:	
  7424                           	line	162
  7425                           	
  7426  048B                     l3342:	
  7427                           ;i2c_ar1000.c: 158: }
  7428                           ;i2c_ar1000.c: 159: }
  7429                           ;i2c_ar1000.c: 162: ar_received_byte1 = SSPBUF;
  7430  048B  1283               	bcf	status, 5	;RP0=0, select bank0
  7431  048C  1303               	bcf	status, 6	;RP1=0, select bank0
  7432  048D  0813               	movf	(19),w	;volatile
  7433  048E  00F2               	movwf	(??_ar_i2c_read+0)+0
  7434  048F  0872               	movf	(??_ar_i2c_read+0)+0,w
  7435  0490  00A2               	movwf	(ar_i2c_read@ar_received_byte1)
  7436                           	line	165
  7437                           	
  7438  0491                     l3344:	
  7439                           ;i2c_ar1000.c: 165: ACKDT = 0;
  7440  0491  1683               	bsf	status, 5	;RP0=1, select bank1
  7441  0492  1303               	bcf	status, 6	;RP1=0, select bank1
  7442  0493  1291               	bcf	(1165/8)^080h,(1165)&7
  7443                           	line	166
  7444                           	
  7445  0494                     l3346:	
  7446                           ;i2c_ar1000.c: 166: ACKEN = 1;
  7447  0494  1611               	bsf	(1164/8)^080h,(1164)&7
  7448                           	line	167
  7449                           ;i2c_ar1000.c: 167: while (ACKEN == 1);
  7450  0495  2C96               	goto	l597
  7451                           	
  7452  0496                     l598:	
  7453                           	
  7454  0496                     l597:	
  7455  0496  1A11               	btfsc	(1164/8)^080h,(1164)&7
  7456  0497  2C99               	goto	u3261
  7457  0498  2C9A               	goto	u3260
  7458  0499                     u3261:
  7459  0499  2C96               	goto	l597
  7460  049A                     u3260:
  7461                           	
  7462  049A                     l599:	
  7463                           	line	168
  7464                           ;i2c_ar1000.c: 168: RCEN = 1;
  7465  049A  1591               	bsf	(1163/8)^080h,(1163)&7
  7466                           	line	170
  7467                           	
  7468  049B                     l3348:	
  7469                           ;i2c_ar1000.c: 170: unsigned long count = 10000L;
  7470  049B  3000               	movlw	0
  7471  049C  1283               	bcf	status, 5	;RP0=0, select bank0
  7472  049D  1303               	bcf	status, 6	;RP1=0, select bank0
  7473  049E  00A8               	movwf	(ar_i2c_read@count+3)
  7474  049F  3000               	movlw	0
  7475  04A0  00A7               	movwf	(ar_i2c_read@count+2)
  7476  04A1  3027               	movlw	027h
  7477  04A2  00A6               	movwf	(ar_i2c_read@count+1)
  7478  04A3  3010               	movlw	010h
  7479  04A4  00A5               	movwf	(ar_i2c_read@count)
  7480                           
  7481                           	line	171
  7482                           ;i2c_ar1000.c: 171: while (BF == 0) {
  7483  04A5  2CDA               	goto	l600
  7484                           	
  7485  04A6                     l601:	
  7486                           	line	174
  7487                           	
  7488  04A6                     l3350:	
  7489                           ;i2c_ar1000.c: 174: if (--count == 0) {
  7490  04A6  3001               	movlw	01h
  7491  04A7  00F2               	movwf	((??_ar_i2c_read+0)+0)
  7492  04A8  3000               	movlw	0
  7493  04A9  00F3               	movwf	((??_ar_i2c_read+0)+0+1)
  7494  04AA  3000               	movlw	0
  7495  04AB  00F4               	movwf	((??_ar_i2c_read+0)+0+2)
  7496  04AC  3000               	movlw	0
  7497  04AD  00F5               	movwf	((??_ar_i2c_read+0)+0+3)
  7498  04AE  0872               	movf	0+(??_ar_i2c_read+0)+0,w
  7499  04AF  1283               	bcf	status, 5	;RP0=0, select bank0
  7500  04B0  02A5               	subwf	(ar_i2c_read@count),f
  7501  04B1  0873               	movf	1+(??_ar_i2c_read+0)+0,w
  7502  04B2  1C03               	skipc
  7503  04B3  0F73               	incfsz	1+(??_ar_i2c_read+0)+0,w
  7504  04B4  2CB6               	goto	u3275
  7505  04B5  2CB7               	goto	u3276
  7506  04B6                     u3275:
  7507  04B6  02A6               	subwf	(ar_i2c_read@count+1),f
  7508  04B7                     u3276:
  7509  04B7  0874               	movf	2+(??_ar_i2c_read+0)+0,w
  7510  04B8  1C03               	skipc
  7511  04B9  0F74               	incfsz	2+(??_ar_i2c_read+0)+0,w
  7512  04BA  2CBC               	goto	u3277
  7513  04BB  2CBD               	goto	u3278
  7514  04BC                     u3277:
  7515  04BC  02A7               	subwf	(ar_i2c_read@count+2),f
  7516  04BD                     u3278:
  7517  04BD  0875               	movf	3+(??_ar_i2c_read+0)+0,w
  7518  04BE  1C03               	skipc
  7519  04BF  0F75               	incfsz	3+(??_ar_i2c_read+0)+0,w
  7520  04C0  2CC2               	goto	u3279
  7521  04C1  2CC3               	goto	u3270
  7522  04C2                     u3279:
  7523  04C2  02A8               	subwf	(ar_i2c_read@count+3),f
  7524  04C3                     u3270:
  7525                           
  7526  04C3  0828               	movf	((ar_i2c_read@count+3)),w
  7527  04C4  0427               	iorwf	((ar_i2c_read@count+2)),w
  7528  04C5  0426               	iorwf	((ar_i2c_read@count+1)),w
  7529  04C6  0425               	iorwf	((ar_i2c_read@count)),w
  7530  04C7  1D03               	skipz
  7531  04C8  2CCA               	goto	u3281
  7532  04C9  2CCB               	goto	u3280
  7533  04CA                     u3281:
  7534  04CA  2CDA               	goto	l600
  7535  04CB                     u3280:
  7536                           	line	176
  7537                           	
  7538  04CB                     l3352:	
  7539                           ;i2c_ar1000.c: 176: PEN = 1;
  7540  04CB  1683               	bsf	status, 5	;RP0=1, select bank1
  7541  04CC  1303               	bcf	status, 6	;RP1=0, select bank1
  7542  04CD  1511               	bsf	(1162/8)^080h,(1162)&7
  7543                           	line	177
  7544                           ;i2c_ar1000.c: 177: while (PEN == 1);
  7545  04CE  2CCF               	goto	l603
  7546                           	
  7547  04CF                     l604:	
  7548                           	
  7549  04CF                     l603:	
  7550  04CF  1911               	btfsc	(1162/8)^080h,(1162)&7
  7551  04D0  2CD2               	goto	u3291
  7552  04D1  2CD3               	goto	u3290
  7553  04D2                     u3291:
  7554  04D2  2CCF               	goto	l603
  7555  04D3                     u3290:
  7556  04D3  2CD4               	goto	l3354
  7557                           	
  7558  04D4                     l605:	
  7559                           	line	179
  7560                           	
  7561  04D4                     l3354:	
  7562                           ;i2c_ar1000.c: 179: return 0;
  7563  04D4  3000               	movlw	low(0)
  7564  04D5  00F0               	movwf	(?_ar_i2c_read)
  7565  04D6  3000               	movlw	high(0)
  7566  04D7  00F1               	movwf	((?_ar_i2c_read))+1
  7567  04D8  2D15               	goto	l572
  7568                           	
  7569  04D9                     l3356:	
  7570  04D9  2D15               	goto	l572
  7571                           	line	180
  7572                           	
  7573  04DA                     l602:	
  7574                           	line	181
  7575                           	
  7576  04DA                     l600:	
  7577                           	line	171
  7578  04DA  1683               	bsf	status, 5	;RP0=1, select bank1
  7579  04DB  1303               	bcf	status, 6	;RP1=0, select bank1
  7580  04DC  1C14               	btfss	(1184/8)^080h,(1184)&7
  7581  04DD  2CDF               	goto	u3301
  7582  04DE  2CE0               	goto	u3300
  7583  04DF                     u3301:
  7584  04DF  2CA6               	goto	l3350
  7585  04E0                     u3300:
  7586  04E0  2CE1               	goto	l3358
  7587                           	
  7588  04E1                     l606:	
  7589                           	line	184
  7590                           	
  7591  04E1                     l3358:	
  7592                           ;i2c_ar1000.c: 180: }
  7593                           ;i2c_ar1000.c: 181: }
  7594                           ;i2c_ar1000.c: 184: ar_received_byte2 = SSPBUF;
  7595  04E1  1283               	bcf	status, 5	;RP0=0, select bank0
  7596  04E2  1303               	bcf	status, 6	;RP1=0, select bank0
  7597  04E3  0813               	movf	(19),w	;volatile
  7598  04E4  00F2               	movwf	(??_ar_i2c_read+0)+0
  7599  04E5  0872               	movf	(??_ar_i2c_read+0)+0,w
  7600  04E6  00A3               	movwf	(ar_i2c_read@ar_received_byte2)
  7601                           	line	187
  7602                           	
  7603  04E7                     l3360:	
  7604                           ;i2c_ar1000.c: 187: ACKDT = 1;
  7605  04E7  1683               	bsf	status, 5	;RP0=1, select bank1
  7606  04E8  1303               	bcf	status, 6	;RP1=0, select bank1
  7607  04E9  1691               	bsf	(1165/8)^080h,(1165)&7
  7608                           	line	188
  7609                           	
  7610  04EA                     l3362:	
  7611                           ;i2c_ar1000.c: 188: ACKEN = 1;
  7612  04EA  1611               	bsf	(1164/8)^080h,(1164)&7
  7613                           	line	189
  7614                           ;i2c_ar1000.c: 189: while (ACKEN == 1);
  7615  04EB  2CEC               	goto	l607
  7616                           	
  7617  04EC                     l608:	
  7618                           	
  7619  04EC                     l607:	
  7620  04EC  1A11               	btfsc	(1164/8)^080h,(1164)&7
  7621  04ED  2CEF               	goto	u3311
  7622  04EE  2CF0               	goto	u3310
  7623  04EF                     u3311:
  7624  04EF  2CEC               	goto	l607
  7625  04F0                     u3310:
  7626                           	
  7627  04F0                     l609:	
  7628                           	line	192
  7629                           ;i2c_ar1000.c: 192: PEN = 1;
  7630  04F0  1511               	bsf	(1162/8)^080h,(1162)&7
  7631                           	line	193
  7632                           ;i2c_ar1000.c: 193: while (PEN == 1);
  7633  04F1  2CF2               	goto	l610
  7634                           	
  7635  04F2                     l611:	
  7636                           	
  7637  04F2                     l610:	
  7638  04F2  1911               	btfsc	(1162/8)^080h,(1162)&7
  7639  04F3  2CF5               	goto	u3321
  7640  04F4  2CF6               	goto	u3320
  7641  04F5                     u3321:
  7642  04F5  2CF2               	goto	l610
  7643  04F6                     u3320:
  7644  04F6  2CF7               	goto	l3364
  7645                           	
  7646  04F7                     l612:	
  7647                           	line	195
  7648                           	
  7649  04F7                     l3364:	
  7650                           ;i2c_ar1000.c: 195: ar_received_byte = (ar_received_byte1 << 8);
  7651  04F7  1283               	bcf	status, 5	;RP0=0, select bank0
  7652  04F8  1303               	bcf	status, 6	;RP1=0, select bank0
  7653  04F9  0822               	movf	(ar_i2c_read@ar_received_byte1),w
  7654  04FA  00F2               	movwf	(??_ar_i2c_read+0)+0
  7655  04FB  01F3               	clrf	(??_ar_i2c_read+0)+0+1
  7656  04FC  3008               	movlw	08h
  7657  04FD  00FF               	movwf	btemp+1
  7658  04FE                     u3335:
  7659  04FE  1003               	clrc
  7660  04FF  0DF2               	rlf	(??_ar_i2c_read+0)+0,f
  7661  0500  0DF3               	rlf	(??_ar_i2c_read+0)+1,f
  7662  0501  0BFF               	decfsz	btemp+1,f
  7663  0502  2CFE               	goto	u3335
  7664  0503  0872               	movf	0+(??_ar_i2c_read+0)+0,w
  7665  0504  00A0               	movwf	(ar_i2c_read@ar_received_byte)
  7666  0505  0873               	movf	1+(??_ar_i2c_read+0)+0,w
  7667  0506  00A1               	movwf	(ar_i2c_read@ar_received_byte+1)
  7668                           	line	196
  7669                           	
  7670  0507                     l3366:	
  7671                           ;i2c_ar1000.c: 196: ar_received_byte |= ar_received_byte2;
  7672  0507  0823               	movf	(ar_i2c_read@ar_received_byte2),w
  7673  0508  00F2               	movwf	(??_ar_i2c_read+0)+0
  7674  0509  01F3               	clrf	(??_ar_i2c_read+0)+0+1
  7675  050A  0872               	movf	0+(??_ar_i2c_read+0)+0,w
  7676  050B  04A0               	iorwf	(ar_i2c_read@ar_received_byte),f
  7677  050C  0873               	movf	1+(??_ar_i2c_read+0)+0,w
  7678  050D  04A1               	iorwf	(ar_i2c_read@ar_received_byte+1),f
  7679                           	line	199
  7680                           	
  7681  050E                     l3368:	
  7682                           ;i2c_ar1000.c: 199: return ar_received_byte;
  7683  050E  0821               	movf	(ar_i2c_read@ar_received_byte+1),w
  7684  050F  01F1               	clrf	(?_ar_i2c_read+1)
  7685  0510  07F1               	addwf	(?_ar_i2c_read+1)
  7686  0511  0820               	movf	(ar_i2c_read@ar_received_byte),w
  7687  0512  01F0               	clrf	(?_ar_i2c_read)
  7688  0513  07F0               	addwf	(?_ar_i2c_read)
  7689                           
  7690  0514  2D15               	goto	l572
  7691                           	
  7692  0515                     l3370:	
  7693                           	line	201
  7694                           	
  7695  0515                     l572:	
  7696  0515  0008               	return
  7697                           	opt stack 0
  7698                           GLOBAL	__end_of_ar_i2c_read
  7699  0516                     	__end_of_ar_i2c_read:
  7700 ;; =============== function _ar_i2c_read ends ============
  7701                           
  7702                           	signat	_ar_i2c_read,8314
  7703                           	global	_ar_i2c_initialize
  7704                           psect	text633,local,class=CODE,delta=2
  7705                           global __ptext633
  7706  0AE0                     __ptext633:
  7707                           
  7708 ;; *************** function _ar_i2c_initialize *****************
  7709 ;; Defined at:
  7710 ;;		line 39 in file "C:\Users\Phang\Desktop\9.80\PR 31\i2c_ar1000.c"
  7711 ;; Parameters:    Size  Location     Type
  7712 ;;		None
  7713 ;; Auto vars:     Size  Location     Type
  7714 ;;		None
  7715 ;; Return value:  Size  Location     Type
  7716 ;;		None               void
  7717 ;; Registers used:
  7718 ;;		wreg
  7719 ;; Tracked objects:
  7720 ;;		On entry : 0/0
  7721 ;;		On exit  : 0/0
  7722 ;;		Unchanged: 0/0
  7723 ;; Data sizes:     COMMON   BANK0   BANK1   BANK3   BANK2
  7724 ;;      Params:         0       0       0       0       0
  7725 ;;      Locals:         0       0       0       0       0
  7726 ;;      Temps:          0       0       0       0       0
  7727 ;;      Totals:         0       0       0       0       0
  7728 ;;Total ram usage:        0 bytes
  7729 ;; Hardware stack levels used:    1
  7730 ;; This function calls:
  7731 ;;		Nothing
  7732 ;; This function is called by:
  7733 ;;		_main
  7734 ;; This function uses a non-reentrant model
  7735 ;;
  7736                           psect	text633
  7737                           	file	"C:\Users\Phang\Desktop\9.80\PR 31\i2c_ar1000.c"
  7738                           	line	39
  7739                           	global	__size_of_ar_i2c_initialize
  7740  0010                     	__size_of_ar_i2c_initialize	equ	__end_of_ar_i2c_initialize-_ar_i2c_initialize
  7741                           	
  7742  0AE0                     _ar_i2c_initialize:	
  7743                           	opt	stack 7
  7744                           ; Regs used in _ar_i2c_initialize: [wreg]
  7745                           	line	41
  7746                           	
  7747  0AE0                     l3284:	
  7748                           ;i2c_ar1000.c: 41: TRISC3 = 1;
  7749  0AE0  1683               	bsf	status, 5	;RP0=1, select bank1
  7750  0AE1  1303               	bcf	status, 6	;RP1=0, select bank1
  7751  0AE2  1587               	bsf	(1083/8)^080h,(1083)&7
  7752                           	line	42
  7753                           ;i2c_ar1000.c: 42: TRISC4 = 1;
  7754  0AE3  1607               	bsf	(1084/8)^080h,(1084)&7
  7755                           	line	46
  7756                           	
  7757  0AE4                     l3286:	
  7758                           ;i2c_ar1000.c: 46: SSPADD = 12;
  7759  0AE4  300C               	movlw	(0Ch)
  7760  0AE5  0093               	movwf	(147)^080h	;volatile
  7761                           	line	49
  7762                           	
  7763  0AE6                     l3288:	
  7764                           ;i2c_ar1000.c: 49: SSPM3 = 1;
  7765  0AE6  1283               	bcf	status, 5	;RP0=0, select bank0
  7766  0AE7  1303               	bcf	status, 6	;RP1=0, select bank0
  7767  0AE8  1594               	bsf	(163/8),(163)&7
  7768                           	line	50
  7769                           	
  7770  0AE9                     l3290:	
  7771                           ;i2c_ar1000.c: 50: SSPM2 = 0;
  7772  0AE9  1114               	bcf	(162/8),(162)&7
  7773                           	line	51
  7774                           	
  7775  0AEA                     l3292:	
  7776                           ;i2c_ar1000.c: 51: SSPM1 = 0;
  7777  0AEA  1094               	bcf	(161/8),(161)&7
  7778                           	line	52
  7779                           	
  7780  0AEB                     l3294:	
  7781                           ;i2c_ar1000.c: 52: SSPM0 = 0;
  7782  0AEB  1014               	bcf	(160/8),(160)&7
  7783                           	line	55
  7784                           	
  7785  0AEC                     l3296:	
  7786                           ;i2c_ar1000.c: 55: WCOL = 0;
  7787  0AEC  1394               	bcf	(167/8),(167)&7
  7788                           	line	58
  7789                           	
  7790  0AED                     l3298:	
  7791                           ;i2c_ar1000.c: 58: SSPOV = 0;
  7792  0AED  1314               	bcf	(166/8),(166)&7
  7793                           	line	61
  7794                           	
  7795  0AEE                     l3300:	
  7796                           ;i2c_ar1000.c: 61: SSPEN = 1;
  7797  0AEE  1694               	bsf	(165/8),(165)&7
  7798                           	line	64
  7799                           	
  7800  0AEF                     l559:	
  7801  0AEF  0008               	return
  7802                           	opt stack 0
  7803                           GLOBAL	__end_of_ar_i2c_initialize
  7804  0AF0                     	__end_of_ar_i2c_initialize:
  7805 ;; =============== function _ar_i2c_initialize ends ============
  7806                           
  7807                           	signat	_ar_i2c_initialize,88
  7808                           psect	text634,local,class=CODE,delta=2
  7809                           global __ptext634
  7810  0000                     __ptext634:
  7811                           	global	btemp
  7812  007E                     	btemp set 07Eh
  7813                           
  7814                           	DABS	1,126,2	;btemp
  7815                           	global	wtemp0
  7816  007E                     	wtemp0 set btemp


HI-TECH Software PICC Macro Assembler V9.80 build 6738 
Symbol Table                                                                                   Wed Jun 20 23:18:14 2012

                            _i 0067                              _m 0068                              pc 0002  
                           _BF 04A0                             _RD 0C60                             _RW 04A2  
                           _WR 0C61                             _v1 00A0                             _v2 004C  
                           fsr 0004                 send_config@RC4 0078              setAR1000@freq_kHz 0029  
                          l600 04DA                            l601 04A6                            l610 04F2  
                          l602 04DA                            l611 04F2                            l603 04CF  
                          l612 04F7                            l604 04CF                            l620 0EFC  
                          l605 04D4                            l621 0F08                            l606 04E1  
                          l630 0F19                            l622 0F02                            l607 04EC  
                          l631 0F19                            l623 0F02                            l615 0EEC  
                          l608 04EC                            l640 0F3B                            l632 0F1E  
                          l624 0F07                            l616 0EEC                            l609 04F0  
                          l641 0F3B                            l633 0F24                            l625 0F54  
                          l617 0EF1                            l570 03F9                            l562 03E3  
                          l642 0F41                            l634 0F24                            l626 0F0D  
                          l618 0EF6                            l571 03FE                            l563 03E3  
                          l643 0F4D                            l635 0F2A                            l627 0F0D  
                          l619 0EF6                            l580 0422                            l572 0515  
                          l564 03E8                            l644 0F47                            l636 0F36  
                          l628 0F13                            l581 0422                            l573 0409  
                          l565 03ED                            l645 0F47                            l637 0F30  
                          l629 0F1F                            l590 0484                            l582 0427  
                          l574 0409                            l566 03ED                            l646 0F4C  
                          l638 0F30                            l559 0AEF                            l591 0450  
                          l583 042D                            l575 040F                            l567 03F3  
                          l647 0F4F                            l639 0F35                            l592 0484  
                          l584 042D                            l576 0420                            l568 0404  
                          l648 0F4F                            l593 0479                            l585 0433  
                          l577 0415                            l569 03F9                            l649 0F54  
                          l594 0479                            l586 0444                            l578 0415  
                          l595 047E                            l587 0439                            l579 041A  
                          l596 048B                            l588 0439                            l597 0496  
                          l589 043E                            l598 0496                            l599 049A  
                          _RB0 0030                            _RB1 0031                            _RB2 0032  
                          _RB3 0033                            _RB4 0034                            _RB5 0035  
                          _PEN 048A                            _SEN 0488                            _STC 0065  
                  lcd_goto@RC4 007A                            fsr0 0004                            _vol 0069  
                          indf 0000                           l1300 055E                           l1301 0544  
                         l1310 063D                           l1302 0521                           l1311 0630  
                         l1303 0536                           l1400 0C17                           l1320 0645  
                         l1312 05B1                           l1304 054B                           l1321 064A  
                         l1313 0622                           l1305 05A6                           l1410 0AD6  
                         l1402 0C39                           l1322 0667                           l1314 060B  
                         l1306 058C                           l1411 0AD6                           l1403 0C3A  
                         l1331 0DAD                           l1323 0668                           l1315 060B  
                         l1307 0569                           l1412 0ADD                           l1340 0FFF  
                         l1404 0C3A                           l1332 0DE9                           l1324 0668  
                         l1316 0612                           l1308 057E                           l1413 0ADF  
                         l1317 0637                           l1309 0593                           l1430 0BB8  
                         l1350 012A                           l1318 0666                           l1431 0BBD  
                         l1407 0B26                           l1423 0C86                           l1351 016E  
                         l1343 00E2                           l1335 07B8                           l1327 0E91  
                         l1319 0645                           l1432 0BCD                           l1424 0C75  
                         l1360 0190                           l1344 0181                           l1352 0146  
                         l1336 07F2                           l1328 0ECD                           l1280 037B  
                         l1425 0C93                           l1353 0146                           l1345 0113  
                         l1337 07FF                           l1281 0388                           l1426 0C93  
                         l1354 014B                           l1346 013E                           l1290 03CA  
                         l1282 03A0                           l1451 0BCF                           l1435 0BA8  
                         l1363 006B                           l1371 0254                           l1355 015A  
                         l1347 0119                           l1291 03CB                           l1283 0390  
                         l3300 0AEE                           l1452 0BD7                           l1436 0BA8  
                         l1620 0D03                           l1364 009E                           l1372 022E  
                         l1356 0176                           l1348 0119                           l1292 03CB  
                         l1284 0390                           l1453 0BEE                           l1437 0BAD  
                         l1429 0BB8                           l1621 0D13                           l1365 00D8  
                         l1373 025D                           l1357 0190                           l1349 011E  
                         l1285 0395                           l3310 03F7                           l3302 03D1  
                         l1438 0BAD                           l1622 0D1D                           l1366 00B2  
                         l1374 02A1                           l1382 0B3F                           l1358 0188  
                         l1286 03C9                           l1278 0343                           l1615 0D14  
                         l1367 00E1                           l1391 0B82                           l1359 018F  
                         l1295 0D2E                           l1287 03A8                           l1279 0388  
                         l3320 041A                           l3312 03FE                           l3304 03DB  
                         l3400 0BD7                           l1616 0CDC                           l1640 0E4D  
                         l1368 00E1                           l1392 0B8F                           l1296 0D81  
                         l1288 03A8                           l1377 000E                           l1617 0CCE  
                         l1641 0E57                           l1385 0B58                           l1393 0B8F  
                         l1289 03AD                           l3330 0443                           l3322 041F  
                         l3314 0403                           l3306 03DF                           l1378 0033  
                         l3402 0BEE                           l3410 0BA5                           l1618 0CE1  
                         l1634 0E4E                           l1379 0033                           l1619 0CE2  
                         l1635 0E0C                           l1299 0516                           l3340 0483  
                         l3332 0445                           l3324 0427                           l3316 0404  
                         l3308 03E8                           l3412 0BA6                           l3404 0B91  
                         l3420 0BB3                           l1636 0DFE                           l3500 0088  
                         l1388 0C0F                           l1396 0B72                           l1637 0E11  
                         l3350 04A6                           l3342 048B                           l3334 0450  
                         l3326 0437                           l3318 0413                           l3406 0B9D  
                         l3414 0AD5                           l3422 0BB6                           l3430 0CC2  
                         l1638 0E12                           l3510 00CA                           l3502 0090  
                         l1639 0E3D                           l1399 0C28                           l3360 04E7  
                         l3352 04CB                           l3344 0491                           l3336 0475  
                         l3328 043E                           l3408 0BA0                           l3416 0ADD  
                         l3424 0BBD                           l3440 0CF4                           l3432 0CCA  
                         l3512 00D8                           l3504 009E                           l3520 0C86  
                         l3600 0C23                           l3290 0AE9                           l3370 0515  
                         l3362 04EA                           l3354 04D4                           l3346 0494  
                         l3338 047E                           l3426 0BC6                           l3418 0BAF  
                         l3442 0D03                           l3434 0CCE                           l3450 0DEA  
                         l3506 00B2                           l3514 0C68                           l3530 0F98  
                         l3522 0F56                           l3602 0C28                           l3610 0B82  
                         l3292 0AEA                           l3284 0AE0                           l3364 04F7  
                         l3356 04D9                           l3348 049B                           l3380 0F00  
                         l3372 0ECF                           l3428 0BCD                           l3444 0D0C  
                         l3436 0CDC                           l3460 0E1B                           l3452 0DFA  
                         l3508 00C6                           l3516 0C75                           l3532 0FAC  
                         l3524 0F5C                           l3540 0199                           l3604 0C2C  
                         l3612 0B87                           l3620 00EF                           l3700 0D39  
                         l3294 0AEB                           l3286 0AE4                           l3366 0507  
                         l3358 04E1                           l3390 0F36                           l3382 0F08  
                         l3374 0EE4                           l3438 0CE2                           l3446 0D14  
                         l3462 0E2D                           l3454 0DFE                           l3470 0E4E  
                         l3518 0C81                           l3534 0FD6                           l3526 0F5F  
                         l3550 01DF                           l3542 019C                           l3606 0B74  
                         l3614 0B59                           l3630 011E                           l3622 00F5  
                         l3710 0D67                           l3702 0D3F                           l3296 0AEC  
                         l3288 0AE6                           l3368 050E                           l3392 0F45  
                         l3384 0F17                           l3376 0EE8                           l3448 0D1D  
                         l3472 0E57                           l3464 0E3B                           l3456 0E0C  
                         l3480 0B1A                           l3536 0FEA                           l3528 0F6E  
                         l3560 0242                           l3552 01E2                           l3544 01AB  
                         l3608 0B7A                           l3632 0120                           l3640 013E  
                         l3624 00FC                           l3616 00E2                           l3712 0D72  
                         l3704 0D45                           l3720 0E9C                           l3800 0630  
                         l3298 0AED                           l3386 0F1F                           l3378 0EF1  
                         l3394 0004                           l3466 0E3D                           l3458 0E12  
                         l3482 0B1B                           l3474 0B12                           l3490 0034  
                         l3570 0272                           l3562 0246                           l3554 01F6  
                         l3546 01C5                           l3538 0191                           l3650 015A  
                         l3642 0145                           l3634 0126                           l3626 0105  
                         l3618 00E9                           l3706 0D4E                           l3722 0EA2  
                         l3714 0E58                           l3730 0D82                           l3810 0650  
                         l3802 0637                           l3388 0F2E                           l3396 000D  
                         l3468 0E46                           l3484 0B1E                           l3476 0B15  
                         l3492 0056                           l3572 0293                           l3564 0254  
                         l3556 0216                           l3548 01CB                           l3580 0B28  
                         l3652 0160                           l3644 014B                           l3636 012A  
                         l3628 0118                           l3660 0181                           l3708 0D57  
                         l3724 0EA8                           l3716 0E88                           l3740 0DC4  
                         l3732 0DA4                           l3812 0656                           l3804 063D  
                         l3820 02AF                           l3398 000E                           l3486 0B1F  
                         l3478 0B17                           l3494 005C                           l3566 025D  
                         l3558 022E                           l3574 0BEF                           l3582 0B2B  
                         l3590 0B44                           l3662 0188                           l3646 014F  
                         l3654 016E                           l3638 0130                           l3670 0795  
                         l3726 0EB1                           l3718 0E91                           l3742 0DCD  
                         l3734 0DAD                           l3814 065C                           l3806 0644  
                         l3750 0530                           l3830 02BA                           l3822 02B3  
                         l3488 0B20                           l3496 006A                           l3568 0263  
                         l3576 0BF2                           l3584 0B2D                           l3592 0B46  
                         l3656 0175                           l3648 0155                           l3680 07B7  
                         l3672 079B                           l3664 0669                           l3728 0EC0  
                         l3744 0DDC                           l3736 0DB8                           l3816 0660  
                         l3808 064A                           l3752 0536                           l3760 055E  
                         l3840 02FA                           l3832 02E3                           l3824 02B5  
                         l3498 006B                           l3578 0BFF                           l3586 0B3A  
                         l3594 0B53                           l3658 0176                           l3682 07B8  
                         l3674 07A1                           l3666 0754                           l3690 0D1E  
                         l3738 0DBE                           l3770 058C                           l3762 0564  
                         l3754 0544                           l3746 051C                           l3850 032A  
                         l3842 0300                           l3834 02E8                           l3826 02B6  
                         l3818 02A2                           l3588 0B41                           l3596 0C11  
                         l3684 07E0                           l3676 07A7                           l3668 075C  
                         l3692 0D24                           l3780 05B1                           l3772 0593  
                         l3764 0569                           l3756 054B                           l3748 0521  
                         l3860 0343                           l3852 0330                           l3844 0306  
                         l3836 02EE                           l3828 02B9                           l3598 0C17  
                         l3686 07E8                           l3678 07AD                           l3694 0D2A  
                         l3790 05F5                           l3782 05C0                           l3774 0598  
                         l3766 0578                           l3758 0550                           l3870 038F  
                         l3862 0357                           l3854 0336                           l3846 0313  
                         l3838 02F4                           l3688 07F2                           l3696 0D2E  
                         l3792 05FB                           l3784 05D1                           l3768 057E  
                         l3776 05A6                           l3880 03B3                           l3872 0395  
                         l3864 0369                           l3856 033B                           l3848 0324  
                         l3698 0D33                           l3794 0612                           l3786 05D7  
                         l3778 05AC                           l3882 03B9                           l3874 03A0  
                         l3866 037B                           l3858 0342                           l3796 0614  
                         l3788 05EF                           l3884 03BF                           l3876 03A7  
                         l3868 0381                           l3798 0622                           l3886 03C3  
                         l3878 03AD                           STR_1 0863                           STR_2 080D  
                         STR_3 0806                           STR_4 082C                           STR_5 082C  
                         STR_6 083D                           STR_7 083D                           STR_8 081B  
                         STR_9 081B                           _BRGH 04C2                           _CREN 00C4  
                         u3110 03E7                           u3111 03E6                           u3200 0437  
                         u3120 03F3                           u4000 051C                           u3201 0436  
                         u3121 03F2                           u4001 051B                           u3210 043D  
                         u3130 03F7                           u4010 0530                           u3211 043C  
                         u3131 03F6                           u4011 052F                           u3300 04E0  
                         u3220 046D                           u3140 03FD                           u4100 0643  
                         u4020 054A                           u3301 04DF                           u3141 03FC  
                         u4101 0642                           u4021 0549                           u3310 04F0  
                         u3230 0475                           u3150 040F                           u4110 0649  
                         u4030 0564                           u3311 04EF                           u3231 0474  
                         u3151 040E                           u4111 0648                           u4031 0563  
                         u3320 04F6                           u3240 047D                           u3160 0413  
                         u3400 0F17                           u4040 0578                           u4120 0341  
                         u3321 04F5                           u3241 047C                           u3225 0460  
                         u3161 0412                           u3401 0F16                           u4041 0577  
                         u4121 0340                           u3250 048A                           u3226 0461  
                         u3170 0419                           u3410 0F1D                           u4050 0592  
                         u4130 0369                           u3251 0489                           u3227 0466  
                         u3171 0418                           u3411 0F1C                           u4051 0591  
                         u4131 0368                           u3260 049A                           u3228 0467  
                         u3180 0426                           u3420 0F2A                           u3340 0EDD  
                         u3500 002A                           u4060 05AC                           u4140 0387  
                         u3261 0499                           u3229 046C                           u3181 0425  
                         u3421 0F29                           u4061 05AB                           u4141 0386  
                         u3270 04C3                           u3190 0433                           u3430 0F2E  
                         u3350 0EF0                           u3510 0032                           u4070 05C0  
                         u4150 038E                           u3335 04FE                           u3191 0432  
                         u3431 0F2D                           u3351 0EEF                           u3511 0031  
                         u4071 05BF                           u4151 038D                           u4135 0365  
                         u3280 04CB                           u3440 0F34                           u3360 0EFC  
                         u3520 0BD6                           u4080 0611                           u4160 0394  
                         u3281 04CA                           u3441 0F33                           u3361 0EFB  
                         u3345 0ED8                           u3505 001D                           u3521 0BD5  
                         u4081 0610                           u4161 0393                           u3290 04D3  
                         u3450 0F41                           u3370 0F00                           u3506 001E  
                         u3530 0BAC                           u3610 0D12                           u4090 0636  
                         u4170 03A6                           u3291 04D2                           u3275 04B6  
                         u3451 0F40                           u3371 0EFF                           u3507 0023  
                         u3531 0BAB                           u3611 0D11                           u4091 0635  
                         u4171 03A5                           u3276 04B7                           u3460 0F45  
                         u3380 0F06                           u3508 0024                           u3540 0ADC  
                         u3620 0DFA                           u3700 009D                           u4180 03AC  
                         u3277 04BC                           u3461 0F44                           u3381 0F05  
                         u3509 0029                           u3541 0ADB                           u3605 0D04  
                         u3621 0DF9                           u3701 009C                           u4181 03AB  
                         u3278 04BD                           u3470 0F4B                           u3390 0F13  
                         u3550 0BBC                           u3710 00E0                           u3279 04C2  
                         u3471 0F4A                           u3391 0F12                           u3551 0BBB  
                         u3711 00DF                           u3480 0F53                           u3560 0CCA  
                         u3640 0E10                           u3720 0C92                           u3800 0117  
                         u3481 0F52                           u3561 0CC9                           u3641 0E0F  
                         u3705 0099                           u3721 0C91                           u3801 0116  
                         u3490 000C                           u3810 011D                           u3491 000B  
                         u3635 0E00                           u3811 011C                           u3580 0CE0  
                         u3660 0E2D                           u3820 0126                           u3900 0741  
                         u3581 0CDF                           u3661 0E2C                           u3821 0125  
                         u3901 0742                           u3590 0CF4                           u3750 025C  
                         u3830 0144                           u3910 0782                           u3902 0747  
                         u3591 0CF3                           u3575 0CD0                           u3655 0E14  
                         u3735 0F79                           u3751 025B                           u3831 0143  
                         u3911 0783                           u3903 0748                           u3680 0E4C  
                         u3840 014A                           u3920 07B6                           u3912 0788  
                         u3681 0E4B                           u3665 0E29                           u3745 0FB7  
                         u3841 0149                           u3921 07B5                           u3913 0789  
                         u3690 0069                           u3770 0C2C                           u3850 0155  
                         u3595 0CF0                           u3675 0E3E                           u3691 0068  
                         u3851 0154                           u3780 0C38                           u3860 0174  
                         _RCEN 048B                           _RCIF 0065                           u3765 0285  
                         u3781 0C37                           u3861 0173                           u3790 0B7A  
                         u3870 0187                           u3950 07F1                           u3695 0065  
                         u3791 0B79                           u3951 07F0                           u3935 07BB  
                         u3880 0691                           u3960 0D2A                           u3945 07D0  
                         u3881 0692                           u3961 0D29                           u3890 06E9  
                         u3882 0697                           u3970 0E76                           u3891 06EA  
                         u3883 0698                           u3892 06EF                           u3980 0E88  
                         u3893 06F0                           u3981 0E87                           u3990 0DA4  
                         u3975 0E69                           u3991 0DA3                           u3976 0E6A  
                         u3985 0E84                           u3977 0E6F                           u3978 0E70  
                         _OERR 00C1                           u3979 0E75                           u3995 0DA0  
                         _WCOL 00A7                           _SPEN 00C7                           _RSEN 0489  
                         _WREN 0C62                           _TXEN 04C5                           _TXIF 0064  
                         _main 02A2                           btemp 007E                  ??_ar1000_init 0029  
                         start 0000    ar_i2c_read@ar_slave_address 0024           __size_of_ar_i2c_read 0148  
                 ?_eprom_write 0070          __end_of_decrease_chan 0ECE                 _adjust_channel 0516  
                        ?_main 0070                          _ACKEN 048C                          _ACKDT 048D  
                        _EEADR 010D                          STR_10 0852                          STR_11 0849  
                        STR_12 0852                          STR_20 086A                          STR_13 0852  
                        STR_21 086A                          STR_14 085B                          STR_15 085B  
                        STR_16 081B                          STR_17 081B                          STR_18 0852  
                        STR_19 0852                          _EEPGD 0C67                __end_of___lldiv 0E58  
              __end_of___llmod 0D1E                          _RCREG 001A                          _SPBRG 0099  
                        _PORTA 0005                          _PORTB 0006                          _PORTD 0008  
                        _SSPM0 00A0                          _SSPM1 00A1                          _SSPM2 00A2  
                        _SSPM3 00A3                          _TRISA 0085                          _TRISB 0086  
                        _TRISD 0088                          _SSPEN 00A5                          _SSPOV 00A6  
                        _TXREG 0019                __end_of_e_pulse 0C10         __size_of_increase_chan 0068  
              __end_of_lcd_clr 0B73                          _delay 0004                          pclath 000A  
              __end_of_set_vol 1000                __end_of_uart_tx 0AE0                          status 0003  
                        wtemp0 007E         ar_i2c_read@ar_register 0070                   __end_of_main 03CE  
       __end_of_adjust_channel 0669            __end_of_ar1000_init 00E2                         ??_main 0048  
        __size_of_ar_i2c_write 0087                         ?_delay 0070                   ?_send_config 0070  
       eprom_write@channel_adr 0072               ___llmod@dividend 0074                         _EEDATA 010C  
                       _EECON1 018C                         _EECON2 018D                   ar1000_init@i 002D  
                 ?_send_string 0070                         _SSPADD 0093                         _TRISC3 043B  
                       _TRISC4 043C                         _TRISC6 043E                         _TRISC7 043F  
                       _SSPBUF 0013                  _increase_chan 0D82           __size_of_eeprom_read 0021  
             __end_of_lcd_goto 0B90                      ??___lldiv 0078                      ??___llmod 0078  
              ?_adjust_channel 0070                   _ar_i2c_write 0ECE                      ??_e_pulse 0078  
                    ??_lcd_clr 0079               __end_of_send_dec 0800                      ??_set_vol 0020  
                    ??_uart_tx 0070                eeprom_read@addr 0073                    _ar1000_init 0034  
               ?_increase_chan 0070        ar_i2c_write@ar_register 0070                 __pcstackCOMMON 0070  
                 __pidataBANK0 0B01                   __pidataBANK1 0C94                  __end_of_delay 0034  
         __size_of_eprom_write 001E                        ??_delay 0074                     __pbssBANK0 005D  
           __size_of_setAR1000 0111                     _adjust_vol 00E2                     __pmaintext 02A2  
           __size_of_send_char 0019                        _ACKSTAT 048E                _register_values 00AA  
           __size_of_uart_init 0015                    send_dec@RC4 0020                      ?_lcd_goto 0070  
      __size_of_switch_channel 0064           __size_of_send_config 0019                ??_increase_chan 007E  
         __size_of_send_string 002B                      ?_send_dec 0020                  ??_ar_i2c_read 0072  
                   _eprom_read 0BAE                        ___lldiv 0DEA                        ___llmod 0CC2  
                      _e_pulse 0BEF              __end_of_setAR1000 02A2                        _lcd_clr 0B59  
                      _set_vol 0F55                        _uart_tx 0AD4          adjust_vol@vol_default 0026  
                   ??_lcd_goto 0079           end_of_initialization 0C63              __end_of_send_char 0B59  
 ar_i2c_read@ar_received_byte1 0022   ar_i2c_read@ar_received_byte2 0023                        init_ram 0AF4  
                  ?_adjust_vol 0070                  ?_uart_sendstr 0070         __size_of_decrease_chan 0076  
            __end_of_uart_init 0B27                ___lldiv@divisor 0070                     ??_send_dec 0024  
             ??_adjust_channel 007E                ___lldiv@counter 007D            __end_of_ar_i2c_read 0516  
              adjust_vol@check 0025            ar_i2c_write@ar_data 0071                 ??_uart_sendstr 0071  
                ??_eeprom_read 0070                   ?_ar1000_init 0070                    ?_eprom_read 0070  
                _decrease_chan 0E58            __size_of_adjust_vol 00AF            start_initialization 0C3B  
        eprom_read@channel_adr 0074                 _switch_channel 0D1E        adjust_channel@press_720 0046  
      adjust_channel@press_719 0044                ___llmod@divisor 0070                ___llmod@counter 0079  
               _currentChannel 005D                    _ar_i2c_read 03CE            __end_of_eeprom_read 0BEF  
                  __pdataBANK0 004C                    __pdataBANK1 00A0                  ??_eprom_write 0072  
               ?_decrease_chan 0070         __end_of_switch_channel 0D82                  __pcstackBANK0 0020  
          __size_of_eprom_read 0020              __size_of_lcd_goto 001D            eprom_write@fm_value 0070  
            __size_of_send_dec 0197                      __ptext610 0D1E                      __ptext611 0669  
                    __ptext620 0F55                      __ptext612 00E2                      __ptext621 0C67  
                    __ptext613 0B59                      __ptext630 0004                      __ptext622 0034  
                    __ptext614 0B73                      __ptext631 0ECE                      __ptext623 0B12  
                    __ptext615 0C10                      __ptext607 0516                      __ptext632 03CE  
                    __ptext624 0DEA                      __ptext616 0B40                      __ptext608 0D82  
                    __ptext633 0AE0                      __ptext625 0CC2                      __ptext617 0B27  
                    __ptext609 0E58                      __ptext634 0000                      __ptext626 0BAE  
                    __ptext618 0BEF                      __ptext627 0AD4                      __ptext619 0191  
                    __ptext628 0B90                      __ptext629 0BCE                       ?___lldiv 0070  
                     ?___llmod 0070                     send_dec@no 0028                       ?_e_pulse 0070  
                    __pstrings 0800                       ?_lcd_clr 0070           __end_of_uart_sendstr 0C94  
                    _setAR1000 0191                ?_switch_channel 0070            __end_of_eprom_write 0BAE  
                     ?_set_vol 0070                       ?_uart_tx 0070                  ??_send_config 0078  
               __size_of_delay 0030             eprom_read@fm_value 0072                  ??_send_string 0079  
                 ??_adjust_vol 0024            adjust_channel@press 0042    ar_i2c_read@ar_received_byte 0020  
                  _eeprom_read 0BCE                      _send_char 0B40                     set_vol@key 007D  
        __end_of_increase_chan 0DEA                   send_char@RC4 0078           __size_of_ar1000_init 00AE  
                    _uart_init 0B12                      _prog_chan 0056                ??_decrease_chan 003E  
                ?_ar_i2c_write 0070                    __stringbase 0805             __end_of_adjust_vol 0191  
                   ?_setAR1000 0029              _ar_i2c_initialize 0AE0  ar_i2c_write@ar_transmit_byte1 007B  
ar_i2c_write@ar_transmit_byte2 007C            __end_of_send_config 0B40             ?_ar_i2c_initialize 0070  
 ar_i2c_write@ar_slave_address 007A                     ?_send_char 0070                   send_string@i 007A  
                 send_string@s 007B            __end_of_send_string 0C3B                      init_fetch 0AF0  
          ??_ar_i2c_initialize 0070                   ??_eprom_read 0072                     ?_uart_init 0070  
               ??_ar_i2c_write 0075               __size_of___lldiv 006E               __size_of___llmod 005C  
                  _eprom_write 0B90               __size_of_e_pulse 0021               __size_of_lcd_clr 001A  
             __size_of_set_vol 00AB      __end_of_ar_i2c_initialize 0AF0               __size_of_uart_tx 000C  
                    send_dec@i 003C                       _lcd_goto 0B73                       _freq_kHz 0061  
           __end_of_eprom_read 0BCE                       delay@RC4 0070                  __size_of_main 012C  
                     _send_dec 0669                   ?_ar_i2c_read 0070          __size_of_uart_sendstr 002D  
      __size_of_adjust_channel 0153                    ??_setAR1000 002B                    _send_config 0B27  
                  _send_string 0C10               ___lldiv@dividend 0074                   _uart_sendstr 0C67  
                  ??_send_char 0078               ar_i2c_read@count 0025                      stringcode 0800  
               uart_tx@uc_data 0070                    ??_uart_init 0071               ??_switch_channel 003E  
             ___lldiv@quotient 0079                       stringdir 0800                       stringtab 0800  
                uart_sendstr@s 0072     __size_of_ar_i2c_initialize 0010           __end_of_ar_i2c_write 0F55  
                 ?_eeprom_read 0070  
