

HI-TECH Software PIC LITE Macro Assembler V1.00 build 12136 
                                                                                               Sat Jun 30 10:08:05 2012

HI-TECH Software Omniscient Code Generator (Lite mode) build 12136
     1  0000                     opt subtitle "HI-TECH Software Omniscient Code Generator (Lite mode) build 12136"
     2                           
     3                           opt pagewidth 120
     4                           
     5                           	opt lm
     6                           
     7                           	processor	16F877A
     8                           clrc	macro
     9                           	bcf	3,0
    10  0000                     	endm
    11                           clrz	macro
    12                           	bcf	3,2
    13  0000                     	endm
    14                           setc	macro
    15                           	bsf	3,0
    16  0000                     	endm
    17                           setz	macro
    18                           	bsf	3,2
    19  0000                     	endm
    20                           skipc	macro
    21                           	btfss	3,0
    22  0000                     	endm
    23                           skipz	macro
    24                           	btfss	3,2
    25  0000                     	endm
    26                           skipnc	macro
    27                           	btfsc	3,0
    28  0000                     	endm
    29                           skipnz	macro
    30                           	btfsc	3,2
    31  0000                     	endm
    32  0000                     indf	equ	0
    33  0000                     indf0	equ	0
    34  0002                     pc	equ	2
    35  0002                     pcl	equ	2
    36  0003                     status	equ	3
    37  0004                     fsr	equ	4
    38  0004                     fsr0	equ	4
    39  0001                     c	equ	1
    40  0000                     z	equ	0
    41  000A                     pclath	equ	10
    42                           # 22 "PR31_final.c"
    43                           psect config,class=CONFIG,delta=2 ;# 
    44                           # 22 "PR31_final.c"
    45  2007  3F32               dw 0x3F32 ;# 
    46                           	FNCALL	_main,_delay
    47                           	FNCALL	_main,_send_config
    48                           	FNCALL	_main,_uart_init
    49                           	FNCALL	_main,_ar_i2c_initialize
    50                           	FNCALL	_main,_ar1000_init
    51                           	FNCALL	_main,_send_string
    52                           	FNCALL	_main,_lcd_goto
    53                           	FNCALL	_main,_uart_sendstr
    54                           	FNCALL	_main,_set_vol
    55                           	FNCALL	_main,_lcd_clr
    56                           	FNCALL	_main,_eeprom_read
    57                           	FNCALL	_main,_eprom_write
    58                           	FNCALL	_main,_switch_channel
    59                           	FNCALL	_main,_adjust_channel
    60                           	FNCALL	_main,_adjust_vol
    61                           	FNCALL	_uart_init,_uart_tx
    62                           	FNCALL	_ar1000_init,_delay
    63                           	FNCALL	_ar1000_init,_ar_i2c_write
    64                           	FNCALL	_ar1000_init,_ar_i2c_read
    65                           	FNCALL	_adjust_channel,_decrease_chan
    66                           	FNCALL	_adjust_channel,_delay
    67                           	FNCALL	_adjust_channel,_increase_chan
    68                           	FNCALL	_adjust_channel,_eprom_write
    69                           	FNCALL	_adjust_channel,_lcd_clr
    70                           	FNCALL	_adjust_channel,_send_string
    71                           	FNCALL	_adjust_channel,_uart_sendstr
    72                           	FNCALL	_adjust_channel,_send_char
    73                           	FNCALL	_adjust_channel,_uart_tx
    74                           	FNCALL	_adjust_channel,_send_dec
    75                           	FNCALL	_adjust_channel,_switch_channel
    76                           	FNCALL	_adjust_channel,_lcd_goto
    77                           	FNCALL	_adjust_channel,_adjust_vol
    78                           	FNCALL	_switch_channel,_lcd_clr
    79                           	FNCALL	_switch_channel,_send_string
    80                           	FNCALL	_switch_channel,_uart_tx
    81                           	FNCALL	_switch_channel,_uart_sendstr
    82                           	FNCALL	_switch_channel,_send_char
    83                           	FNCALL	_switch_channel,_eprom_read
    84                           	FNCALL	_switch_channel,_setAR1000
    85                           	FNCALL	_switch_channel,_send_dec
    86                           	FNCALL	_lcd_clr,_send_config
    87                           	FNCALL	_lcd_clr,_delay
    88                           	FNCALL	_adjust_vol,_lcd_goto
    89                           	FNCALL	_adjust_vol,_send_char
    90                           	FNCALL	_adjust_vol,_uart_tx
    91                           	FNCALL	_adjust_vol,_delay
    92                           	FNCALL	_adjust_vol,_set_vol
    93                           	FNCALL	_set_vol,_ar_i2c_write
    94                           	FNCALL	_decrease_chan,_setAR1000
    95                           	FNCALL	_decrease_chan,_uart_tx
    96                           	FNCALL	_decrease_chan,_uart_sendstr
    97                           	FNCALL	_decrease_chan,_send_dec
    98                           	FNCALL	_decrease_chan,_delay
    99                           	FNCALL	_increase_chan,_setAR1000
   100                           	FNCALL	_increase_chan,_uart_tx
   101                           	FNCALL	_increase_chan,_uart_sendstr
   102                           	FNCALL	_increase_chan,_send_dec
   103                           	FNCALL	_increase_chan,_delay
   104                           	FNCALL	_setAR1000,_ar_i2c_write
   105                           	FNCALL	_setAR1000,_ar_i2c_read
   106                           	FNCALL	_setAR1000,_delay
   107                           	FNCALL	_send_dec,___lldiv
   108                           	FNCALL	_send_dec,___llmod
   109                           	FNCALL	_send_dec,_lcd_goto
   110                           	FNCALL	_send_dec,_send_string
   111                           	FNCALL	_send_dec,_uart_sendstr
   112                           	FNCALL	_send_dec,_send_char
   113                           	FNCALL	_send_dec,_uart_tx
   114                           	FNCALL	_send_dec,_delay
   115                           	FNCALL	_send_string,_send_char
   116                           	FNCALL	_lcd_goto,_send_config
   117                           	FNCALL	_send_config,_delay
   118                           	FNCALL	_send_config,_e_pulse
   119                           	FNCALL	_uart_sendstr,_uart_tx
   120                           	FNCALL	_send_char,_delay
   121                           	FNCALL	_send_char,_e_pulse
   122                           	FNCALL	_e_pulse,_delay
   123                           	FNROOT	_main
   124                           	global	_v2
   125                           	global	_prog_chan
   126                           	global	_v1
   127                           	global	_register_values
   128                           psect	idataBANK0,class=CODE,space=0,delta=2
   129                           global __pidataBANK0
   130  0B20                     __pidataBANK0:
   131                           	file	"PR31_final.c"
   132                           	line	81
   133                           
   134                           ;initializer for _v2
   135  0B20  3400               	retlw	0
   136  0B21  340F               	retlw	0Fh
   137  0B22  340D               	retlw	0Dh
   138  0B23  340E               	retlw	0Eh
   139  0B24  340F               	retlw	0Fh
   140  0B25  340E               	retlw	0Eh
   141  0B26  340F               	retlw	0Fh
   142  0B27  340F               	retlw	0Fh
   143  0B28  340F               	retlw	0Fh
   144  0B29  340F               	retlw	0Fh
   145                           	line	56
   146                           
   147                           ;initializer for _prog_chan
   148  0B2A  3438               	retlw	038h
   149  0B2B  3484               	retlw	084h
   150  0B2C  34B2               	retlw	0B2h
   151  0B2D  34C8               	retlw	0C8h
   152  0B2E  34EE               	retlw	0EEh
   153  0B2F  3415               	retlw	015h
   154  0B30  3435               	retlw	035h
   155                           psect	idataBANK1,class=CODE,space=0,delta=2
   156                           global __pidataBANK1
   157  0C99                     __pidataBANK1:
   158                           	line	83
   159                           
   160                           ;initializer for _v1
   161  0C99  3400               	retlw	0
   162  0C9A  3407               	retlw	07h
   163  0C9B  3406               	retlw	06h
   164  0C9C  3406               	retlw	06h
   165  0C9D  3406               	retlw	06h
   166  0C9E  3403               	retlw	03h
   167  0C9F  3403               	retlw	03h
   168  0CA0  3402               	retlw	02h
   169  0CA1  3401               	retlw	01h
   170  0CA2  3400               	retlw	0
   171                           	line	59
   172                           
   173                           ;initializer for _register_values
   174  0CA3  34FF               	retlw	0FFh
   175  0CA4  34FF               	retlw	0FFh
   176                           
   177  0CA5  3415               	retlw	015h
   178  0CA6  345B               	retlw	05Bh
   179                           
   180  0CA7  34B9               	retlw	0B9h
   181  0CA8  34F4               	retlw	0F4h
   182                           
   183  0CA9  3412               	retlw	012h
   184  0CAA  3480               	retlw	080h
   185                           
   186  0CAB  3400               	retlw	0
   187  0CAC  3404               	retlw	04h
   188                           
   189  0CAD  34AA               	retlw	0AAh
   190  0CAE  3428               	retlw	028h
   191                           
   192  0CAF  3400               	retlw	0
   193  0CB0  3444               	retlw	044h
   194                           
   195  0CB1  34E7               	retlw	0E7h
   196  0CB2  341E               	retlw	01Eh
   197                           
   198  0CB3  3441               	retlw	041h
   199  0CB4  3471               	retlw	071h
   200                           
   201  0CB5  347D               	retlw	07Dh
   202  0CB6  3400               	retlw	0
   203                           
   204  0CB7  34C6               	retlw	0C6h
   205  0CB8  3482               	retlw	082h
   206                           
   207  0CB9  3455               	retlw	055h
   208  0CBA  344F               	retlw	04Fh
   209                           
   210  0CBB  340C               	retlw	0Ch
   211  0CBC  3497               	retlw	097h
   212                           
   213  0CBD  3445               	retlw	045h
   214  0CBE  34B8               	retlw	0B8h
   215                           
   216  0CBF  342D               	retlw	02Dh
   217  0CC0  34FC               	retlw	0FCh
   218                           
   219  0CC1  3497               	retlw	097h
   220  0CC2  3480               	retlw	080h
   221                           
   222  0CC3  34A1               	retlw	0A1h
   223  0CC4  3404               	retlw	04h
   224                           
   225  0CC5  346A               	retlw	06Ah
   226  0CC6  34DF               	retlw	0DFh
   227                           
   228                           	global	_currentChannel
   229                           	global	_freq_kHz
   230                           	global	_STC
   231                           	global	_i
   232                           	global	_m
   233                           	global	_vol
   234                           	global	_PORTA
   235  0005                     _PORTA	set	0x5
   236                           	global	_PORTB
   237  0006                     _PORTB	set	0x6
   238                           	global	_PORTD
   239  0008                     _PORTD	set	0x8
   240                           	global	_RCREG
   241  001A                     _RCREG	set	0x1A
   242                           	global	_SSPBUF
   243  0013                     _SSPBUF	set	0x13
   244                           	global	_TXREG
   245  0019                     _TXREG	set	0x19
   246                           	global	_CREN
   247  00C4                     _CREN	set	0xC4
   248                           	global	_OERR
   249  00C1                     _OERR	set	0xC1
   250                           	global	_RB0
   251  0030                     _RB0	set	0x30
   252                           	global	_RB1
   253  0031                     _RB1	set	0x31
   254                           	global	_RB2
   255  0032                     _RB2	set	0x32
   256                           	global	_RB3
   257  0033                     _RB3	set	0x33
   258                           	global	_RB4
   259  0034                     _RB4	set	0x34
   260                           	global	_RB5
   261  0035                     _RB5	set	0x35
   262                           	global	_RCIF
   263  0065                     _RCIF	set	0x65
   264                           	global	_SPEN
   265  00C7                     _SPEN	set	0xC7
   266                           	global	_SSPEN
   267  00A5                     _SSPEN	set	0xA5
   268                           	global	_SSPM0
   269  00A0                     _SSPM0	set	0xA0
   270                           	global	_SSPM1
   271  00A1                     _SSPM1	set	0xA1
   272                           	global	_SSPM2
   273  00A2                     _SSPM2	set	0xA2
   274                           	global	_SSPM3
   275  00A3                     _SSPM3	set	0xA3
   276                           	global	_SSPOV
   277  00A6                     _SSPOV	set	0xA6
   278                           	global	_TXIF
   279  0064                     _TXIF	set	0x64
   280                           	global	_WCOL
   281  00A7                     _WCOL	set	0xA7
   282                           	global	_SPBRG
   283  0099                     _SPBRG	set	0x99
   284                           	global	_SSPADD
   285  0093                     _SSPADD	set	0x93
   286                           	global	_TRISA
   287  0085                     _TRISA	set	0x85
   288                           	global	_TRISB
   289  0086                     _TRISB	set	0x86
   290                           	global	_TRISD
   291  0088                     _TRISD	set	0x88
   292                           	global	_ACKDT
   293  048D                     _ACKDT	set	0x48D
   294                           	global	_ACKEN
   295  048C                     _ACKEN	set	0x48C
   296                           	global	_ACKSTAT
   297  048E                     _ACKSTAT	set	0x48E
   298                           	global	_BF
   299  04A0                     _BF	set	0x4A0
   300                           	global	_BRGH
   301  04C2                     _BRGH	set	0x4C2
   302                           	global	_PEN
   303  048A                     _PEN	set	0x48A
   304                           	global	_RCEN
   305  048B                     _RCEN	set	0x48B
   306                           	global	_RSEN
   307  0489                     _RSEN	set	0x489
   308                           	global	_R_W
   309  04A2                     _R_W	set	0x4A2
   310                           	global	_SEN
   311  0488                     _SEN	set	0x488
   312                           	global	_TRISC3
   313  043B                     _TRISC3	set	0x43B
   314                           	global	_TRISC4
   315  043C                     _TRISC4	set	0x43C
   316                           	global	_TRISC6
   317  043E                     _TRISC6	set	0x43E
   318                           	global	_TRISC7
   319  043F                     _TRISC7	set	0x43F
   320                           	global	_TXEN
   321  04C5                     _TXEN	set	0x4C5
   322                           	global	_EEADR
   323  010D                     _EEADR	set	0x10D
   324                           	global	_EEDATA
   325  010C                     _EEDATA	set	0x10C
   326                           	global	_EECON1
   327  018C                     _EECON1	set	0x18C
   328                           	global	_EECON2
   329  018D                     _EECON2	set	0x18D
   330                           	global	_EEPGD
   331  0C67                     _EEPGD	set	0xC67
   332                           	global	_RD
   333  0C60                     _RD	set	0xC60
   334                           	global	_WR
   335  0C61                     _WR	set	0xC61
   336                           	global	_WREN
   337  0C62                     _WREN	set	0xC62
   338                           psect	strings,class=STRING,delta=2
   339                           global __pstrings
   340  0800                     __pstrings:
   341                           ;	global	stringdir,stringtab,__stringbase
   342  0800                     stringtab:
   343                           ;	String table - string pointers are 1 byte each
   344  0800                     stringcode:stringdir:
      + 0800                     stringdir:	
   345  0800  3008               movlw high(stringdir)
   346  0801  008A               movwf pclath
   347  0802  0804               movf fsr,w
   348  0803  0A84               incf fsr
   349  0804  0782               	addwf pc
   350  0805                     __stringbase:
   351  0805  3400               	retlw	0
   352                           psect	strings
   353                           	
   354  0806                     STR_3:	
   355  0806  3450               	retlw	80	;'P'
   356  0807  3452               	retlw	82	;'R'
   357  0808  3433               	retlw	51	;'3'
   358  0809  3431               	retlw	49	;'1'
   359  080A  3420               	retlw	32	;' '
   360  080B  343D               	retlw	61	;'='
   361  080C  3420               	retlw	32	;' '
   362  080D  3444               	retlw	68	;'D'
   363  080E  3469               	retlw	105	;'i'
   364  080F  3467               	retlw	103	;'g'
   365  0810  3469               	retlw	105	;'i'
   366  0811  3474               	retlw	116	;'t'
   367  0812  3461               	retlw	97	;'a'
   368  0813  346C               	retlw	108	;'l'
   369  0814  3420               	retlw	32	;' '
   370  0815  3452               	retlw	82	;'R'
   371  0816  3461               	retlw	97	;'a'
   372  0817  3464               	retlw	100	;'d'
   373  0818  3469               	retlw	105	;'i'
   374  0819  346F               	retlw	111	;'o'
   375  081A  3400               	retlw	0
   376                           psect	strings
   377                           	
   378  081B                     STR_8:	
   379  081B  3476               	retlw	118	;'v'
   380  081C  346F               	retlw	111	;'o'
   381  081D  346C               	retlw	108	;'l'
   382  081E  3475               	retlw	117	;'u'
   383  081F  346D               	retlw	109	;'m'
   384  0820  3465               	retlw	101	;'e'
   385  0821  3420               	retlw	32	;' '
   386  0822  346C               	retlw	108	;'l'
   387  0823  3465               	retlw	101	;'e'
   388  0824  3476               	retlw	118	;'v'
   389  0825  3465               	retlw	101	;'e'
   390  0826  346C               	retlw	108	;'l'
   391  0827  343D               	retlw	61	;'='
   392  0828  3420               	retlw	32	;' '
   393  0829  3420               	retlw	32	;' '
   394  082A  3420               	retlw	32	;' '
   395  082B  3400               	retlw	0
   396                           psect	strings
   397                           	
   398  082C                     STR_4:	
   399  082C  3473               	retlw	115	;'s'
   400  082D  3477               	retlw	119	;'w'
   401  082E  3431               	retlw	49	;'1'
   402  082F  343D               	retlw	61	;'='
   403  0830  3463               	retlw	99	;'c'
   404  0831  3468               	retlw	104	;'h'
   405  0832  3461               	retlw	97	;'a'
   406  0833  346E               	retlw	110	;'n'
   407  0834  3420               	retlw	32	;' '
   408  0835  3473               	retlw	115	;'s'
   409  0836  3477               	retlw	119	;'w'
   410  0837  3432               	retlw	50	;'2'
   411  0838  343D               	retlw	61	;'='
   412  0839  3476               	retlw	118	;'v'
   413  083A  346F               	retlw	111	;'o'
   414  083B  346C               	retlw	108	;'l'
   415  083C  3400               	retlw	0
   416                           psect	strings
   417                           	
   418  083D                     STR_6:	
   419  083D  3473               	retlw	115	;'s'
   420  083E  3477               	retlw	119	;'w'
   421  083F  3431               	retlw	49	;'1'
   422  0840  3428               	retlw	40	;'('
   423  0841  3431               	retlw	49	;'1'
   424  0842  3473               	retlw	115	;'s'
   425  0843  3429               	retlw	41	;')'
   426  0844  343D               	retlw	61	;'='
   427  0845  3473               	retlw	115	;'s'
   428  0846  3465               	retlw	101	;'e'
   429  0847  3474               	retlw	116	;'t'
   430  0848  3400               	retlw	0
   431                           psect	strings
   432                           	
   433  0849                     STR_11:	
   434  0849  3443               	retlw	67	;'C'
   435  084A  3468               	retlw	104	;'h'
   436  084B  3461               	retlw	97	;'a'
   437  084C  346E               	retlw	110	;'n'
   438  084D  346E               	retlw	110	;'n'
   439  084E  3465               	retlw	101	;'e'
   440  084F  346C               	retlw	108	;'l'
   441  0850  3420               	retlw	32	;' '
   442  0851  3400               	retlw	0
   443                           psect	strings
   444                           	
   445  0852                     STR_10:	
   446  0852  3463               	retlw	99	;'c'
   447  0853  3468               	retlw	104	;'h'
   448  0854  3461               	retlw	97	;'a'
   449  0855  346E               	retlw	110	;'n'
   450  0856  346E               	retlw	110	;'n'
   451  0857  3465               	retlw	101	;'e'
   452  0858  346C               	retlw	108	;'l'
   453  0859  3420               	retlw	32	;' '
   454  085A  3400               	retlw	0
   455                           psect	strings
   456                           	
   457  085B                     STR_14:	
   458  085B  3420               	retlw	32	;' '
   459  085C  3473               	retlw	115	;'s'
   460  085D  3465               	retlw	101	;'e'
   461  085E  3474               	retlw	116	;'t'
   462  085F  3474               	retlw	116	;'t'
   463  0860  3465               	retlw	101	;'e'
   464  0861  3464               	retlw	100	;'d'
   465  0862  3400               	retlw	0
   466                           psect	strings
   467                           	
   468  0863                     STR_1:	
   469  0863  3450               	retlw	80	;'P'
   470  0864  3452               	retlw	82	;'R'
   471  0865  3433               	retlw	51	;'3'
   472  0866  3431               	retlw	49	;'1'
   473  0867  3420               	retlw	32	;' '
   474  0868  343A               	retlw	58	;':'
   475  0869  3400               	retlw	0
   476                           psect	strings
   477                           	
   478  086A                     STR_20:	
   479  086A  3446               	retlw	70	;'F'
   480  086B  344D               	retlw	77	;'M'
   481  086C  343D               	retlw	61	;'='
   482  086D  3400               	retlw	0
   483                           psect	strings
   484  083D                     STR_7	equ	STR_6+0
   485  080D                     STR_2	equ	STR_3+7
   486  082C                     STR_5	equ	STR_4+0
   487  085B                     STR_15	equ	STR_14+0
   488  086A                     STR_21	equ	STR_20+0
   489  0852                     STR_12	equ	STR_10+0
   490  0852                     STR_13	equ	STR_10+0
   491  0852                     STR_18	equ	STR_10+0
   492  0852                     STR_19	equ	STR_10+0
   493  081B                     STR_9	equ	STR_8+0
   494  081B                     STR_16	equ	STR_8+0
   495  081B                     STR_17	equ	STR_8+0
   496                           	file	"C:\Users\Younce\AppData\Local\Temp\s45c."
   497                           	line	#
   498                           psect cinit,class=CODE,delta=2
   499                           global start_initialization
   500  0C40                     start_initialization:
   501                           
   502                           psect	bssBANK0,class=BANK0,space=1
   503                           global __pbssBANK0
   504  005D                     __pbssBANK0:
   505  005D                     _currentChannel:
   506  005D                            ds      4
   507                           
   508  0061                     _freq_kHz:
   509  0061                            ds      4
   510                           
   511  0065                     _STC:
   512  0065                            ds      2
   513                           
   514  0067                     _i:
   515  0067                            ds      1
   516                           
   517  0068                     _m:
   518  0068                            ds      1
   519                           
   520  0069                     _vol:
   521  0069                            ds      1
   522                           
   523                           psect	dataBANK0,class=BANK0,space=1
   524                           global __pdataBANK0
   525  004C                     __pdataBANK0:
   526                           	file	"PR31_final.c"
   527                           	line	81
   528  004C                     _v2:
   529  004C                            ds      10
   530                           
   531                           psect	dataBANK0
   532                           	file	"PR31_final.c"
   533                           	line	56
   534  0056                     _prog_chan:
   535  0056                            ds      7
   536                           
   537                           psect	dataBANK1,class=BANK1,space=1
   538                           global __pdataBANK1
   539  00A0                     __pdataBANK1:
   540                           	file	"PR31_final.c"
   541                           	line	83
   542  00A0                     _v1:
   543  00A0                            ds      10
   544                           
   545                           psect	dataBANK1
   546                           	file	"PR31_final.c"
   547                           	line	59
   548  00AA                     _register_values:
   549  00AA                            ds      36
   550                           
   551                           ; Clear objects allocated to BANK0
   552                           psect cinit,class=CODE,delta=2,merge=1
   553  0C40  01DD               	clrf	((__pbssBANK0)+0)&07Fh
   554  0C41  01DE               	clrf	((__pbssBANK0)+1)&07Fh
   555  0C42  01DF               	clrf	((__pbssBANK0)+2)&07Fh
   556  0C43  01E0               	clrf	((__pbssBANK0)+3)&07Fh
   557  0C44  01E1               	clrf	((__pbssBANK0)+4)&07Fh
   558  0C45  01E2               	clrf	((__pbssBANK0)+5)&07Fh
   559  0C46  01E3               	clrf	((__pbssBANK0)+6)&07Fh
   560  0C47  01E4               	clrf	((__pbssBANK0)+7)&07Fh
   561  0C48  01E5               	clrf	((__pbssBANK0)+8)&07Fh
   562  0C49  01E6               	clrf	((__pbssBANK0)+9)&07Fh
   563  0C4A  01E7               	clrf	((__pbssBANK0)+10)&07Fh
   564  0C4B  01E8               	clrf	((__pbssBANK0)+11)&07Fh
   565  0C4C  01E9               	clrf	((__pbssBANK0)+12)&07Fh
   566                           global btemp
   567                           psect inittext,class=CODE,delta=2
   568                           global init_fetch,btemp
   569                           ;	Called with low address in FSR and high address in W
   570  0B31                     init_fetch:
   571  0B31  087E               	movf btemp,w
   572  0B32  008A               	movwf pclath
   573  0B33  087F               	movf btemp+1,w
   574  0B34  0082               	movwf pc
   575                           global init_ram
   576                           ;Called with:
   577                           ;	high address of idata address in btemp 
   578                           ;	low address of idata address in btemp+1 
   579                           ;	low address of data in FSR
   580                           ;	high address + 1 of data in btemp-1
   581  0B35                     init_ram:
   582  0B35  120A  158A  2331   	fcall init_fetch
              120A  158A         
   583  0B3A  0080               	movwf indf,f
   584  0B3B  0A84               	incf fsr,f
   585  0B3C  0804               	movf fsr,w
   586  0B3D  067D               	xorwf btemp-1,w
   587  0B3E  1903               	btfsc status,2
   588  0B3F  3400               	retlw 0
   589  0B40  0AFF               	incf btemp+1,f
   590  0B41  1903               	btfsc status,2
   591  0B42  0AFE               	incf btemp,f
   592  0B43  2B35               	goto init_ram
   593                           ; Initialize objects allocated to BANK1
   594                           psect cinit,class=CODE,delta=2,merge=1
   595                           global init_ram, __pidataBANK1
   596  0C4D  1383               	bcf	status, 7	;select IRP bank0
   597  0C4E  30CE               	movlw low(__pdataBANK1+46)
   598  0C4F  00FD               	movwf btemp-1,f
   599  0C50  300C               	movlw high(__pidataBANK1)
   600  0C51  00FE               	movwf btemp,f
   601  0C52  3099               	movlw low(__pidataBANK1)
   602  0C53  00FF               	movwf btemp+1,f
   603  0C54  30A0               	movlw low(__pdataBANK1)
   604  0C55  0084               	movwf fsr,f
   605  0C56  120A  158A  2335   	fcall init_ram
              120A  158A         
   606                           ; Initialize objects allocated to BANK0
   607                           psect cinit,class=CODE,delta=2,merge=1
   608                           global init_ram, __pidataBANK0
   609  0C5B  305D               	movlw low(__pdataBANK0+17)
   610  0C5C  00FD               	movwf btemp-1,f
   611  0C5D  300B               	movlw high(__pidataBANK0)
   612  0C5E  00FE               	movwf btemp,f
   613  0C5F  3020               	movlw low(__pidataBANK0)
   614  0C60  00FF               	movwf btemp+1,f
   615  0C61  304C               	movlw low(__pdataBANK0)
   616  0C62  0084               	movwf fsr,f
   617  0C63  120A  158A  2335   	fcall init_ram
              120A  158A         
   618                           psect cinit,class=CODE,delta=2,merge=1
   619                           global end_of_initialization
   620                           
   621                           ;End of C runtime variable initialization code
   622                           
   623  0C68                     end_of_initialization:
   624  0C68  0183               clrf status
   625  0C69  120A  118A  2AC2   ljmp _main	;jump to C main() function
   626                           psect	cstackCOMMON,class=COMMON,space=1
   627                           global __pcstackCOMMON
   628  0070                     __pcstackCOMMON:
   629                           	global	?_delay
   630  0070                     ?_delay:	; 0 bytes @ 0x0
   631                           	global	?_send_config
   632  0070                     ?_send_config:	; 0 bytes @ 0x0
   633                           	global	?_uart_init
   634  0070                     ?_uart_init:	; 0 bytes @ 0x0
   635                           	global	?_ar1000_init
   636  0070                     ?_ar1000_init:	; 0 bytes @ 0x0
   637                           	global	?_send_string
   638  0070                     ?_send_string:	; 0 bytes @ 0x0
   639                           	global	?_lcd_goto
   640  0070                     ?_lcd_goto:	; 0 bytes @ 0x0
   641                           	global	?_uart_sendstr
   642  0070                     ?_uart_sendstr:	; 0 bytes @ 0x0
   643                           	global	?_set_vol
   644  0070                     ?_set_vol:	; 0 bytes @ 0x0
   645                           	global	?_lcd_clr
   646  0070                     ?_lcd_clr:	; 0 bytes @ 0x0
   647                           	global	??_eeprom_read
   648  0070                     ??_eeprom_read:	; 0 bytes @ 0x0
   649                           	global	?_eprom_write
   650  0070                     ?_eprom_write:	; 0 bytes @ 0x0
   651                           	global	?_switch_channel
   652  0070                     ?_switch_channel:	; 0 bytes @ 0x0
   653                           	global	?_adjust_channel
   654  0070                     ?_adjust_channel:	; 0 bytes @ 0x0
   655                           	global	?_adjust_vol
   656  0070                     ?_adjust_vol:	; 0 bytes @ 0x0
   657                           	global	?_uart_tx
   658  0070                     ?_uart_tx:	; 0 bytes @ 0x0
   659                           	global	??_uart_tx
   660  0070                     ??_uart_tx:	; 0 bytes @ 0x0
   661                           	global	?_send_char
   662  0070                     ?_send_char:	; 0 bytes @ 0x0
   663                           	global	?_decrease_chan
   664  0070                     ?_decrease_chan:	; 0 bytes @ 0x0
   665                           	global	?_increase_chan
   666  0070                     ?_increase_chan:	; 0 bytes @ 0x0
   667                           	global	?_e_pulse
   668  0070                     ?_e_pulse:	; 0 bytes @ 0x0
   669                           	global	?_ar_i2c_initialize
   670  0070                     ?_ar_i2c_initialize:	; 0 bytes @ 0x0
   671                           	global	??_ar_i2c_initialize
   672  0070                     ??_ar_i2c_initialize:	; 0 bytes @ 0x0
   673                           	global	?_ar_i2c_write
   674  0070                     ?_ar_i2c_write:	; 0 bytes @ 0x0
   675                           	global	?_eeprom_read
   676  0070                     ?_eeprom_read:	; 1 bytes @ 0x0
   677                           	global	?_eprom_read
   678  0070                     ?_eprom_read:	; 2 bytes @ 0x0
   679                           	global	?_ar_i2c_read
   680  0070                     ?_ar_i2c_read:	; 2 bytes @ 0x0
   681                           	global	?_main
   682  0070                     ?_main:	; 2 bytes @ 0x0
   683                           	global	?___llmod
   684  0070                     ?___llmod:	; 4 bytes @ 0x0
   685                           	global	?___lldiv
   686  0070                     ?___lldiv:	; 4 bytes @ 0x0
   687                           	global	ar_i2c_read@ar_register
   688  0070                     ar_i2c_read@ar_register:	; 1 bytes @ 0x0
   689                           	global	ar_i2c_write@ar_register
   690  0070                     ar_i2c_write@ar_register:	; 1 bytes @ 0x0
   691                           	global	uart_tx@uc_data
   692  0070                     uart_tx@uc_data:	; 1 bytes @ 0x0
   693                           	global	eprom_write@fm_value
   694  0070                     eprom_write@fm_value:	; 2 bytes @ 0x0
   695                           	global	delay@RC4
   696  0070                     delay@RC4:	; 4 bytes @ 0x0
   697                           	global	___llmod@divisor
   698  0070                     ___llmod@divisor:	; 4 bytes @ 0x0
   699                           	global	___lldiv@divisor
   700  0070                     ___lldiv@divisor:	; 4 bytes @ 0x0
   701  0070                     	ds	1
   702                           	global	??_uart_init
   703  0071                     ??_uart_init:	; 0 bytes @ 0x1
   704                           	global	??_uart_sendstr
   705  0071                     ??_uart_sendstr:	; 0 bytes @ 0x1
   706                           	global	eeprom_read@addr
   707  0071                     eeprom_read@addr:	; 1 bytes @ 0x1
   708                           	global	ar_i2c_write@ar_data
   709  0071                     ar_i2c_write@ar_data:	; 4 bytes @ 0x1
   710  0071                     	ds	1
   711                           	global	??_eprom_write
   712  0072                     ??_eprom_write:	; 0 bytes @ 0x2
   713                           	global	??_eprom_read
   714  0072                     ??_eprom_read:	; 0 bytes @ 0x2
   715                           	global	??_ar_i2c_read
   716  0072                     ??_ar_i2c_read:	; 0 bytes @ 0x2
   717                           	global	uart_sendstr@s
   718  0072                     uart_sendstr@s:	; 1 bytes @ 0x2
   719                           	global	eprom_write@channel_adr
   720  0072                     eprom_write@channel_adr:	; 1 bytes @ 0x2
   721                           	global	eprom_read@fm_value
   722  0072                     eprom_read@fm_value:	; 2 bytes @ 0x2
   723  0072                     	ds	2
   724                           	global	??_delay
   725  0074                     ??_delay:	; 0 bytes @ 0x4
   726                           	global	eprom_read@channel_adr
   727  0074                     eprom_read@channel_adr:	; 1 bytes @ 0x4
   728                           	global	___llmod@dividend
   729  0074                     ___llmod@dividend:	; 4 bytes @ 0x4
   730                           	global	___lldiv@dividend
   731  0074                     ___lldiv@dividend:	; 4 bytes @ 0x4
   732  0074                     	ds	1
   733                           	global	??_ar_i2c_write
   734  0075                     ??_ar_i2c_write:	; 0 bytes @ 0x5
   735  0075                     	ds	3
   736                           	global	??_send_config
   737  0078                     ??_send_config:	; 0 bytes @ 0x8
   738                           	global	??_send_char
   739  0078                     ??_send_char:	; 0 bytes @ 0x8
   740                           	global	??_e_pulse
   741  0078                     ??_e_pulse:	; 0 bytes @ 0x8
   742                           	global	??___llmod
   743  0078                     ??___llmod:	; 0 bytes @ 0x8
   744                           	global	??___lldiv
   745  0078                     ??___lldiv:	; 0 bytes @ 0x8
   746                           	global	send_config@RC4
   747  0078                     send_config@RC4:	; 1 bytes @ 0x8
   748                           	global	send_char@RC4
   749  0078                     send_char@RC4:	; 1 bytes @ 0x8
   750  0078                     	ds	1
   751                           	global	??_send_string
   752  0079                     ??_send_string:	; 0 bytes @ 0x9
   753                           	global	??_lcd_goto
   754  0079                     ??_lcd_goto:	; 0 bytes @ 0x9
   755                           	global	??_lcd_clr
   756  0079                     ??_lcd_clr:	; 0 bytes @ 0x9
   757                           	global	___llmod@counter
   758  0079                     ___llmod@counter:	; 1 bytes @ 0x9
   759                           	global	___lldiv@quotient
   760  0079                     ___lldiv@quotient:	; 4 bytes @ 0x9
   761  0079                     	ds	1
   762                           	global	ar_i2c_write@ar_slave_address
   763  007A                     ar_i2c_write@ar_slave_address:	; 1 bytes @ 0xA
   764                           	global	lcd_goto@RC4
   765  007A                     lcd_goto@RC4:	; 1 bytes @ 0xA
   766                           	global	send_string@i
   767  007A                     send_string@i:	; 1 bytes @ 0xA
   768  007A                     	ds	1
   769                           	global	ar_i2c_write@ar_transmit_byte1
   770  007B                     ar_i2c_write@ar_transmit_byte1:	; 1 bytes @ 0xB
   771                           	global	send_string@s
   772  007B                     send_string@s:	; 1 bytes @ 0xB
   773  007B                     	ds	1
   774                           	global	ar_i2c_write@ar_transmit_byte2
   775  007C                     ar_i2c_write@ar_transmit_byte2:	; 1 bytes @ 0xC
   776  007C                     	ds	1
   777                           	global	set_vol@key
   778  007D                     set_vol@key:	; 1 bytes @ 0xD
   779                           	global	___lldiv@counter
   780  007D                     ___lldiv@counter:	; 1 bytes @ 0xD
   781  007D                     	ds	1
   782                           	global	??_adjust_channel
   783  007E                     ??_adjust_channel:	; 0 bytes @ 0xE
   784                           	global	??_increase_chan
   785  007E                     ??_increase_chan:	; 0 bytes @ 0xE
   786                           psect	cstackBANK0,class=BANK0,space=1
   787                           global __pcstackBANK0
   788  0020                     __pcstackBANK0:
   789                           	global	??_set_vol
   790  0020                     ??_set_vol:	; 0 bytes @ 0x0
   791                           	global	?_send_dec
   792  0020                     ?_send_dec:	; 0 bytes @ 0x0
   793                           	global	ar_i2c_read@ar_received_byte
   794  0020                     ar_i2c_read@ar_received_byte:	; 2 bytes @ 0x0
   795                           	global	send_dec@RC4
   796  0020                     send_dec@RC4:	; 4 bytes @ 0x0
   797  0020                     	ds	2
   798                           	global	ar_i2c_read@ar_received_byte1
   799  0022                     ar_i2c_read@ar_received_byte1:	; 1 bytes @ 0x2
   800  0022                     	ds	1
   801                           	global	ar_i2c_read@ar_received_byte2
   802  0023                     ar_i2c_read@ar_received_byte2:	; 1 bytes @ 0x3
   803  0023                     	ds	1
   804                           	global	??_adjust_vol
   805  0024                     ??_adjust_vol:	; 0 bytes @ 0x4
   806                           	global	??_send_dec
   807  0024                     ??_send_dec:	; 0 bytes @ 0x4
   808                           	global	ar_i2c_read@ar_slave_address
   809  0024                     ar_i2c_read@ar_slave_address:	; 1 bytes @ 0x4
   810  0024                     	ds	1
   811                           	global	adjust_vol@check
   812  0025                     adjust_vol@check:	; 1 bytes @ 0x5
   813                           	global	ar_i2c_read@count
   814  0025                     ar_i2c_read@count:	; 4 bytes @ 0x5
   815  0025                     	ds	1
   816                           	global	adjust_vol@vol_default
   817  0026                     adjust_vol@vol_default:	; 1 bytes @ 0x6
   818  0026                     	ds	2
   819                           	global	send_dec@no
   820  0028                     send_dec@no:	; 20 bytes @ 0x8
   821  0028                     	ds	1
   822                           	global	??_ar1000_init
   823  0029                     ??_ar1000_init:	; 0 bytes @ 0x9
   824                           	global	?_setAR1000
   825  0029                     ?_setAR1000:	; 0 bytes @ 0x9
   826                           	global	setAR1000@freq_kHz
   827  0029                     setAR1000@freq_kHz:	; 2 bytes @ 0x9
   828  0029                     	ds	2
   829                           	global	??_setAR1000
   830  002B                     ??_setAR1000:	; 0 bytes @ 0xB
   831  002B                     	ds	2
   832                           	global	ar1000_init@i
   833  002D                     ar1000_init@i:	; 2 bytes @ 0xD
   834  002D                     	ds	15
   835                           	global	send_dec@i
   836  003C                     send_dec@i:	; 2 bytes @ 0x1C
   837  003C                     	ds	2
   838                           	global	??_switch_channel
   839  003E                     ??_switch_channel:	; 0 bytes @ 0x1E
   840                           	global	??_decrease_chan
   841  003E                     ??_decrease_chan:	; 0 bytes @ 0x1E
   842  003E                     	ds	4
   843                           	global	adjust_channel@press
   844  0042                     adjust_channel@press:	; 2 bytes @ 0x22
   845  0042                     	ds	2
   846                           	global	adjust_channel@press_214
   847  0044                     adjust_channel@press_214:	; 2 bytes @ 0x24
   848  0044                     	ds	2
   849                           	global	adjust_channel@press_215
   850  0046                     adjust_channel@press_215:	; 2 bytes @ 0x26
   851  0046                     	ds	2
   852                           	global	??_main
   853  0048                     ??_main:	; 0 bytes @ 0x28
   854  0048                     	ds	4
   855                           ;!
   856                           ;!Data Sizes:
   857                           ;!    Strings     104
   858                           ;!    Constant    0
   859                           ;!    Data        63
   860                           ;!    BSS         13
   861                           ;!    Persistent  0
   862                           ;!    Stack       0
   863                           ;!
   864                           ;!Auto Spaces:
   865                           ;!    Space          Size  Autos    Used
   866                           ;!    COMMON           14     14      14
   867                           ;!    BANK0            80     44      74
   868                           ;!    BANK1            80      0      46
   869                           ;!    BANK3            96      0       0
   870                           ;!    BANK2            96      0       0
   871                           
   872                           ;!
   873                           ;!Pointer List with Targets:
   874                           ;!
   875                           ;!    ?_eprom_read	unsigned int  size(1) Largest target is 0
   876                           ;!
   877                           ;!    ?___llmod	unsigned long  size(1) Largest target is 0
   878                           ;!
   879                           ;!    ?___lldiv	unsigned long  size(1) Largest target is 0
   880                           ;!
   881                           ;!    ?_ar_i2c_read	unsigned int  size(1) Largest target is 36
   882                           ;!		 -> register_values(BANK1[36]), 
   883                           ;!
   884                           ;!    uart_sendstr@s	PTR const unsigned char  size(1) Largest target is 21
   885                           ;!		 -> STR_21(CODE[4]), STR_19(CODE[9]), STR_18(CODE[9]), STR_17(CODE[17]), 
   886                           ;!		 -> STR_15(CODE[8]), STR_13(CODE[9]), STR_11(CODE[9]), STR_9(CODE[17]), 
   887                           ;!		 -> STR_7(CODE[12]), STR_5(CODE[17]), STR_3(CODE[21]), 
   888                           ;!
   889                           ;!    send_string@s	PTR const unsigned char  size(1) Largest target is 17
   890                           ;!		 -> STR_20(CODE[4]), STR_16(CODE[17]), STR_14(CODE[8]), STR_12(CODE[9]), 
   891                           ;!		 -> STR_10(CODE[9]), STR_8(CODE[17]), STR_6(CODE[12]), STR_4(CODE[17]), 
   892                           ;!		 -> STR_2(CODE[14]), STR_1(CODE[7]), 
   893                           ;!
   894                           
   895                           
   896                           ;!
   897                           ;!Critical Paths under _main in COMMON
   898                           ;!
   899                           ;!    _main->_set_vol
   900                           ;!    _uart_init->_uart_tx
   901                           ;!    _ar1000_init->_ar_i2c_write
   902                           ;!    _lcd_clr->_send_config
   903                           ;!    _adjust_vol->_set_vol
   904                           ;!    _set_vol->_ar_i2c_write
   905                           ;!    _setAR1000->_ar_i2c_write
   906                           ;!    _send_dec->___lldiv
   907                           ;!    _send_string->_send_char
   908                           ;!    _lcd_goto->_send_config
   909                           ;!    _send_config->_delay
   910                           ;!    _uart_sendstr->_uart_tx
   911                           ;!    _send_char->_delay
   912                           ;!    _e_pulse->_delay
   913                           ;!
   914                           ;!Critical Paths under _main in BANK0
   915                           ;!
   916                           ;!    _main->_adjust_channel
   917                           ;!    _ar1000_init->_ar_i2c_read
   918                           ;!    _adjust_channel->_decrease_chan
   919                           ;!    _switch_channel->_send_dec
   920                           ;!    _adjust_vol->_set_vol
   921                           ;!    _decrease_chan->_send_dec
   922                           ;!    _increase_chan->_send_dec
   923                           ;!    _setAR1000->_ar_i2c_read
   924                           ;!
   925                           ;!Critical Paths under _main in BANK1
   926                           ;!
   927                           ;!    None.
   928                           ;!
   929                           ;!Critical Paths under _main in BANK3
   930                           ;!
   931                           ;!    None.
   932                           ;!
   933                           ;!Critical Paths under _main in BANK2
   934                           ;!
   935                           ;!    None.
   936                           
   937 ;;
   938 ;;Main: autosize = 0, tempsize = 4, incstack = 0, save=0
   939 ;;
   940                           
   941                           ;!
   942                           ;!Call Graph Tables:
   943                           ;!
   944                           ;! ---------------------------------------------------------------------------------
   945                           ;! (Depth) Function   	        Calls       Base Space   Used Autos Params    Refs
   946                           ;! ---------------------------------------------------------------------------------
   947                           ;! (0) _main                                                 4     4      0   13263
   948                           ;!                                             40 BANK0      4     4      0
   949                           ;!                              _delay
   950                           ;!                        _send_config
   951                           ;!                          _uart_init
   952                           ;!                  _ar_i2c_initialize
   953                           ;!                        _ar1000_init
   954                           ;!                        _send_string
   955                           ;!                           _lcd_goto
   956                           ;!                       _uart_sendstr
   957                           ;!                            _set_vol
   958                           ;!                            _lcd_clr
   959                           ;!                        _eeprom_read
   960                           ;!                        _eprom_write
   961                           ;!                     _switch_channel
   962                           ;!                     _adjust_channel
   963                           ;!                         _adjust_vol
   964                           ;! ---------------------------------------------------------------------------------
   965                           ;! (1) _ar_i2c_initialize                                    0     0      0       0
   966                           ;! ---------------------------------------------------------------------------------
   967                           ;! (1) _uart_init                                            0     0      0      22
   968                           ;!                            _uart_tx
   969                           ;! ---------------------------------------------------------------------------------
   970                           ;! (1) _ar1000_init                                          6     6      0     454
   971                           ;!                                              9 BANK0      6     6      0
   972                           ;!                              _delay
   973                           ;!                       _ar_i2c_write
   974                           ;!                        _ar_i2c_read
   975                           ;! ---------------------------------------------------------------------------------
   976                           ;! (1) _eeprom_read                                          2     2      0      22
   977                           ;!                                              0 COMMON     2     2      0
   978                           ;! ---------------------------------------------------------------------------------
   979                           ;! (1) _adjust_channel                                       6     6      0    8823
   980                           ;!                                             34 BANK0      6     6      0
   981                           ;!                      _decrease_chan
   982                           ;!                              _delay
   983                           ;!                      _increase_chan
   984                           ;!                        _eprom_write
   985                           ;!                            _lcd_clr
   986                           ;!                        _send_string
   987                           ;!                       _uart_sendstr
   988                           ;!                          _send_char
   989                           ;!                            _uart_tx
   990                           ;!                           _send_dec
   991                           ;!                     _switch_channel
   992                           ;!                           _lcd_goto
   993                           ;!                         _adjust_vol
   994                           ;! ---------------------------------------------------------------------------------
   995                           ;! (2) _eprom_write                                          3     1      2      45
   996                           ;!                                              0 COMMON     3     1      2
   997                           ;! ---------------------------------------------------------------------------------
   998                           ;! (2) _switch_channel                                       1     1      0    2285
   999                           ;!                                             30 BANK0      1     1      0
  1000                           ;!                            _lcd_clr
  1001                           ;!                        _send_string
  1002                           ;!                            _uart_tx
  1003                           ;!                       _uart_sendstr
  1004                           ;!                          _send_char
  1005                           ;!                         _eprom_read
  1006                           ;!                          _setAR1000
  1007                           ;!                           _send_dec
  1008                           ;! ---------------------------------------------------------------------------------
  1009                           ;! (3) _lcd_clr                                              0     0      0     157
  1010                           ;!                        _send_config
  1011                           ;!                              _delay
  1012                           ;! ---------------------------------------------------------------------------------
  1013                           ;! (1) _adjust_vol                                           3     3      0     650
  1014                           ;!                                              4 BANK0      3     3      0
  1015                           ;!                           _lcd_goto
  1016                           ;!                          _send_char
  1017                           ;!                            _uart_tx
  1018                           ;!                              _delay
  1019                           ;!                            _set_vol
  1020                           ;! ---------------------------------------------------------------------------------
  1021                           ;! (2) _set_vol                                              5     5      0     200
  1022                           ;!                                             13 COMMON     1     1      0
  1023                           ;!                                              0 BANK0      4     4      0
  1024                           ;!                       _ar_i2c_write
  1025                           ;! ---------------------------------------------------------------------------------
  1026                           ;! (3) _eprom_read                                           5     3      2      45
  1027                           ;!                                              0 COMMON     5     3      2
  1028                           ;! ---------------------------------------------------------------------------------
  1029                           ;! (2) _decrease_chan                                        4     4      0    1836
  1030                           ;!                                             30 BANK0      4     4      0
  1031                           ;!                          _setAR1000
  1032                           ;!                            _uart_tx
  1033                           ;!                       _uart_sendstr
  1034                           ;!                           _send_dec
  1035                           ;!                              _delay
  1036                           ;! ---------------------------------------------------------------------------------
  1037                           ;! (2) _increase_chan                                        0     0      0    1836
  1038                           ;!                          _setAR1000
  1039                           ;!                            _uart_tx
  1040                           ;!                       _uart_sendstr
  1041                           ;!                           _send_dec
  1042                           ;!                              _delay
  1043                           ;! ---------------------------------------------------------------------------------
  1044                           ;! (3) _setAR1000                                            5     3      2     387
  1045                           ;!                                              9 BANK0      5     3      2
  1046                           ;!                       _ar_i2c_write
  1047                           ;!                        _ar_i2c_read
  1048                           ;!                              _delay
  1049                           ;! ---------------------------------------------------------------------------------
  1050                           ;! (4) _ar_i2c_read                                         15    13      2     185
  1051                           ;!                                              0 COMMON     6     4      2
  1052                           ;!                                              0 BANK0      9     9      0
  1053                           ;! ---------------------------------------------------------------------------------
  1054                           ;! (3) _ar_i2c_write                                        13     8      5     134
  1055                           ;!                                              0 COMMON    13     8      5
  1056                           ;! ---------------------------------------------------------------------------------
  1057                           ;! (3) _send_dec                                            32    28      4    1315
  1058                           ;!                                              0 BANK0     30    26      4
  1059                           ;!                            ___lldiv
  1060                           ;!                            ___llmod
  1061                           ;!                           _lcd_goto
  1062                           ;!                        _send_string
  1063                           ;!                       _uart_sendstr
  1064                           ;!                          _send_char
  1065                           ;!                            _uart_tx
  1066                           ;!                              _delay
  1067                           ;! ---------------------------------------------------------------------------------
  1068                           ;! (4) _send_string                                          3     3      0     180
  1069                           ;!                                              9 COMMON     3     3      0
  1070                           ;!                          _send_char
  1071                           ;! ---------------------------------------------------------------------------------
  1072                           ;! (2) _lcd_goto                                             2     2      0     201
  1073                           ;!                                              9 COMMON     2     2      0
  1074                           ;!                        _send_config
  1075                           ;! ---------------------------------------------------------------------------------
  1076                           ;! (3) _send_config                                          1     1      0     112
  1077                           ;!                                              8 COMMON     1     1      0
  1078                           ;!                              _delay
  1079                           ;!                            _e_pulse
  1080                           ;! ---------------------------------------------------------------------------------
  1081                           ;! (4) _uart_sendstr                                         2     2      0      67
  1082                           ;!                                              1 COMMON     2     2      0
  1083                           ;!                            _uart_tx
  1084                           ;! ---------------------------------------------------------------------------------
  1085                           ;! (2) _uart_tx                                              1     1      0      22
  1086                           ;!                                              0 COMMON     1     1      0
  1087                           ;! ---------------------------------------------------------------------------------
  1088                           ;! (2) _send_char                                            1     1      0     112
  1089                           ;!                                              8 COMMON     1     1      0
  1090                           ;!                              _delay
  1091                           ;!                            _e_pulse
  1092                           ;! ---------------------------------------------------------------------------------
  1093                           ;! (3) _e_pulse                                              0     0      0      45
  1094                           ;!                              _delay
  1095                           ;! ---------------------------------------------------------------------------------
  1096                           ;! (2) _delay                                                8     4      4      45
  1097                           ;!                                              0 COMMON     8     4      4
  1098                           ;! ---------------------------------------------------------------------------------
  1099                           ;! (4) ___llmod                                             10     2      8     159
  1100                           ;!                                              0 COMMON    10     2      8
  1101                           ;! ---------------------------------------------------------------------------------
  1102                           ;! (4) ___lldiv                                             14     6      8     162
  1103                           ;!                                              0 COMMON    14     6      8
  1104                           ;! ---------------------------------------------------------------------------------
  1105                           ;! Estimated maximum stack depth 4
  1106                           ;! ---------------------------------------------------------------------------------
  1107                           ;!
  1108                           ;! Call Graph Graphs:
  1109                           ;!
  1110                           ;! _main (ROOT)
  1111                           ;!   _delay
  1112                           ;!   _send_config
  1113                           ;!     _delay
  1114                           ;!     _e_pulse
  1115                           ;!       _delay
  1116                           ;!   _uart_init
  1117                           ;!     _uart_tx
  1118                           ;!   _ar_i2c_initialize
  1119                           ;!   _ar1000_init
  1120                           ;!     _delay
  1121                           ;!     _ar_i2c_write
  1122                           ;!     _ar_i2c_read
  1123                           ;!   _send_string
  1124                           ;!     _send_char
  1125                           ;!       _delay
  1126                           ;!       _e_pulse
  1127                           ;!         _delay
  1128                           ;!   _lcd_goto
  1129                           ;!     _send_config
  1130                           ;!       _delay
  1131                           ;!       _e_pulse
  1132                           ;!         _delay
  1133                           ;!   _uart_sendstr
  1134                           ;!     _uart_tx
  1135                           ;!   _set_vol
  1136                           ;!     _ar_i2c_write
  1137                           ;!   _lcd_clr
  1138                           ;!     _send_config
  1139                           ;!       _delay
  1140                           ;!       _e_pulse
  1141                           ;!         _delay
  1142                           ;!     _delay
  1143                           ;!   _eeprom_read
  1144                           ;!   _eprom_write
  1145                           ;!   _switch_channel
  1146                           ;!     _lcd_clr
  1147                           ;!       _send_config
  1148                           ;!         _delay
  1149                           ;!         _e_pulse
  1150                           ;!           _delay
  1151                           ;!       _delay
  1152                           ;!     _send_string
  1153                           ;!       _send_char
  1154                           ;!         _delay
  1155                           ;!         _e_pulse
  1156                           ;!           _delay
  1157                           ;!     _uart_tx
  1158                           ;!     _uart_sendstr
  1159                           ;!       _uart_tx
  1160                           ;!     _send_char
  1161                           ;!       _delay
  1162                           ;!       _e_pulse
  1163                           ;!         _delay
  1164                           ;!     _eprom_read
  1165                           ;!     _setAR1000
  1166                           ;!       _ar_i2c_write
  1167                           ;!       _ar_i2c_read
  1168                           ;!       _delay
  1169                           ;!     _send_dec
  1170                           ;!       ___lldiv
  1171                           ;!       ___llmod
  1172                           ;!       _lcd_goto
  1173                           ;!         _send_config
  1174                           ;!           _delay
  1175                           ;!           _e_pulse
  1176                           ;!             _delay
  1177                           ;!       _send_string
  1178                           ;!         _send_char
  1179                           ;!           _delay
  1180                           ;!           _e_pulse
  1181                           ;!             _delay
  1182                           ;!       _uart_sendstr
  1183                           ;!         _uart_tx
  1184                           ;!       _send_char
  1185                           ;!         _delay
  1186                           ;!         _e_pulse
  1187                           ;!           _delay
  1188                           ;!       _uart_tx
  1189                           ;!       _delay
  1190                           ;!   _adjust_channel
  1191                           ;!     _decrease_chan
  1192                           ;!       _setAR1000
  1193                           ;!         _ar_i2c_write
  1194                           ;!         _ar_i2c_read
  1195                           ;!         _delay
  1196                           ;!       _uart_tx
  1197                           ;!       _uart_sendstr
  1198                           ;!         _uart_tx
  1199                           ;!       _send_dec
  1200                           ;!         ___lldiv
  1201                           ;!         ___llmod
  1202                           ;!         _lcd_goto
  1203                           ;!           _send_config
  1204                           ;!             _delay
  1205                           ;!             _e_pulse
  1206                           ;!               _delay
  1207                           ;!         _send_string
  1208                           ;!           _send_char
  1209                           ;!             _delay
  1210                           ;!             _e_pulse
  1211                           ;!               _delay
  1212                           ;!         _uart_sendstr
  1213                           ;!           _uart_tx
  1214                           ;!         _send_char
  1215                           ;!           _delay
  1216                           ;!           _e_pulse
  1217                           ;!             _delay
  1218                           ;!         _uart_tx
  1219                           ;!         _delay
  1220                           ;!       _delay
  1221                           ;!     _delay
  1222                           ;!     _increase_chan
  1223                           ;!       _setAR1000
  1224                           ;!         _ar_i2c_write
  1225                           ;!         _ar_i2c_read
  1226                           ;!         _delay
  1227                           ;!       _uart_tx
  1228                           ;!       _uart_sendstr
  1229                           ;!         _uart_tx
  1230                           ;!       _send_dec
  1231                           ;!         ___lldiv
  1232                           ;!         ___llmod
  1233                           ;!         _lcd_goto
  1234                           ;!           _send_config
  1235                           ;!             _delay
  1236                           ;!             _e_pulse
  1237                           ;!               _delay
  1238                           ;!         _send_string
  1239                           ;!           _send_char
  1240                           ;!             _delay
  1241                           ;!             _e_pulse
  1242                           ;!               _delay
  1243                           ;!         _uart_sendstr
  1244                           ;!           _uart_tx
  1245                           ;!         _send_char
  1246                           ;!           _delay
  1247                           ;!           _e_pulse
  1248                           ;!             _delay
  1249                           ;!         _uart_tx
  1250                           ;!         _delay
  1251                           ;!       _delay
  1252                           ;!     _eprom_write
  1253                           ;!     _lcd_clr
  1254                           ;!       _send_config
  1255                           ;!         _delay
  1256                           ;!         _e_pulse
  1257                           ;!           _delay
  1258                           ;!       _delay
  1259                           ;!     _send_string
  1260                           ;!       _send_char
  1261                           ;!         _delay
  1262                           ;!         _e_pulse
  1263                           ;!           _delay
  1264                           ;!     _uart_sendstr
  1265                           ;!       _uart_tx
  1266                           ;!     _send_char
  1267                           ;!       _delay
  1268                           ;!       _e_pulse
  1269                           ;!         _delay
  1270                           ;!     _uart_tx
  1271                           ;!     _send_dec
  1272                           ;!       ___lldiv
  1273                           ;!       ___llmod
  1274                           ;!       _lcd_goto
  1275                           ;!         _send_config
  1276                           ;!           _delay
  1277                           ;!           _e_pulse
  1278                           ;!             _delay
  1279                           ;!       _send_string
  1280                           ;!         _send_char
  1281                           ;!           _delay
  1282                           ;!           _e_pulse
  1283                           ;!             _delay
  1284                           ;!       _uart_sendstr
  1285                           ;!         _uart_tx
  1286                           ;!       _send_char
  1287                           ;!         _delay
  1288                           ;!         _e_pulse
  1289                           ;!           _delay
  1290                           ;!       _uart_tx
  1291                           ;!       _delay
  1292                           ;!     _switch_channel
  1293                           ;!       _lcd_clr
  1294                           ;!         _send_config
  1295                           ;!           _delay
  1296                           ;!           _e_pulse
  1297                           ;!             _delay
  1298                           ;!         _delay
  1299                           ;!       _send_string
  1300                           ;!         _send_char
  1301                           ;!           _delay
  1302                           ;!           _e_pulse
  1303                           ;!             _delay
  1304                           ;!       _uart_tx
  1305                           ;!       _uart_sendstr
  1306                           ;!         _uart_tx
  1307                           ;!       _send_char
  1308                           ;!         _delay
  1309                           ;!         _e_pulse
  1310                           ;!           _delay
  1311                           ;!       _eprom_read
  1312                           ;!       _setAR1000
  1313                           ;!         _ar_i2c_write
  1314                           ;!         _ar_i2c_read
  1315                           ;!         _delay
  1316                           ;!       _send_dec
  1317                           ;!         ___lldiv
  1318                           ;!         ___llmod
  1319                           ;!         _lcd_goto
  1320                           ;!           _send_config
  1321                           ;!             _delay
  1322                           ;!             _e_pulse
  1323                           ;!               _delay
  1324                           ;!         _send_string
  1325                           ;!           _send_char
  1326                           ;!             _delay
  1327                           ;!             _e_pulse
  1328                           ;!               _delay
  1329                           ;!         _uart_sendstr
  1330                           ;!           _uart_tx
  1331                           ;!         _send_char
  1332                           ;!           _delay
  1333                           ;!           _e_pulse
  1334                           ;!             _delay
  1335                           ;!         _uart_tx
  1336                           ;!         _delay
  1337                           ;!     _lcd_goto
  1338                           ;!       _send_config
  1339                           ;!         _delay
  1340                           ;!         _e_pulse
  1341                           ;!           _delay
  1342                           ;!     _adjust_vol
  1343                           ;!       _lcd_goto
  1344                           ;!         _send_config
  1345                           ;!           _delay
  1346                           ;!           _e_pulse
  1347                           ;!             _delay
  1348                           ;!       _send_char
  1349                           ;!         _delay
  1350                           ;!         _e_pulse
  1351                           ;!           _delay
  1352                           ;!       _uart_tx
  1353                           ;!       _delay
  1354                           ;!       _set_vol
  1355                           ;!         _ar_i2c_write
  1356                           ;!   _adjust_vol
  1357                           ;!     _lcd_goto
  1358                           ;!       _send_config
  1359                           ;!         _delay
  1360                           ;!         _e_pulse
  1361                           ;!           _delay
  1362                           ;!     _send_char
  1363                           ;!       _delay
  1364                           ;!       _e_pulse
  1365                           ;!         _delay
  1366                           ;!     _uart_tx
  1367                           ;!     _delay
  1368                           ;!     _set_vol
  1369                           ;!       _ar_i2c_write
  1370                           ;!
  1371                           
  1372                           ;! Address spaces:
  1373                           
  1374                           ;!Name               Size   Autos  Total    Cost      Usage
  1375                           ;!BANK3               60      0       0       9        0.0%
  1376                           ;!BITBANK3            60      0       0       8        0.0%
  1377                           ;!SFR3                 0      0       0       4        0.0%
  1378                           ;!BITSFR3              0      0       0       4        0.0%
  1379                           ;!BANK2               60      0       0      11        0.0%
  1380                           ;!BITBANK2            60      0       0      10        0.0%
  1381                           ;!SFR2                 0      0       0       5        0.0%
  1382                           ;!BITSFR2              0      0       0       5        0.0%
  1383                           ;!BANK1               50      0      2E       7       57.5%
  1384                           ;!BITBANK1            50      0       0       6        0.0%
  1385                           ;!SFR1                 0      0       0       2        0.0%
  1386                           ;!BITSFR1              0      0       0       2        0.0%
  1387                           ;!BANK0               50     2C      4A       5       92.5%
  1388                           ;!BITBANK0            50      0       0       4        0.0%
  1389                           ;!SFR0                 0      0       0       1        0.0%
  1390                           ;!BITSFR0              0      0       0       1        0.0%
  1391                           ;!COMMON               E      E       E       1      100.0%
  1392                           ;!BITCOMMON            E      0       0       0        0.0%
  1393                           ;!CODE                 0      0       0       0        0.0%
  1394                           ;!DATA                 0      0      8D      12        0.0%
  1395                           ;!ABS                  0      0      86       3        0.0%
  1396                           ;!NULL                 0      0       0       0        0.0%
  1397                           ;!STACK                0      0       7       2        0.0%
  1398                           ;!EEDATA             100      0       0       0        0.0%
  1399                           
  1400                           	global	_main
  1401                           
  1402 ;; *************** function _main *****************
  1403 ;; Defined at:
  1404 ;;		line 116 in file "PR31_final.c"
  1405 ;; Parameters:    Size  Location     Type
  1406 ;;		None
  1407 ;; Auto vars:     Size  Location     Type
  1408 ;;		None
  1409 ;; Return value:  Size  Location     Type
  1410 ;;                  2  267[COMMON] int 
  1411 ;; Registers used:
  1412 ;;		wreg, fsr0l, fsr0h, status,2, status,0, btemp+1, pclath, cstack
  1413 ;; Tracked objects:
  1414 ;;		On entry : 17F/0
  1415 ;;		On exit  : 0/0
  1416 ;;		Unchanged: 0/0
  1417 ;; Data sizes:     COMMON   BANK0   BANK1   BANK3   BANK2
  1418 ;;      Params:         0       0       0       0       0
  1419 ;;      Locals:         0       0       0       0       0
  1420 ;;      Temps:          0       4       0       0       0
  1421 ;;      Totals:         0       4       0       0       0
  1422 ;;Total ram usage:        4 bytes
  1423 ;; Hardware stack levels required when called:    7
  1424 ;; This function calls:
  1425 ;;		_delay
  1426 ;;		_send_config
  1427 ;;		_uart_init
  1428 ;;		_ar_i2c_initialize
  1429 ;;		_ar1000_init
  1430 ;;		_send_string
  1431 ;;		_lcd_goto
  1432 ;;		_uart_sendstr
  1433 ;;		_set_vol
  1434 ;;		_lcd_clr
  1435 ;;		_eeprom_read
  1436 ;;		_eprom_write
  1437 ;;		_switch_channel
  1438 ;;		_adjust_channel
  1439 ;;		_adjust_vol
  1440 ;; This function is called by:
  1441 ;;		Startup code after reset
  1442 ;; This function uses a non-reentrant model
  1443 ;;
  1444                           psect	maintext,global,class=CODE,delta=2,split=1
  1445                           global __pmaintext
  1446  02C2                     __pmaintext:
  1447                           psect	maintext
  1448                           	file	"PR31_final.c"
  1449                           	line	116
  1450                           	global	__size_of_main
  1451  012C                     	__size_of_main	equ	__end_of_main-_main
  1452                           	
  1453  02C2                     _main:	
  1454                           	opt	stack 1
  1455                           ; Regs used in _main: [wreg-fsr0h+status,2+status,0+btemp+1+pclath+cstack]
  1456                           	line	118
  1457                           	
  1458  02C2                     l2150:	
  1459                           ;PR31_final.c: 118: delay(5000);
  1460  02C2  3000               	movlw	0
  1461  02C3  00F3               	movwf	(?_delay+3)
  1462  02C4  3000               	movlw	0
  1463  02C5  00F2               	movwf	(?_delay+2)
  1464  02C6  3013               	movlw	013h
  1465  02C7  00F1               	movwf	(?_delay+1)
  1466  02C8  3088               	movlw	088h
  1467  02C9  00F0               	movwf	(?_delay)
  1468                           
  1469  02CA  120A  118A  202B   	fcall	_delay
              120A  118A         
  1470                           	line	120
  1471                           	
  1472  02CF                     l2152:	
  1473                           ;PR31_final.c: 120: TRISA = 0b11111111;
  1474  02CF  30FF               	movlw	(0FFh)
  1475  02D0  1683               	bsf	status, 5	;RP0=1, select bank1
  1476  02D1  1303               	bcf	status, 6	;RP1=0, select bank1
  1477  02D2  0085               	movwf	(133)^080h	;volatile
  1478                           	line	121
  1479                           	
  1480  02D3                     l2154:	
  1481                           ;PR31_final.c: 121: TRISB = 0b00001111;
  1482  02D3  300F               	movlw	(0Fh)
  1483  02D4  0086               	movwf	(134)^080h	;volatile
  1484                           	line	122
  1485                           	
  1486  02D5                     l2156:	
  1487                           ;PR31_final.c: 122: TRISD = 0b00000000;
  1488  02D5  0188               	clrf	(136)^080h	;volatile
  1489                           	line	123
  1490                           	
  1491  02D6                     l2158:	
  1492                           ;PR31_final.c: 123: PORTA = 0;
  1493  02D6  1283               	bcf	status, 5	;RP0=0, select bank0
  1494  02D7  1303               	bcf	status, 6	;RP1=0, select bank0
  1495  02D8  0185               	clrf	(5)	;volatile
  1496                           	line	124
  1497                           	
  1498  02D9                     l2160:	
  1499                           ;PR31_final.c: 124: PORTB = 0;
  1500  02D9  0186               	clrf	(6)	;volatile
  1501                           	line	125
  1502                           	
  1503  02DA                     l2162:	
  1504                           ;PR31_final.c: 125: PORTD = 0;
  1505  02DA  0188               	clrf	(8)	;volatile
  1506                           	line	129
  1507                           ;PR31_final.c: 129: send_config(0b00000001);
  1508  02DB  3001               	movlw	(01h)
  1509  02DC  120A  158A  2372   	fcall	_send_config
              120A  118A         
  1510                           	line	130
  1511                           ;PR31_final.c: 130: send_config(0b00000010);
  1512  02E1  3002               	movlw	(02h)
  1513  02E2  120A  158A  2372   	fcall	_send_config
              120A  118A         
  1514                           	line	131
  1515                           ;PR31_final.c: 131: send_config(0b00000110);
  1516  02E7  3006               	movlw	(06h)
  1517  02E8  120A  158A  2372   	fcall	_send_config
              120A  118A         
  1518                           	line	132
  1519                           ;PR31_final.c: 132: send_config(0b00001100);
  1520  02ED  300C               	movlw	(0Ch)
  1521  02EE  120A  158A  2372   	fcall	_send_config
              120A  118A         
  1522                           	line	133
  1523                           ;PR31_final.c: 133: send_config(0b00111000);
  1524  02F3  3038               	movlw	(038h)
  1525  02F4  120A  158A  2372   	fcall	_send_config
              120A  118A         
  1526                           	line	136
  1527                           ;PR31_final.c: 136: uart_init();
  1528  02F9  120A  158A  2344   	fcall	_uart_init
              120A  118A         
  1529                           	line	137
  1530                           ;PR31_final.c: 137: ar_i2c_initialize();
  1531  02FE  120A  158A  2310   	fcall	_ar_i2c_initialize
              120A  118A         
  1532                           	line	138
  1533                           	
  1534  0303                     l2164:	
  1535                           ;PR31_final.c: 138: ar1000_init();
  1536  0303  120A  158A  275A   	fcall	_ar1000_init
              120A  118A         
  1537                           	line	140
  1538                           	
  1539  0308                     l2166:	
  1540                           ;PR31_final.c: 140: send_string("PR31 :");
  1541  0308  305E               	movlw	((STR_1-__stringbase))&0ffh
  1542  0309  120A  118A  2004   	fcall	_send_string
              120A  118A         
  1543                           	line	141
  1544                           	
  1545  030E                     l2168:	
  1546                           ;PR31_final.c: 141: lcd_goto(20);
  1547  030E  3014               	movlw	(014h)
  1548  030F  120A  158A  23A5   	fcall	_lcd_goto
              120A  118A         
  1549                           	line	142
  1550                           	
  1551  0314                     l2170:	
  1552                           ;PR31_final.c: 142: send_string("Digital Radio");
  1553  0314  3008               	movlw	((STR_2-__stringbase))&0ffh
  1554  0315  120A  118A  2004   	fcall	_send_string
              120A  118A         
  1555                           	line	143
  1556                           	
  1557  031A                     l2172:	
  1558                           ;PR31_final.c: 143: uart_sendstr("PR31 = Digital Radio");
  1559  031A  3001               	movlw	((STR_3-__stringbase))&0ffh
  1560  031B  120A  158A  246C   	fcall	_uart_sendstr
              120A  118A         
  1561                           	line	144
  1562                           	
  1563  0320                     l2174:	
  1564                           ;PR31_final.c: 144: set_vol(8);
  1565  0320  3008               	movlw	(08h)
  1566  0321  120A  118A  205B   	fcall	_set_vol
              120A  118A         
  1567                           	line	145
  1568                           	
  1569  0326                     l2176:	
  1570                           ;PR31_final.c: 145: delay(150000);
  1571  0326  3000               	movlw	0
  1572  0327  00F3               	movwf	(?_delay+3)
  1573  0328  3002               	movlw	02h
  1574  0329  00F2               	movwf	(?_delay+2)
  1575  032A  3049               	movlw	049h
  1576  032B  00F1               	movwf	(?_delay+1)
  1577  032C  30F0               	movlw	0F0h
  1578  032D  00F0               	movwf	(?_delay)
  1579                           
  1580  032E  120A  118A  202B   	fcall	_delay
              120A  118A         
  1581                           	line	147
  1582                           	
  1583  0333                     l2178:	
  1584                           ;PR31_final.c: 147: lcd_clr();
  1585  0333  120A  158A  238B   	fcall	_lcd_clr
              120A  118A         
  1586                           	line	148
  1587                           ;PR31_final.c: 148: send_string("sw1=chan sw2=vol");
  1588  0338  3027               	movlw	((STR_4-__stringbase))&0ffh
  1589  0339  120A  118A  2004   	fcall	_send_string
              120A  118A         
  1590                           	line	149
  1591                           ;PR31_final.c: 149: uart_sendstr("sw1=chan sw2=vol");
  1592  033E  3027               	movlw	((STR_5-__stringbase))&0ffh
  1593  033F  120A  158A  246C   	fcall	_uart_sendstr
              120A  118A         
  1594                           	line	150
  1595                           	
  1596  0344                     l2180:	
  1597                           ;PR31_final.c: 150: lcd_goto(20);
  1598  0344  3014               	movlw	(014h)
  1599  0345  120A  158A  23A5   	fcall	_lcd_goto
              120A  118A         
  1600                           	line	151
  1601                           	
  1602  034A                     l2182:	
  1603                           ;PR31_final.c: 151: send_string("sw1(1s)=set");
  1604  034A  3038               	movlw	((STR_6-__stringbase))&0ffh
  1605  034B  120A  118A  2004   	fcall	_send_string
              120A  118A         
  1606                           	line	152
  1607                           	
  1608  0350                     l2184:	
  1609                           ;PR31_final.c: 152: uart_sendstr("sw1(1s)=set");
  1610  0350  3038               	movlw	((STR_7-__stringbase))&0ffh
  1611  0351  120A  158A  246C   	fcall	_uart_sendstr
              120A  118A         
  1612                           	line	155
  1613                           	
  1614  0356                     l2186:	
  1615                           ;PR31_final.c: 155: for (i=1;i<7;i++)
  1616  0356  1283               	bcf	status, 5	;RP0=0, select bank0
  1617  0357  1303               	bcf	status, 6	;RP1=0, select bank0
  1618  0358  01E7               	clrf	(_i)
  1619  0359  1403               	bsf	status,0
  1620  035A  0DE7               	rlf	(_i),f
  1621                           	
  1622  035B                     l2188:	
  1623  035B  3007               	movlw	(07h)
  1624  035C  0267               	subwf	(_i),w
  1625  035D  1C03               	skipc
  1626  035E  2B60               	goto	u2101
  1627  035F  2B61               	goto	u2100
  1628  0360                     u2101:
  1629  0360  2B63               	goto	l2192
  1630  0361                     u2100:
  1631  0361  2BA8               	goto	l271
  1632                           	
  1633  0362                     l2190:	
  1634  0362  2BA8               	goto	l271
  1635                           	line	156
  1636                           	
  1637  0363                     l268:	
  1638                           	line	157
  1639                           	
  1640  0363                     l2192:	
  1641                           ;PR31_final.c: 156: {
  1642                           ;PR31_final.c: 157: freq_kHz = eeprom_read(i);
  1643  0363  0867               	movf	(_i),w
  1644  0364  120A  158A  23E0   	fcall	_eeprom_read
              120A  118A         
  1645  0369  1283               	bcf	status, 5	;RP0=0, select bank0
  1646  036A  1303               	bcf	status, 6	;RP1=0, select bank0
  1647  036B  00C8               	movwf	(??_main+0)+0
  1648  036C  01C9               	clrf	((??_main+0)+0+1)
  1649  036D  01CA               	clrf	((??_main+0)+0+2)
  1650  036E  01CB               	clrf	((??_main+0)+0+3)
  1651  036F  084B               	movf	3+(??_main+0)+0,w
  1652  0370  00E4               	movwf	(_freq_kHz+3)
  1653  0371  084A               	movf	2+(??_main+0)+0,w
  1654  0372  00E3               	movwf	(_freq_kHz+2)
  1655  0373  0849               	movf	1+(??_main+0)+0,w
  1656  0374  00E2               	movwf	(_freq_kHz+1)
  1657  0375  0848               	movf	0+(??_main+0)+0,w
  1658  0376  00E1               	movwf	(_freq_kHz)
  1659                           
  1660                           	line	158
  1661                           	
  1662  0377                     l2194:	
  1663                           ;PR31_final.c: 158: if (freq_kHz==255)
  1664  0377  3000               	movlw	0
  1665  0378  0664               	xorwf	(_freq_kHz+3),w
  1666  0379  1D03               	skipz
  1667  037A  2B85               	goto	u2115
  1668  037B  3000               	movlw	0
  1669  037C  0663               	xorwf	(_freq_kHz+2),w
  1670  037D  1D03               	skipz
  1671  037E  2B85               	goto	u2115
  1672  037F  3000               	movlw	0
  1673  0380  0662               	xorwf	(_freq_kHz+1),w
  1674  0381  1D03               	skipz
  1675  0382  2B85               	goto	u2115
  1676  0383  30FF               	movlw	0FFh
  1677  0384  0661               	xorwf	(_freq_kHz),w
  1678  0385                     u2115:
  1679  0385  1D03               	skipz
  1680  0386  2B88               	goto	u2111
  1681  0387  2B89               	goto	u2110
  1682  0388                     u2111:
  1683  0388  2B9B               	goto	l2198
  1684  0389                     u2110:
  1685                           	line	159
  1686                           	
  1687  0389                     l2196:	
  1688                           ;PR31_final.c: 159: eprom_write (i,prog_chan[i]);
  1689  0389  0867               	movf	(_i),w
  1690  038A  3E56               	addlw	_prog_chan&0ffh
  1691  038B  0084               	movwf	fsr0
  1692  038C  1383               	bcf	status, 7	;select IRP bank0
  1693  038D  0800               	movf	indf,w
  1694  038E  00C8               	movwf	(??_main+0)+0+0
  1695  038F  01C9               	clrf	(??_main+0)+0+1
  1696  0390  0848               	movf	0+(??_main+0)+0,w
  1697  0391  00F0               	movwf	(?_eprom_write)
  1698  0392  0849               	movf	1+(??_main+0)+0,w
  1699  0393  00F1               	movwf	(?_eprom_write+1)
  1700  0394  0867               	movf	(_i),w
  1701  0395  120A  158A  23C2   	fcall	_eprom_write
              120A  118A         
  1702  039A  2B9B               	goto	l2198
  1703                           	
  1704  039B                     l270:	
  1705                           	line	155
  1706                           	
  1707  039B                     l2198:	
  1708  039B  3001               	movlw	(01h)
  1709  039C  1283               	bcf	status, 5	;RP0=0, select bank0
  1710  039D  1303               	bcf	status, 6	;RP1=0, select bank0
  1711  039E  00C8               	movwf	(??_main+0)+0
  1712  039F  0848               	movf	(??_main+0)+0,w
  1713  03A0  07E7               	addwf	(_i),f
  1714                           	
  1715  03A1                     l2200:	
  1716  03A1  3007               	movlw	(07h)
  1717  03A2  0267               	subwf	(_i),w
  1718  03A3  1C03               	skipc
  1719  03A4  2BA6               	goto	u2121
  1720  03A5  2BA7               	goto	u2120
  1721  03A6                     u2121:
  1722  03A6  2B63               	goto	l2192
  1723  03A7                     u2120:
  1724  03A7  2BA8               	goto	l271
  1725                           	
  1726  03A8                     l269:	
  1727                           	line	162
  1728                           ;PR31_final.c: 160: }
  1729                           ;PR31_final.c: 162: while(1)
  1730                           	
  1731  03A8                     l271:	
  1732                           	line	165
  1733                           ;PR31_final.c: 163: {
  1734                           ;PR31_final.c: 165: if(RB0==0)
  1735  03A8  1283               	bcf	status, 5	;RP0=0, select bank0
  1736  03A9  1303               	bcf	status, 6	;RP1=0, select bank0
  1737  03AA  1806               	btfsc	(48/8),(48)&7	;volatile
  1738  03AB  2BAD               	goto	u2131
  1739  03AC  2BAE               	goto	u2130
  1740  03AD                     u2131:
  1741  03AD  2BC0               	goto	l2206
  1742  03AE                     u2130:
  1743  03AE  2BB0               	goto	l273
  1744                           	line	167
  1745                           	
  1746  03AF                     l2202:	
  1747                           ;PR31_final.c: 166: {
  1748                           ;PR31_final.c: 167: while (RB0==0);
  1749  03AF  2BB0               	goto	l273
  1750                           	
  1751  03B0                     l274:	
  1752                           	
  1753  03B0                     l273:	
  1754  03B0  1C06               	btfss	(48/8),(48)&7	;volatile
  1755  03B1  2BB3               	goto	u2141
  1756  03B2  2BB4               	goto	u2140
  1757  03B3                     u2141:
  1758  03B3  2BB0               	goto	l273
  1759  03B4                     u2140:
  1760  03B4  2BB5               	goto	l2204
  1761                           	
  1762  03B5                     l275:	
  1763                           	line	168
  1764                           	
  1765  03B5                     l2204:	
  1766                           ;PR31_final.c: 168: switch_channel();
  1767  03B5  120A  158A  2523   	fcall	_switch_channel
              120A  118A         
  1768                           	line	169
  1769                           ;PR31_final.c: 169: adjust_channel();
  1770  03BA  120A  118A  251E   	fcall	_adjust_channel
              120A  118A         
  1771  03BF  2BC0               	goto	l2206
  1772                           	line	170
  1773                           	
  1774  03C0                     l272:	
  1775                           	line	172
  1776                           	
  1777  03C0                     l2206:	
  1778                           ;PR31_final.c: 170: }
  1779                           ;PR31_final.c: 172: if (RB1 == 0)
  1780  03C0  1283               	bcf	status, 5	;RP0=0, select bank0
  1781  03C1  1303               	bcf	status, 6	;RP1=0, select bank0
  1782  03C2  1886               	btfsc	(49/8),(49)&7	;volatile
  1783  03C3  2BC5               	goto	u2151
  1784  03C4  2BC6               	goto	u2150
  1785  03C5                     u2151:
  1786  03C5  2BA8               	goto	l271
  1787  03C6                     u2150:
  1788  03C6  2BC8               	goto	l277
  1789                           	line	174
  1790                           	
  1791  03C7                     l2208:	
  1792                           ;PR31_final.c: 173: {
  1793                           ;PR31_final.c: 174: while (RB1 == 0);
  1794  03C7  2BC8               	goto	l277
  1795                           	
  1796  03C8                     l278:	
  1797                           	
  1798  03C8                     l277:	
  1799  03C8  1C86               	btfss	(49/8),(49)&7	;volatile
  1800  03C9  2BCB               	goto	u2161
  1801  03CA  2BCC               	goto	u2160
  1802  03CB                     u2161:
  1803  03CB  2BC8               	goto	l277
  1804  03CC                     u2160:
  1805  03CC  2BCD               	goto	l2210
  1806                           	
  1807  03CD                     l279:	
  1808                           	line	175
  1809                           	
  1810  03CD                     l2210:	
  1811                           ;PR31_final.c: 175: lcd_goto(0);
  1812  03CD  3000               	movlw	(0)
  1813  03CE  120A  158A  23A5   	fcall	_lcd_goto
              120A  118A         
  1814                           	line	176
  1815                           	
  1816  03D3                     l2212:	
  1817                           ;PR31_final.c: 176: send_string("volume level=   ");
  1818  03D3  3016               	movlw	((STR_8-__stringbase))&0ffh
  1819  03D4  120A  118A  2004   	fcall	_send_string
              120A  118A         
  1820                           	line	177
  1821                           	
  1822  03D9                     l2214:	
  1823                           ;PR31_final.c: 177: uart_sendstr("volume level=   ");
  1824  03D9  3016               	movlw	((STR_9-__stringbase))&0ffh
  1825  03DA  120A  158A  246C   	fcall	_uart_sendstr
              120A  118A         
  1826                           	line	178
  1827                           	
  1828  03DF                     l2216:	
  1829                           ;PR31_final.c: 178: m -= 1;
  1830  03DF  3001               	movlw	low(01h)
  1831  03E0  1283               	bcf	status, 5	;RP0=0, select bank0
  1832  03E1  1303               	bcf	status, 6	;RP1=0, select bank0
  1833  03E2  02E8               	subwf	(_m),f
  1834                           	line	179
  1835                           	
  1836  03E3                     l2218:	
  1837                           ;PR31_final.c: 179: adjust_vol ();
  1838  03E3  120A  118A  2106   	fcall	_adjust_vol
              120A  118A         
  1839  03E8  2BA8               	goto	l271
  1840                           	line	180
  1841                           	
  1842  03E9                     l276:	
  1843  03E9  2BA8               	goto	l271
  1844                           	line	182
  1845                           	
  1846  03EA                     l280:	
  1847                           	line	162
  1848  03EA  2BA8               	goto	l271
  1849                           	
  1850  03EB                     l281:	
  1851                           	line	183
  1852                           	
  1853  03EB                     l282:	
  1854                           	global	start
  1855  03EB  120A  118A  2800   	ljmp	start
  1856                           	opt stack 0
  1857                           GLOBAL	__end_of_main
  1858  03EE                     	__end_of_main:
  1859                           	signat	_main,90
  1860                           	global	_ar_i2c_initialize
  1861                           
  1862 ;; *************** function _ar_i2c_initialize *****************
  1863 ;; Defined at:
  1864 ;;		line 39 in file "i2c_ar1000.c"
  1865 ;; Parameters:    Size  Location     Type
  1866 ;;		None
  1867 ;; Auto vars:     Size  Location     Type
  1868 ;;		None
  1869 ;; Return value:  Size  Location     Type
  1870 ;;		None               void
  1871 ;; Registers used:
  1872 ;;		wreg
  1873 ;; Tracked objects:
  1874 ;;		On entry : 0/0
  1875 ;;		On exit  : 0/0
  1876 ;;		Unchanged: 0/0
  1877 ;; Data sizes:     COMMON   BANK0   BANK1   BANK3   BANK2
  1878 ;;      Params:         0       0       0       0       0
  1879 ;;      Locals:         0       0       0       0       0
  1880 ;;      Temps:          0       0       0       0       0
  1881 ;;      Totals:         0       0       0       0       0
  1882 ;;Total ram usage:        0 bytes
  1883 ;; Hardware stack levels used:    1
  1884 ;; This function calls:
  1885 ;;		Nothing
  1886 ;; This function is called by:
  1887 ;;		_main
  1888 ;; This function uses a non-reentrant model
  1889 ;;
  1890                           psect	text573,local,class=CODE,delta=2,merge=1
  1891                           global __ptext573
  1892  0B10                     __ptext573:
  1893                           psect	text573
  1894                           	file	"i2c_ar1000.c"
  1895                           	line	39
  1896                           	global	__size_of_ar_i2c_initialize
  1897  0010                     	__size_of_ar_i2c_initialize	equ	__end_of_ar_i2c_initialize-_ar_i2c_initialize
  1898                           	
  1899  0B10                     _ar_i2c_initialize:	
  1900                           	opt	stack 7
  1901                           ; Regs used in _ar_i2c_initialize: [wreg]
  1902                           	line	41
  1903                           	
  1904  0B10                     l1618:	
  1905                           ;i2c_ar1000.c: 41: TRISC3 = 1;
  1906  0B10  1683               	bsf	status, 5	;RP0=1, select bank1
  1907  0B11  1303               	bcf	status, 6	;RP1=0, select bank1
  1908  0B12  1587               	bsf	(1083/8)^080h,(1083)&7	;volatile
  1909                           	line	42
  1910                           ;i2c_ar1000.c: 42: TRISC4 = 1;
  1911  0B13  1607               	bsf	(1084/8)^080h,(1084)&7	;volatile
  1912                           	line	46
  1913                           	
  1914  0B14                     l1620:	
  1915                           ;i2c_ar1000.c: 46: SSPADD = 12;
  1916  0B14  300C               	movlw	(0Ch)
  1917  0B15  0093               	movwf	(147)^080h	;volatile
  1918                           	line	49
  1919                           	
  1920  0B16                     l1622:	
  1921                           ;i2c_ar1000.c: 49: SSPM3 = 1;
  1922  0B16  1283               	bcf	status, 5	;RP0=0, select bank0
  1923  0B17  1303               	bcf	status, 6	;RP1=0, select bank0
  1924  0B18  1594               	bsf	(163/8),(163)&7	;volatile
  1925                           	line	50
  1926                           	
  1927  0B19                     l1624:	
  1928                           ;i2c_ar1000.c: 50: SSPM2 = 0;
  1929  0B19  1114               	bcf	(162/8),(162)&7	;volatile
  1930                           	line	51
  1931                           	
  1932  0B1A                     l1626:	
  1933                           ;i2c_ar1000.c: 51: SSPM1 = 0;
  1934  0B1A  1094               	bcf	(161/8),(161)&7	;volatile
  1935                           	line	52
  1936                           	
  1937  0B1B                     l1628:	
  1938                           ;i2c_ar1000.c: 52: SSPM0 = 0;
  1939  0B1B  1014               	bcf	(160/8),(160)&7	;volatile
  1940                           	line	55
  1941                           	
  1942  0B1C                     l1630:	
  1943                           ;i2c_ar1000.c: 55: WCOL = 0;
  1944  0B1C  1394               	bcf	(167/8),(167)&7	;volatile
  1945                           	line	58
  1946                           	
  1947  0B1D                     l1632:	
  1948                           ;i2c_ar1000.c: 58: SSPOV = 0;
  1949  0B1D  1314               	bcf	(166/8),(166)&7	;volatile
  1950                           	line	61
  1951                           	
  1952  0B1E                     l1634:	
  1953                           ;i2c_ar1000.c: 61: SSPEN = 1;
  1954  0B1E  1694               	bsf	(165/8),(165)&7	;volatile
  1955                           	line	64
  1956                           	
  1957  0B1F                     l43:	
  1958  0B1F  0008               	return
  1959                           	opt stack 0
  1960                           GLOBAL	__end_of_ar_i2c_initialize
  1961  0B20                     	__end_of_ar_i2c_initialize:
  1962                           	signat	_ar_i2c_initialize,88
  1963                           	global	_uart_init
  1964                           
  1965 ;; *************** function _uart_init *****************
  1966 ;; Defined at:
  1967 ;;		line 516 in file "PR31_final.c"
  1968 ;; Parameters:    Size  Location     Type
  1969 ;;		None
  1970 ;; Auto vars:     Size  Location     Type
  1971 ;;		None
  1972 ;; Return value:  Size  Location     Type
  1973 ;;		None               void
  1974 ;; Registers used:
  1975 ;;		wreg, status,2, status,0, pclath, cstack
  1976 ;; Tracked objects:
  1977 ;;		On entry : 0/0
  1978 ;;		On exit  : 0/0
  1979 ;;		Unchanged: 0/0
  1980 ;; Data sizes:     COMMON   BANK0   BANK1   BANK3   BANK2
  1981 ;;      Params:         0       0       0       0       0
  1982 ;;      Locals:         0       0       0       0       0
  1983 ;;      Temps:          0       0       0       0       0
  1984 ;;      Totals:         0       0       0       0       0
  1985 ;;Total ram usage:        0 bytes
  1986 ;; Hardware stack levels used:    1
  1987 ;; Hardware stack levels required when called:    1
  1988 ;; This function calls:
  1989 ;;		_uart_tx
  1990 ;; This function is called by:
  1991 ;;		_main
  1992 ;; This function uses a non-reentrant model
  1993 ;;
  1994                           psect	text574,local,class=CODE,delta=2,merge=1
  1995                           global __ptext574
  1996  0B44                     __ptext574:
  1997                           psect	text574
  1998                           	file	"PR31_final.c"
  1999                           	line	516
  2000                           	global	__size_of_uart_init
  2001  0015                     	__size_of_uart_init	equ	__end_of_uart_init-_uart_init
  2002                           	
  2003  0B44                     _uart_init:	
  2004                           	opt	stack 6
  2005                           ; Regs used in _uart_init: [wreg+status,2+status,0+pclath+cstack]
  2006                           	line	517
  2007                           	
  2008  0B44                     l1808:	
  2009                           ;PR31_final.c: 517: BRGH = 1;
  2010  0B44  1683               	bsf	status, 5	;RP0=1, select bank1
  2011  0B45  1303               	bcf	status, 6	;RP1=0, select bank1
  2012  0B46  1518               	bsf	(1218/8)^080h,(1218)&7	;volatile
  2013                           	line	518
  2014                           	
  2015  0B47                     l1810:	
  2016                           ;PR31_final.c: 518: SPBRG = (20000000 / 16 / 9600) - 1;
  2017  0B47  3081               	movlw	(081h)
  2018  0B48  0099               	movwf	(153)^080h	;volatile
  2019                           	line	519
  2020                           	
  2021  0B49                     l1812:	
  2022                           ;PR31_final.c: 519: SPEN = 1;
  2023  0B49  1283               	bcf	status, 5	;RP0=0, select bank0
  2024  0B4A  1303               	bcf	status, 6	;RP1=0, select bank0
  2025  0B4B  1798               	bsf	(199/8),(199)&7	;volatile
  2026                           	line	520
  2027                           	
  2028  0B4C                     l1814:	
  2029                           ;PR31_final.c: 520: CREN = 1;
  2030  0B4C  1618               	bsf	(196/8),(196)&7	;volatile
  2031                           	line	521
  2032                           	
  2033  0B4D                     l1816:	
  2034                           ;PR31_final.c: 521: TXEN = 1;
  2035  0B4D  1683               	bsf	status, 5	;RP0=1, select bank1
  2036  0B4E  1303               	bcf	status, 6	;RP1=0, select bank1
  2037  0B4F  1698               	bsf	(1221/8)^080h,(1221)&7	;volatile
  2038                           	line	522
  2039                           	
  2040  0B50                     l1818:	
  2041                           ;PR31_final.c: 522: TRISC6 = 0;
  2042  0B50  1307               	bcf	(1086/8)^080h,(1086)&7	;volatile
  2043                           	line	523
  2044                           	
  2045  0B51                     l1820:	
  2046                           ;PR31_final.c: 523: TRISC7 = 1;
  2047  0B51  1787               	bsf	(1087/8)^080h,(1087)&7	;volatile
  2048                           	line	524
  2049                           	
  2050  0B52                     l1822:	
  2051                           ;PR31_final.c: 524: uart_tx(0x0C);
  2052  0B52  300C               	movlw	(0Ch)
  2053  0B53  120A  158A  2304   	fcall	_uart_tx
              120A  158A         
  2054                           	line	525
  2055                           	
  2056  0B58                     l397:	
  2057  0B58  0008               	return
  2058                           	opt stack 0
  2059                           GLOBAL	__end_of_uart_init
  2060  0B59                     	__end_of_uart_init:
  2061                           	signat	_uart_init,88
  2062                           	global	_ar1000_init
  2063                           
  2064 ;; *************** function _ar1000_init *****************
  2065 ;; Defined at:
  2066 ;;		line 394 in file "PR31_final.c"
  2067 ;; Parameters:    Size  Location     Type
  2068 ;;		None
  2069 ;; Auto vars:     Size  Location     Type
  2070 ;;  i               2   13[BANK0 ] int 
  2071 ;; Return value:  Size  Location     Type
  2072 ;;		None               void
  2073 ;; Registers used:
  2074 ;;		wreg, fsr0l, fsr0h, status,2, status,0, btemp+1, pclath, cstack
  2075 ;; Tracked objects:
  2076 ;;		On entry : 0/0
  2077 ;;		On exit  : 0/0
  2078 ;;		Unchanged: 0/0
  2079 ;; Data sizes:     COMMON   BANK0   BANK1   BANK3   BANK2
  2080 ;;      Params:         0       0       0       0       0
  2081 ;;      Locals:         0       2       0       0       0
  2082 ;;      Temps:          0       4       0       0       0
  2083 ;;      Totals:         0       6       0       0       0
  2084 ;;Total ram usage:        6 bytes
  2085 ;; Hardware stack levels used:    1
  2086 ;; Hardware stack levels required when called:    1
  2087 ;; This function calls:
  2088 ;;		_delay
  2089 ;;		_ar_i2c_write
  2090 ;;		_ar_i2c_read
  2091 ;; This function is called by:
  2092 ;;		_main
  2093 ;; This function uses a non-reentrant model
  2094 ;;
  2095                           psect	text575,local,class=CODE,delta=2,merge=1
  2096                           global __ptext575
  2097  0F5A                     __ptext575:
  2098                           psect	text575
  2099                           	file	"PR31_final.c"
  2100                           	line	394
  2101                           	global	__size_of_ar1000_init
  2102  00A6                     	__size_of_ar1000_init	equ	__end_of_ar1000_init-_ar1000_init
  2103                           	
  2104  0F5A                     _ar1000_init:	
  2105                           	opt	stack 6
  2106                           ; Regs used in _ar1000_init: [wreg-fsr0h+status,2+status,0+btemp+1+pclath+cstack]
  2107                           	line	395
  2108                           	
  2109  0F5A                     l1824:	
  2110                           ;PR31_final.c: 395: delay(100);
  2111  0F5A  3000               	movlw	0
  2112  0F5B  00F3               	movwf	(?_delay+3)
  2113  0F5C  3000               	movlw	0
  2114  0F5D  00F2               	movwf	(?_delay+2)
  2115  0F5E  3000               	movlw	0
  2116  0F5F  00F1               	movwf	(?_delay+1)
  2117  0F60  3064               	movlw	064h
  2118  0F61  00F0               	movwf	(?_delay)
  2119                           
  2120  0F62  120A  118A  202B   	fcall	_delay
              120A  158A         
  2121                           	line	396
  2122                           ;PR31_final.c: 396: ar_i2c_write(0x20, 0, register_values[0] & 0xFFFE);
  2123  0F67  01F0               	clrf	(?_ar_i2c_write)
  2124  0F68  30FE               	movlw	low(0FFFEh)
  2125  0F69  1683               	bsf	status, 5	;RP0=1, select bank1
  2126  0F6A  1303               	bcf	status, 6	;RP1=0, select bank1
  2127  0F6B  052A               	andwf	(_register_values)^080h,w
  2128  0F6C  00F1               	movwf	0+(?_ar_i2c_write)+01h
  2129  0F6D  30FF               	movlw	high(0FFFEh)
  2130  0F6E  052B               	andwf	(_register_values+1)^080h,w
  2131  0F6F  00F2               	movwf	1+0+(?_ar_i2c_write)+01h
  2132  0F70  01F3               	clrf	2+0+(?_ar_i2c_write)+01h
  2133  0F71  01F4               	clrf	3+0+(?_ar_i2c_write)+01h
  2134  0F72  3020               	movlw	(020h)
  2135  0F73  120A  158A  26D3   	fcall	_ar_i2c_write
              120A  158A         
  2136                           	line	398
  2137                           	
  2138  0F78                     l1826:	
  2139                           ;PR31_final.c: 398: for(int i = 1 ; i < 18 ; i++)
  2140  0F78  3001               	movlw	low(01h)
  2141  0F79  1283               	bcf	status, 5	;RP0=0, select bank0
  2142  0F7A  1303               	bcf	status, 6	;RP1=0, select bank0
  2143  0F7B  00AD               	movwf	(ar1000_init@i)
  2144  0F7C  3000               	movlw	high(01h)
  2145  0F7D  00AE               	movwf	((ar1000_init@i))+1
  2146                           	
  2147  0F7E                     l1828:	
  2148  0F7E  082E               	movf	(ar1000_init@i+1),w
  2149  0F7F  3A80               	xorlw	80h
  2150  0F80  00FF               	movwf	btemp+1
  2151  0F81  3080               	movlw	(high(012h))^80h
  2152  0F82  027F               	subwf	btemp+1,w
  2153  0F83  1D03               	skipz
  2154  0F84  2F87               	goto	u1675
  2155  0F85  3012               	movlw	low(012h)
  2156  0F86  022D               	subwf	(ar1000_init@i),w
  2157  0F87                     u1675:
  2158                           
  2159  0F87  1C03               	skipc
  2160  0F88  2F8A               	goto	u1671
  2161  0F89  2F8B               	goto	u1670
  2162  0F8A                     u1671:
  2163  0F8A  2F8D               	goto	l1832
  2164  0F8B                     u1670:
  2165  0F8B  2FC0               	goto	l1838
  2166                           	
  2167  0F8C                     l1830:	
  2168  0F8C  2FC0               	goto	l1838
  2169                           	line	399
  2170                           	
  2171  0F8D                     l353:	
  2172                           	line	400
  2173                           	
  2174  0F8D                     l1832:	
  2175                           ;PR31_final.c: 399: {
  2176                           ;PR31_final.c: 400: ar_i2c_write(0x20, i, register_values[i]);
  2177  0F8D  1283               	bcf	status, 5	;RP0=0, select bank0
  2178  0F8E  1303               	bcf	status, 6	;RP1=0, select bank0
  2179  0F8F  082D               	movf	(ar1000_init@i),w
  2180  0F90  00A9               	movwf	(??_ar1000_init+0)+0
  2181  0F91  0829               	movf	(??_ar1000_init+0)+0,w
  2182  0F92  00F0               	movwf	(?_ar_i2c_write)
  2183  0F93  082D               	movf	(ar1000_init@i),w
  2184  0F94  00AA               	movwf	(??_ar1000_init+1)+0
  2185  0F95  072A               	addwf	(??_ar1000_init+1)+0,w
  2186  0F96  3EAA               	addlw	_register_values&0ffh
  2187  0F97  0084               	movwf	fsr0
  2188  0F98  1383               	bcf	status, 7	;select IRP bank1
  2189  0F99  0800               	movf	indf,w
  2190  0F9A  00AB               	movwf	(??_ar1000_init+2)+0+0
  2191  0F9B  0A84               	incf	fsr0,f
  2192  0F9C  0800               	movf	indf,w
  2193  0F9D  00AC               	movwf	(??_ar1000_init+2)+0+1
  2194  0F9E  082B               	movf	0+(??_ar1000_init+2)+0,w
  2195  0F9F  00F1               	movwf	0+(?_ar_i2c_write)+01h
  2196  0FA0  082C               	movf	1+(??_ar1000_init+2)+0,w
  2197  0FA1  00F2               	movwf	(0+(?_ar_i2c_write)+01h)+1
  2198  0FA2  01F3               	clrf	2+(0+(?_ar_i2c_write)+01h)
  2199  0FA3  01F4               	clrf	3+(0+(?_ar_i2c_write)+01h)
  2200  0FA4  3020               	movlw	(020h)
  2201  0FA5  120A  158A  26D3   	fcall	_ar_i2c_write
              120A  158A         
  2202                           	line	398
  2203                           	
  2204  0FAA                     l1834:	
  2205  0FAA  3001               	movlw	low(01h)
  2206  0FAB  1283               	bcf	status, 5	;RP0=0, select bank0
  2207  0FAC  1303               	bcf	status, 6	;RP1=0, select bank0
  2208  0FAD  07AD               	addwf	(ar1000_init@i),f
  2209  0FAE  1803               	skipnc
  2210  0FAF  0AAE               	incf	(ar1000_init@i+1),f
  2211  0FB0  3000               	movlw	high(01h)
  2212  0FB1  07AE               	addwf	(ar1000_init@i+1),f
  2213                           	
  2214  0FB2                     l1836:	
  2215  0FB2  082E               	movf	(ar1000_init@i+1),w
  2216  0FB3  3A80               	xorlw	80h
  2217  0FB4  00FF               	movwf	btemp+1
  2218  0FB5  3080               	movlw	(high(012h))^80h
  2219  0FB6  027F               	subwf	btemp+1,w
  2220  0FB7  1D03               	skipz
  2221  0FB8  2FBB               	goto	u1685
  2222  0FB9  3012               	movlw	low(012h)
  2223  0FBA  022D               	subwf	(ar1000_init@i),w
  2224  0FBB                     u1685:
  2225                           
  2226  0FBB  1C03               	skipc
  2227  0FBC  2FBE               	goto	u1681
  2228  0FBD  2FBF               	goto	u1680
  2229  0FBE                     u1681:
  2230  0FBE  2F8D               	goto	l1832
  2231  0FBF                     u1680:
  2232  0FBF  2FC0               	goto	l1838
  2233                           	
  2234  0FC0                     l354:	
  2235                           	line	403
  2236                           	
  2237  0FC0                     l1838:	
  2238                           ;PR31_final.c: 401: }
  2239                           ;PR31_final.c: 403: ar_i2c_write(0x20, 0, register_values[0]);
  2240  0FC0  01F0               	clrf	(?_ar_i2c_write)
  2241  0FC1  1683               	bsf	status, 5	;RP0=1, select bank1
  2242  0FC2  1303               	bcf	status, 6	;RP1=0, select bank1
  2243  0FC3  082A               	movf	(_register_values)^080h,w
  2244  0FC4  00F1               	movwf	0+(?_ar_i2c_write)+01h
  2245  0FC5  082B               	movf	(_register_values+1)^080h,w
  2246  0FC6  00F2               	movwf	(0+(?_ar_i2c_write)+01h)+1
  2247  0FC7  01F3               	clrf	2+(0+(?_ar_i2c_write)+01h)
  2248  0FC8  01F4               	clrf	3+(0+(?_ar_i2c_write)+01h)
  2249  0FC9  3020               	movlw	(020h)
  2250  0FCA  120A  158A  26D3   	fcall	_ar_i2c_write
              120A  158A         
  2251                           	line	405
  2252                           ;PR31_final.c: 405: while(STC == 0)
  2253  0FCF  2FF6               	goto	l1846
  2254                           	
  2255  0FD0                     l356:	
  2256                           	line	407
  2257                           	
  2258  0FD0                     l1840:	
  2259                           ;PR31_final.c: 406: {
  2260                           ;PR31_final.c: 407: STC = ar_i2c_read(0x20, 0x13);
  2261  0FD0  3013               	movlw	(013h)
  2262  0FD1  1283               	bcf	status, 5	;RP0=0, select bank0
  2263  0FD2  1303               	bcf	status, 6	;RP1=0, select bank0
  2264  0FD3  00A9               	movwf	(??_ar1000_init+0)+0
  2265  0FD4  0829               	movf	(??_ar1000_init+0)+0,w
  2266  0FD5  00F0               	movwf	(?_ar_i2c_read)
  2267  0FD6  3020               	movlw	(020h)
  2268  0FD7  120A  118A  23EE   	fcall	_ar_i2c_read
              120A  158A         
  2269  0FDC  0871               	movf	(1+(?_ar_i2c_read)),w
  2270  0FDD  1283               	bcf	status, 5	;RP0=0, select bank0
  2271  0FDE  1303               	bcf	status, 6	;RP1=0, select bank0
  2272  0FDF  01E6               	clrf	(_STC+1)
  2273  0FE0  07E6               	addwf	(_STC+1)
  2274  0FE1  0870               	movf	(0+(?_ar_i2c_read)),w
  2275  0FE2  01E5               	clrf	(_STC)
  2276  0FE3  07E5               	addwf	(_STC)
  2277                           
  2278                           	line	408
  2279                           	
  2280  0FE4                     l1842:	
  2281                           ;PR31_final.c: 408: STC &= (1<<5);
  2282  0FE4  3020               	movlw	low(020h)
  2283  0FE5  05E5               	andwf	(_STC),f
  2284  0FE6  3000               	movlw	high(020h)
  2285  0FE7  05E6               	andwf	(_STC+1),f
  2286                           	line	409
  2287                           	
  2288  0FE8                     l1844:	
  2289                           ;PR31_final.c: 409: delay(10);
  2290  0FE8  3000               	movlw	0
  2291  0FE9  00F3               	movwf	(?_delay+3)
  2292  0FEA  3000               	movlw	0
  2293  0FEB  00F2               	movwf	(?_delay+2)
  2294  0FEC  3000               	movlw	0
  2295  0FED  00F1               	movwf	(?_delay+1)
  2296  0FEE  300A               	movlw	0Ah
  2297  0FEF  00F0               	movwf	(?_delay)
  2298                           
  2299  0FF0  120A  118A  202B   	fcall	_delay
              120A  158A         
  2300  0FF5  2FF6               	goto	l1846
  2301                           	line	411
  2302                           	
  2303  0FF6                     l355:	
  2304                           	line	405
  2305                           	
  2306  0FF6                     l1846:	
  2307  0FF6  1283               	bcf	status, 5	;RP0=0, select bank0
  2308  0FF7  1303               	bcf	status, 6	;RP1=0, select bank0
  2309  0FF8  0866               	movf	(_STC+1),w
  2310  0FF9  0465               	iorwf	(_STC),w
  2311  0FFA  1903               	skipnz
  2312  0FFB  2FFD               	goto	u1691
  2313  0FFC  2FFE               	goto	u1690
  2314  0FFD                     u1691:
  2315  0FFD  2FD0               	goto	l1840
  2316  0FFE                     u1690:
  2317  0FFE  2FFF               	goto	l358
  2318                           	
  2319  0FFF                     l357:	
  2320                           	line	413
  2321                           	
  2322  0FFF                     l358:	
  2323  0FFF  0008               	return
  2324                           	opt stack 0
  2325                           GLOBAL	__end_of_ar1000_init
  2326  1000                     	__end_of_ar1000_init:
  2327                           	signat	_ar1000_init,88
  2328                           	global	_eeprom_read
  2329                           
  2330 ;; *************** function _eeprom_read *****************
  2331 ;; Defined at:
  2332 ;;		line 7 in file "eeread.c"
  2333 ;; Parameters:    Size  Location     Type
  2334 ;;  addr            1    wreg     unsigned char 
  2335 ;; Auto vars:     Size  Location     Type
  2336 ;;  addr            1    1[COMMON] unsigned char 
  2337 ;; Return value:  Size  Location     Type
  2338 ;;                  1    wreg      unsigned char 
  2339 ;; Registers used:
  2340 ;;		wreg, status,2, status,0
  2341 ;; Tracked objects:
  2342 ;;		On entry : 0/0
  2343 ;;		On exit  : 0/0
  2344 ;;		Unchanged: 0/0
  2345 ;; Data sizes:     COMMON   BANK0   BANK1   BANK3   BANK2
  2346 ;;      Params:         0       0       0       0       0
  2347 ;;      Locals:         1       0       0       0       0
  2348 ;;      Temps:          1       0       0       0       0
  2349 ;;      Totals:         2       0       0       0       0
  2350 ;;Total ram usage:        2 bytes
  2351 ;; Hardware stack levels used:    1
  2352 ;; This function calls:
  2353 ;;		Nothing
  2354 ;; This function is called by:
  2355 ;;		_main
  2356 ;; This function uses a non-reentrant model
  2357 ;;
  2358                           psect	text576,local,class=CODE,delta=2,merge=1
  2359                           global __ptext576
  2360  0BE0                     __ptext576:
  2361                           psect	text576
  2362                           	file	"eeread.c"
  2363                           	line	7
  2364                           	global	__size_of_eeprom_read
  2365  001F                     	__size_of_eeprom_read	equ	__end_of_eeprom_read-_eeprom_read
  2366                           	
  2367  0BE0                     _eeprom_read:	
  2368                           	opt	stack 7
  2369                           ; Regs used in _eeprom_read: [wreg+status,2+status,0]
  2370                           ;eeprom_read@addr stored from wreg
  2371                           	line	9
  2372  0BE0  00F1               	movwf	(eeprom_read@addr)
  2373                           	line	8
  2374                           	
  2375  0BE1                     l441:	
  2376                           	line	9
  2377                           # 9 "eeread.c"
  2378  0BE1  0064               clrwdt ;# 
  2379                           psect	text576
  2380                           	line	10
  2381  0BE2  1683               	bsf	status, 5	;RP0=1, select bank3
  2382  0BE3  1703               	bsf	status, 6	;RP1=1, select bank3
  2383  0BE4  188C               	btfsc	(3169/8)^0180h,(3169)&7	;volatile
  2384  0BE5  2BE7               	goto	u1501
  2385  0BE6  2BE8               	goto	u1500
  2386  0BE7                     u1501:
  2387  0BE7  2BE1               	goto	l441
  2388  0BE8                     u1500:
  2389  0BE8  2BE9               	goto	l1734
  2390                           	
  2391  0BE9                     l442:	
  2392                           	line	11
  2393                           	
  2394  0BE9                     l1734:	
  2395  0BE9  0871               	movf	(eeprom_read@addr),w
  2396  0BEA  1283               	bcf	status, 5	;RP0=0, select bank2
  2397  0BEB  1703               	bsf	status, 6	;RP1=1, select bank2
  2398  0BEC  008D               	movwf	(269)^0100h	;volatile
  2399  0BED  303F               	movlw	(03Fh)
  2400  0BEE  00F0               	movwf	(??_eeprom_read+0)+0
  2401  0BEF  0870               	movf	(??_eeprom_read+0)+0,w
  2402  0BF0  1683               	bsf	status, 5	;RP0=1, select bank3
  2403  0BF1  1703               	bsf	status, 6	;RP1=1, select bank3
  2404  0BF2  058C               	andwf	(396)^0180h,f	;volatile
  2405  0BF3  140C               	bsf	(3168/8)^0180h,(3168)&7	;volatile
  2406  0BF4  1003               	clrc
  2407  0BF5  180C               	btfsc	(3168/8)^0180h,(3168)&7	;volatile
  2408  0BF6  1403               	setc
  2409  0BF7  3000               	movlw	0
  2410  0BF8  1803               	skipnc
  2411  0BF9  3001               	movlw	1
  2412                           
  2413  0BFA  1283               	bcf	status, 5	;RP0=0, select bank2
  2414  0BFB  1703               	bsf	status, 6	;RP1=1, select bank2
  2415  0BFC  080C               	movf	(268)^0100h,w	;volatile
  2416  0BFD  2BFE               	goto	l443
  2417                           	
  2418  0BFE                     l1736:	
  2419                           	line	12
  2420                           	
  2421  0BFE                     l443:	
  2422  0BFE  0008               	return
  2423                           	opt stack 0
  2424                           GLOBAL	__end_of_eeprom_read
  2425  0BFF                     	__end_of_eeprom_read:
  2426                           	signat	_eeprom_read,4217
  2427                           	global	_adjust_channel
  2428                           
  2429 ;; *************** function _adjust_channel *****************
  2430 ;; Defined at:
  2431 ;;		line 209 in file "PR31_final.c"
  2432 ;; Parameters:    Size  Location     Type
  2433 ;;		None
  2434 ;; Auto vars:     Size  Location     Type
  2435 ;;  press           2   38[BANK0 ] unsigned int 
  2436 ;;  press           2   36[BANK0 ] unsigned int 
  2437 ;;  press           2   34[BANK0 ] unsigned int 
  2438 ;; Return value:  Size  Location     Type
  2439 ;;		None               void
  2440 ;; Registers used:
  2441 ;;		wreg, fsr0l, fsr0h, status,2, status,0, btemp+1, pclath, cstack
  2442 ;; Tracked objects:
  2443 ;;		On entry : 0/0
  2444 ;;		On exit  : 0/0
  2445 ;;		Unchanged: 0/0
  2446 ;; Data sizes:     COMMON   BANK0   BANK1   BANK3   BANK2
  2447 ;;      Params:         0       0       0       0       0
  2448 ;;      Locals:         0       6       0       0       0
  2449 ;;      Temps:          0       0       0       0       0
  2450 ;;      Totals:         0       6       0       0       0
  2451 ;;Total ram usage:        6 bytes
  2452 ;; Hardware stack levels used:    1
  2453 ;; Hardware stack levels required when called:    6
  2454 ;; This function calls:
  2455 ;;		_decrease_chan
  2456 ;;		_delay
  2457 ;;		_increase_chan
  2458 ;;		_eprom_write
  2459 ;;		_lcd_clr
  2460 ;;		_send_string
  2461 ;;		_uart_sendstr
  2462 ;;		_send_char
  2463 ;;		_uart_tx
  2464 ;;		_send_dec
  2465 ;;		_switch_channel
  2466 ;;		_lcd_goto
  2467 ;;		_adjust_vol
  2468 ;; This function is called by:
  2469 ;;		_main
  2470 ;; This function uses a non-reentrant model
  2471 ;;
  2472                           psect	text577,local,class=CODE,delta=2,merge=1
  2473                           global __ptext577
  2474  051E                     __ptext577:
  2475                           psect	text577
  2476                           	file	"PR31_final.c"
  2477                           	line	209
  2478                           	global	__size_of_adjust_channel
  2479  014D                     	__size_of_adjust_channel	equ	__end_of_adjust_channel-_adjust_channel
  2480                           	
  2481  051E                     _adjust_channel:	
  2482                           	opt	stack 1
  2483                           ; Regs used in _adjust_channel: [wreg-fsr0h+status,2+status,0+btemp+1+pclath+cstack]
  2484                           	line	210
  2485                           ;PR31_final.c: 210: while(1)
  2486                           	
  2487  051E                     l289:	
  2488                           	line	212
  2489                           ;PR31_final.c: 211: {
  2490                           ;PR31_final.c: 212: if (RB3 == 0)
  2491  051E  1283               	bcf	status, 5	;RP0=0, select bank0
  2492  051F  1303               	bcf	status, 6	;RP1=0, select bank0
  2493  0520  1986               	btfsc	(51/8),(51)&7	;volatile
  2494  0521  2D23               	goto	u1981
  2495  0522  2D24               	goto	u1980
  2496  0523                     u1981:
  2497  0523  2D64               	goto	l2092
  2498  0524                     u1980:
  2499                           	line	214
  2500                           	
  2501  0524                     l2078:	
  2502                           ;PR31_final.c: 213: {
  2503                           ;PR31_final.c: 214: unsigned int press=0;
  2504  0524  01C2               	clrf	(adjust_channel@press)
  2505  0525  01C3               	clrf	(adjust_channel@press+1)
  2506                           	line	215
  2507                           ;PR31_final.c: 215: while (RB3==0)
  2508  0526  2D4A               	goto	l2086
  2509                           	
  2510  0527                     l292:	
  2511                           	line	217
  2512                           	
  2513  0527                     l2080:	
  2514                           ;PR31_final.c: 216: {
  2515                           ;PR31_final.c: 217: press += 1;
  2516  0527  3001               	movlw	low(01h)
  2517  0528  07C2               	addwf	(adjust_channel@press),f
  2518  0529  1803               	skipnc
  2519  052A  0AC3               	incf	(adjust_channel@press+1),f
  2520  052B  3000               	movlw	high(01h)
  2521  052C  07C3               	addwf	(adjust_channel@press+1),f
  2522                           	line	218
  2523                           ;PR31_final.c: 218: if (press >= 650)
  2524  052D  3002               	movlw	high(028Ah)
  2525  052E  0243               	subwf	(adjust_channel@press+1),w
  2526  052F  308A               	movlw	low(028Ah)
  2527  0530  1903               	skipnz
  2528  0531  0242               	subwf	(adjust_channel@press),w
  2529  0532  1C03               	skipc
  2530  0533  2D35               	goto	u1991
  2531  0534  2D36               	goto	u1990
  2532  0535                     u1991:
  2533  0535  2D3C               	goto	l2084
  2534  0536                     u1990:
  2535                           	line	219
  2536                           	
  2537  0536                     l2082:	
  2538                           ;PR31_final.c: 219: decrease_chan();
  2539  0536  120A  158A  265D   	fcall	_decrease_chan
              120A  118A         
  2540  053B  2D3C               	goto	l2084
  2541                           	
  2542  053C                     l293:	
  2543                           	line	220
  2544                           	
  2545  053C                     l2084:	
  2546                           ;PR31_final.c: 220: delay(100);
  2547  053C  3000               	movlw	0
  2548  053D  00F3               	movwf	(?_delay+3)
  2549  053E  3000               	movlw	0
  2550  053F  00F2               	movwf	(?_delay+2)
  2551  0540  3000               	movlw	0
  2552  0541  00F1               	movwf	(?_delay+1)
  2553  0542  3064               	movlw	064h
  2554  0543  00F0               	movwf	(?_delay)
  2555                           
  2556  0544  120A  118A  202B   	fcall	_delay
              120A  118A         
  2557  0549  2D4A               	goto	l2086
  2558                           	line	221
  2559                           	
  2560  054A                     l291:	
  2561                           	line	215
  2562                           	
  2563  054A                     l2086:	
  2564  054A  1283               	bcf	status, 5	;RP0=0, select bank0
  2565  054B  1303               	bcf	status, 6	;RP1=0, select bank0
  2566  054C  1D86               	btfss	(51/8),(51)&7	;volatile
  2567  054D  2D4F               	goto	u2001
  2568  054E  2D50               	goto	u2000
  2569  054F                     u2001:
  2570  054F  2D27               	goto	l2080
  2571  0550                     u2000:
  2572  0550  2D51               	goto	l2088
  2573                           	
  2574  0551                     l294:	
  2575                           	line	222
  2576                           	
  2577  0551                     l2088:	
  2578                           ;PR31_final.c: 221: }
  2579                           ;PR31_final.c: 222: decrease_chan();
  2580  0551  120A  158A  265D   	fcall	_decrease_chan
              120A  118A         
  2581                           	line	223
  2582                           	
  2583  0556                     l2090:	
  2584                           ;PR31_final.c: 223: delay(1000);
  2585  0556  3000               	movlw	0
  2586  0557  00F3               	movwf	(?_delay+3)
  2587  0558  3000               	movlw	0
  2588  0559  00F2               	movwf	(?_delay+2)
  2589  055A  3003               	movlw	03h
  2590  055B  00F1               	movwf	(?_delay+1)
  2591  055C  30E8               	movlw	0E8h
  2592  055D  00F0               	movwf	(?_delay)
  2593                           
  2594  055E  120A  118A  202B   	fcall	_delay
              120A  118A         
  2595  0563  2D64               	goto	l2092
  2596                           	line	224
  2597                           	
  2598  0564                     l290:	
  2599                           	line	226
  2600                           	
  2601  0564                     l2092:	
  2602                           ;PR31_final.c: 224: }
  2603                           ;PR31_final.c: 226: if (RB2 == 0)
  2604  0564  1283               	bcf	status, 5	;RP0=0, select bank0
  2605  0565  1303               	bcf	status, 6	;RP1=0, select bank0
  2606  0566  1906               	btfsc	(50/8),(50)&7	;volatile
  2607  0567  2D69               	goto	u2011
  2608  0568  2D6A               	goto	u2010
  2609  0569                     u2011:
  2610  0569  2DAA               	goto	l2108
  2611  056A                     u2010:
  2612                           	line	228
  2613                           	
  2614  056A                     l2094:	
  2615                           ;PR31_final.c: 227: {
  2616                           ;PR31_final.c: 228: unsigned int press=0;
  2617  056A  01C4               	clrf	(adjust_channel@press_214)
  2618  056B  01C5               	clrf	(adjust_channel@press_214+1)
  2619                           	line	229
  2620                           ;PR31_final.c: 229: while (RB2==0)
  2621  056C  2D90               	goto	l2102
  2622                           	
  2623  056D                     l297:	
  2624                           	line	231
  2625                           	
  2626  056D                     l2096:	
  2627                           ;PR31_final.c: 230: {
  2628                           ;PR31_final.c: 231: press += 1;
  2629  056D  3001               	movlw	low(01h)
  2630  056E  07C4               	addwf	(adjust_channel@press_214),f
  2631  056F  1803               	skipnc
  2632  0570  0AC5               	incf	(adjust_channel@press_214+1),f
  2633  0571  3000               	movlw	high(01h)
  2634  0572  07C5               	addwf	(adjust_channel@press_214+1),f
  2635                           	line	232
  2636                           ;PR31_final.c: 232: if (press >= 650)
  2637  0573  3002               	movlw	high(028Ah)
  2638  0574  0245               	subwf	(adjust_channel@press_214+1),w
  2639  0575  308A               	movlw	low(028Ah)
  2640  0576  1903               	skipnz
  2641  0577  0244               	subwf	(adjust_channel@press_214),w
  2642  0578  1C03               	skipc
  2643  0579  2D7B               	goto	u2021
  2644  057A  2D7C               	goto	u2020
  2645  057B                     u2021:
  2646  057B  2D82               	goto	l2100
  2647  057C                     u2020:
  2648                           	line	233
  2649                           	
  2650  057C                     l2098:	
  2651                           ;PR31_final.c: 233: increase_chan();
  2652  057C  120A  158A  2587   	fcall	_increase_chan
              120A  118A         
  2653  0581  2D82               	goto	l2100
  2654                           	
  2655  0582                     l298:	
  2656                           	line	234
  2657                           	
  2658  0582                     l2100:	
  2659                           ;PR31_final.c: 234: delay(100);
  2660  0582  3000               	movlw	0
  2661  0583  00F3               	movwf	(?_delay+3)
  2662  0584  3000               	movlw	0
  2663  0585  00F2               	movwf	(?_delay+2)
  2664  0586  3000               	movlw	0
  2665  0587  00F1               	movwf	(?_delay+1)
  2666  0588  3064               	movlw	064h
  2667  0589  00F0               	movwf	(?_delay)
  2668                           
  2669  058A  120A  118A  202B   	fcall	_delay
              120A  118A         
  2670  058F  2D90               	goto	l2102
  2671                           	line	235
  2672                           	
  2673  0590                     l296:	
  2674                           	line	229
  2675                           	
  2676  0590                     l2102:	
  2677  0590  1283               	bcf	status, 5	;RP0=0, select bank0
  2678  0591  1303               	bcf	status, 6	;RP1=0, select bank0
  2679  0592  1D06               	btfss	(50/8),(50)&7	;volatile
  2680  0593  2D95               	goto	u2031
  2681  0594  2D96               	goto	u2030
  2682  0595                     u2031:
  2683  0595  2D6D               	goto	l2096
  2684  0596                     u2030:
  2685  0596  2D97               	goto	l2104
  2686                           	
  2687  0597                     l299:	
  2688                           	line	236
  2689                           	
  2690  0597                     l2104:	
  2691                           ;PR31_final.c: 235: }
  2692                           ;PR31_final.c: 236: increase_chan();
  2693  0597  120A  158A  2587   	fcall	_increase_chan
              120A  118A         
  2694                           	line	237
  2695                           	
  2696  059C                     l2106:	
  2697                           ;PR31_final.c: 237: delay(1000);
  2698  059C  3000               	movlw	0
  2699  059D  00F3               	movwf	(?_delay+3)
  2700  059E  3000               	movlw	0
  2701  059F  00F2               	movwf	(?_delay+2)
  2702  05A0  3003               	movlw	03h
  2703  05A1  00F1               	movwf	(?_delay+1)
  2704  05A2  30E8               	movlw	0E8h
  2705  05A3  00F0               	movwf	(?_delay)
  2706                           
  2707  05A4  120A  118A  202B   	fcall	_delay
              120A  118A         
  2708  05A9  2DAA               	goto	l2108
  2709                           	line	238
  2710                           	
  2711  05AA                     l295:	
  2712                           	line	240
  2713                           	
  2714  05AA                     l2108:	
  2715                           ;PR31_final.c: 238: }
  2716                           ;PR31_final.c: 240: if (RB0 == 0)
  2717  05AA  1283               	bcf	status, 5	;RP0=0, select bank0
  2718  05AB  1303               	bcf	status, 6	;RP1=0, select bank0
  2719  05AC  1806               	btfsc	(48/8),(48)&7	;volatile
  2720  05AD  2DAF               	goto	u2041
  2721  05AE  2DB0               	goto	u2040
  2722  05AF                     u2041:
  2723  05AF  2E3F               	goto	l2136
  2724  05B0                     u2040:
  2725                           	line	241
  2726                           	
  2727  05B0                     l2110:	
  2728                           ;PR31_final.c: 241: { unsigned int press=0;
  2729  05B0  01C6               	clrf	(adjust_channel@press_215)
  2730  05B1  01C7               	clrf	(adjust_channel@press_215+1)
  2731                           	line	242
  2732                           ;PR31_final.c: 242: while (RB0==0)
  2733  05B2  2E32               	goto	l2132
  2734                           	
  2735  05B3                     l302:	
  2736                           	line	244
  2737                           	
  2738  05B3                     l2112:	
  2739                           ;PR31_final.c: 243: {
  2740                           ;PR31_final.c: 244: press += 1;
  2741  05B3  3001               	movlw	low(01h)
  2742  05B4  07C6               	addwf	(adjust_channel@press_215),f
  2743  05B5  1803               	skipnc
  2744  05B6  0AC7               	incf	(adjust_channel@press_215+1),f
  2745  05B7  3000               	movlw	high(01h)
  2746  05B8  07C7               	addwf	(adjust_channel@press_215+1),f
  2747                           	line	245
  2748                           ;PR31_final.c: 245: if (press >= 1300)
  2749  05B9  3005               	movlw	high(0514h)
  2750  05BA  0247               	subwf	(adjust_channel@press_215+1),w
  2751  05BB  3014               	movlw	low(0514h)
  2752  05BC  1903               	skipnz
  2753  05BD  0246               	subwf	(adjust_channel@press_215),w
  2754  05BE  1C03               	skipc
  2755  05BF  2DC1               	goto	u2051
  2756  05C0  2DC2               	goto	u2050
  2757  05C1                     u2051:
  2758  05C1  2E24               	goto	l2130
  2759  05C2                     u2050:
  2760                           	line	247
  2761                           	
  2762  05C2                     l2114:	
  2763                           ;PR31_final.c: 246: {
  2764                           ;PR31_final.c: 247: eprom_write(m,currentChannel);
  2765  05C2  085E               	movf	(_currentChannel+1),w
  2766  05C3  01F1               	clrf	(?_eprom_write+1)
  2767  05C4  07F1               	addwf	(?_eprom_write+1)
  2768  05C5  085D               	movf	(_currentChannel),w
  2769  05C6  01F0               	clrf	(?_eprom_write)
  2770  05C7  07F0               	addwf	(?_eprom_write)
  2771                           
  2772  05C8  0868               	movf	(_m),w
  2773  05C9  120A  158A  23C2   	fcall	_eprom_write
              120A  118A         
  2774                           	line	248
  2775                           ;PR31_final.c: 248: lcd_clr();
  2776  05CE  120A  158A  238B   	fcall	_lcd_clr
              120A  118A         
  2777                           	line	249
  2778                           	
  2779  05D3                     l2116:	
  2780                           ;PR31_final.c: 249: send_string("channel ");
  2781  05D3  304D               	movlw	((STR_12-__stringbase))&0ffh
  2782  05D4  120A  118A  2004   	fcall	_send_string
              120A  118A         
  2783                           	line	250
  2784                           	
  2785  05D9                     l2118:	
  2786                           ;PR31_final.c: 250: uart_sendstr("channel ");
  2787  05D9  304D               	movlw	((STR_13-__stringbase))&0ffh
  2788  05DA  120A  158A  246C   	fcall	_uart_sendstr
              120A  118A         
  2789                           	line	251
  2790                           ;PR31_final.c: 251: send_char(0x30+m);
  2791  05DF  1283               	bcf	status, 5	;RP0=0, select bank0
  2792  05E0  1303               	bcf	status, 6	;RP1=0, select bank0
  2793  05E1  0868               	movf	(_m),w
  2794  05E2  3E30               	addlw	030h
  2795  05E3  120A  158A  2359   	fcall	_send_char
              120A  118A         
  2796                           	line	252
  2797                           ;PR31_final.c: 252: uart_tx(0x30+m);
  2798  05E8  1283               	bcf	status, 5	;RP0=0, select bank0
  2799  05E9  1303               	bcf	status, 6	;RP1=0, select bank0
  2800  05EA  0868               	movf	(_m),w
  2801  05EB  3E30               	addlw	030h
  2802  05EC  120A  158A  2304   	fcall	_uart_tx
              120A  118A         
  2803                           	line	253
  2804                           	
  2805  05F1                     l2120:	
  2806                           ;PR31_final.c: 253: send_string(" setted");
  2807  05F1  3056               	movlw	((STR_14-__stringbase))&0ffh
  2808  05F2  120A  118A  2004   	fcall	_send_string
              120A  118A         
  2809                           	line	254
  2810                           	
  2811  05F7                     l2122:	
  2812                           ;PR31_final.c: 254: uart_sendstr(" setted");
  2813  05F7  3056               	movlw	((STR_15-__stringbase))&0ffh
  2814  05F8  120A  158A  246C   	fcall	_uart_sendstr
              120A  118A         
  2815                           	line	255
  2816                           	
  2817  05FD                     l2124:	
  2818                           ;PR31_final.c: 255: send_dec(currentChannel);
  2819  05FD  1283               	bcf	status, 5	;RP0=0, select bank0
  2820  05FE  1303               	bcf	status, 6	;RP1=0, select bank0
  2821  05FF  0860               	movf	(_currentChannel+3),w
  2822  0600  00A3               	movwf	(?_send_dec+3)
  2823  0601  085F               	movf	(_currentChannel+2),w
  2824  0602  00A2               	movwf	(?_send_dec+2)
  2825  0603  085E               	movf	(_currentChannel+1),w
  2826  0604  00A1               	movwf	(?_send_dec+1)
  2827  0605  085D               	movf	(_currentChannel),w
  2828  0606  00A0               	movwf	(?_send_dec)
  2829                           
  2830  0607  120A  118A  266B   	fcall	_send_dec
              120A  118A         
  2831                           	line	256
  2832                           ;PR31_final.c: 256: while (RB0==0);
  2833  060C  2E0D               	goto	l304
  2834                           	
  2835  060D                     l305:	
  2836                           	
  2837  060D                     l304:	
  2838  060D  1283               	bcf	status, 5	;RP0=0, select bank0
  2839  060E  1303               	bcf	status, 6	;RP1=0, select bank0
  2840  060F  1C06               	btfss	(48/8),(48)&7	;volatile
  2841  0610  2E12               	goto	u2061
  2842  0611  2E13               	goto	u2060
  2843  0612                     u2061:
  2844  0612  2E0D               	goto	l304
  2845  0613                     u2060:
  2846  0613  2E14               	goto	l2126
  2847                           	
  2848  0614                     l306:	
  2849                           	line	257
  2850                           	
  2851  0614                     l2126:	
  2852                           ;PR31_final.c: 257: m -= 1;
  2853  0614  3001               	movlw	low(01h)
  2854  0615  02E8               	subwf	(_m),f
  2855                           	line	258
  2856                           	
  2857  0616                     l2128:	
  2858                           ;PR31_final.c: 258: delay(2000);
  2859  0616  3000               	movlw	0
  2860  0617  00F3               	movwf	(?_delay+3)
  2861  0618  3000               	movlw	0
  2862  0619  00F2               	movwf	(?_delay+2)
  2863  061A  3007               	movlw	07h
  2864  061B  00F1               	movwf	(?_delay+1)
  2865  061C  30D0               	movlw	0D0h
  2866  061D  00F0               	movwf	(?_delay)
  2867                           
  2868  061E  120A  118A  202B   	fcall	_delay
              120A  118A         
  2869  0623  2E24               	goto	l2130
  2870                           	line	259
  2871                           	
  2872  0624                     l303:	
  2873                           	line	260
  2874                           	
  2875  0624                     l2130:	
  2876                           ;PR31_final.c: 259: }
  2877                           ;PR31_final.c: 260: delay(100);
  2878  0624  3000               	movlw	0
  2879  0625  00F3               	movwf	(?_delay+3)
  2880  0626  3000               	movlw	0
  2881  0627  00F2               	movwf	(?_delay+2)
  2882  0628  3000               	movlw	0
  2883  0629  00F1               	movwf	(?_delay+1)
  2884  062A  3064               	movlw	064h
  2885  062B  00F0               	movwf	(?_delay)
  2886                           
  2887  062C  120A  118A  202B   	fcall	_delay
              120A  118A         
  2888  0631  2E32               	goto	l2132
  2889                           	line	262
  2890                           	
  2891  0632                     l301:	
  2892                           	line	242
  2893                           	
  2894  0632                     l2132:	
  2895  0632  1283               	bcf	status, 5	;RP0=0, select bank0
  2896  0633  1303               	bcf	status, 6	;RP1=0, select bank0
  2897  0634  1C06               	btfss	(48/8),(48)&7	;volatile
  2898  0635  2E37               	goto	u2071
  2899  0636  2E38               	goto	u2070
  2900  0637                     u2071:
  2901  0637  2DB3               	goto	l2112
  2902  0638                     u2070:
  2903  0638  2E39               	goto	l2134
  2904                           	
  2905  0639                     l307:	
  2906                           	line	263
  2907                           	
  2908  0639                     l2134:	
  2909                           ;PR31_final.c: 262: }
  2910                           ;PR31_final.c: 263: switch_channel();
  2911  0639  120A  158A  2523   	fcall	_switch_channel
              120A  118A         
  2912  063E  2E3F               	goto	l2136
  2913                           	line	264
  2914                           	
  2915  063F                     l300:	
  2916                           	line	266
  2917                           	
  2918  063F                     l2136:	
  2919                           ;PR31_final.c: 264: }
  2920                           ;PR31_final.c: 266: if (RB1 == 0)
  2921  063F  1283               	bcf	status, 5	;RP0=0, select bank0
  2922  0640  1303               	bcf	status, 6	;RP1=0, select bank0
  2923  0641  1886               	btfsc	(49/8),(49)&7	;volatile
  2924  0642  2E44               	goto	u2081
  2925  0643  2E45               	goto	u2080
  2926  0644                     u2081:
  2927  0644  2D1E               	goto	l289
  2928  0645                     u2080:
  2929  0645  2E47               	goto	l309
  2930                           	line	268
  2931                           	
  2932  0646                     l2138:	
  2933                           ;PR31_final.c: 267: {
  2934                           ;PR31_final.c: 268: while (RB1 == 0);
  2935  0646  2E47               	goto	l309
  2936                           	
  2937  0647                     l310:	
  2938                           	
  2939  0647                     l309:	
  2940  0647  1C86               	btfss	(49/8),(49)&7	;volatile
  2941  0648  2E4A               	goto	u2091
  2942  0649  2E4B               	goto	u2090
  2943  064A                     u2091:
  2944  064A  2E47               	goto	l309
  2945  064B                     u2090:
  2946  064B  2E4C               	goto	l2140
  2947                           	
  2948  064C                     l311:	
  2949                           	line	269
  2950                           	
  2951  064C                     l2140:	
  2952                           ;PR31_final.c: 269: lcd_goto(0);
  2953  064C  3000               	movlw	(0)
  2954  064D  120A  158A  23A5   	fcall	_lcd_goto
              120A  118A         
  2955                           	line	270
  2956                           	
  2957  0652                     l2142:	
  2958                           ;PR31_final.c: 270: send_string("volume level=   ");
  2959  0652  3016               	movlw	((STR_16-__stringbase))&0ffh
  2960  0653  120A  118A  2004   	fcall	_send_string
              120A  118A         
  2961                           	line	271
  2962                           	
  2963  0658                     l2144:	
  2964                           ;PR31_final.c: 271: uart_sendstr("volume level=   ");
  2965  0658  3016               	movlw	((STR_17-__stringbase))&0ffh
  2966  0659  120A  158A  246C   	fcall	_uart_sendstr
              120A  118A         
  2967                           	line	272
  2968                           	
  2969  065E                     l2146:	
  2970                           ;PR31_final.c: 272: m -= 1;
  2971  065E  3001               	movlw	low(01h)
  2972  065F  1283               	bcf	status, 5	;RP0=0, select bank0
  2973  0660  1303               	bcf	status, 6	;RP1=0, select bank0
  2974  0661  02E8               	subwf	(_m),f
  2975                           	line	273
  2976                           	
  2977  0662                     l2148:	
  2978                           ;PR31_final.c: 273: adjust_vol ();
  2979  0662  120A  118A  2106   	fcall	_adjust_vol
              120A  118A         
  2980  0667  2D1E               	goto	l289
  2981                           	line	274
  2982                           	
  2983  0668                     l308:	
  2984  0668  2D1E               	goto	l289
  2985                           	line	275
  2986                           	
  2987  0669                     l312:	
  2988                           	line	210
  2989  0669  2D1E               	goto	l289
  2990                           	
  2991  066A                     l313:	
  2992                           	line	276
  2993                           	
  2994  066A                     l314:	
  2995  066A  0008               	return
  2996                           	opt stack 0
  2997                           GLOBAL	__end_of_adjust_channel
  2998  066B                     	__end_of_adjust_channel:
  2999                           	signat	_adjust_channel,88
  3000                           	global	_eprom_write
  3001                           
  3002 ;; *************** function _eprom_write *****************
  3003 ;; Defined at:
  3004 ;;		line 573 in file "PR31_final.c"
  3005 ;; Parameters:    Size  Location     Type
  3006 ;;  channel_adr     1    wreg     unsigned char 
  3007 ;;  fm_value        2    0[COMMON] unsigned int 
  3008 ;; Auto vars:     Size  Location     Type
  3009 ;;  channel_adr     1    2[COMMON] unsigned char 
  3010 ;; Return value:  Size  Location     Type
  3011 ;;		None               void
  3012 ;; Registers used:
  3013 ;;		wreg
  3014 ;; Tracked objects:
  3015 ;;		On entry : 0/0
  3016 ;;		On exit  : 0/0
  3017 ;;		Unchanged: 0/0
  3018 ;; Data sizes:     COMMON   BANK0   BANK1   BANK3   BANK2
  3019 ;;      Params:         2       0       0       0       0
  3020 ;;      Locals:         1       0       0       0       0
  3021 ;;      Temps:          0       0       0       0       0
  3022 ;;      Totals:         3       0       0       0       0
  3023 ;;Total ram usage:        3 bytes
  3024 ;; Hardware stack levels used:    1
  3025 ;; This function calls:
  3026 ;;		Nothing
  3027 ;; This function is called by:
  3028 ;;		_main
  3029 ;;		_adjust_channel
  3030 ;; This function uses a non-reentrant model
  3031 ;;
  3032                           psect	text578,local,class=CODE,delta=2,merge=1
  3033                           global __ptext578
  3034  0BC2                     __ptext578:
  3035                           psect	text578
  3036                           	file	"PR31_final.c"
  3037                           	line	573
  3038                           	global	__size_of_eprom_write
  3039  001E                     	__size_of_eprom_write	equ	__end_of_eprom_write-_eprom_write
  3040                           	
  3041  0BC2                     _eprom_write:	
  3042                           	opt	stack 6
  3043                           ; Regs used in _eprom_write: [wreg]
  3044                           ;eprom_write@channel_adr stored from wreg
  3045  0BC2  00F2               	movwf	(eprom_write@channel_adr)
  3046                           	line	574
  3047                           	
  3048  0BC3                     l1738:	
  3049                           ;PR31_final.c: 574: EEADR = channel_adr;
  3050  0BC3  0872               	movf	(eprom_write@channel_adr),w
  3051  0BC4  1283               	bcf	status, 5	;RP0=0, select bank2
  3052  0BC5  1703               	bsf	status, 6	;RP1=1, select bank2
  3053  0BC6  008D               	movwf	(269)^0100h	;volatile
  3054                           	line	575
  3055                           ;PR31_final.c: 575: fm_value -= 825;
  3056  0BC7  3039               	movlw	low(0339h)
  3057  0BC8  02F0               	subwf	(eprom_write@fm_value),f
  3058  0BC9  3003               	movlw	high(0339h)
  3059  0BCA  1C03               	skipc
  3060  0BCB  03F1               	decf	(eprom_write@fm_value+1),f
  3061  0BCC  02F1               	subwf	(eprom_write@fm_value+1),f
  3062                           	line	576
  3063                           ;PR31_final.c: 576: EEDATA = fm_value;
  3064  0BCD  0870               	movf	(eprom_write@fm_value),w
  3065  0BCE  008C               	movwf	(268)^0100h	;volatile
  3066                           	line	577
  3067                           	
  3068  0BCF                     l1740:	
  3069                           ;PR31_final.c: 577: EEPGD = 0;
  3070  0BCF  1683               	bsf	status, 5	;RP0=1, select bank3
  3071  0BD0  1703               	bsf	status, 6	;RP1=1, select bank3
  3072  0BD1  138C               	bcf	(3175/8)^0180h,(3175)&7	;volatile
  3073                           	line	578
  3074                           	
  3075  0BD2                     l1742:	
  3076                           ;PR31_final.c: 578: WREN = 1;
  3077  0BD2  150C               	bsf	(3170/8)^0180h,(3170)&7	;volatile
  3078                           	line	579
  3079                           ;PR31_final.c: 579: EECON2 = 0x55;
  3080  0BD3  3055               	movlw	(055h)
  3081  0BD4  008D               	movwf	(397)^0180h	;volatile
  3082                           	line	580
  3083                           ;PR31_final.c: 580: EECON2 = 0xAA;
  3084  0BD5  30AA               	movlw	(0AAh)
  3085  0BD6  008D               	movwf	(397)^0180h	;volatile
  3086                           	line	581
  3087                           	
  3088  0BD7                     l1744:	
  3089                           ;PR31_final.c: 581: WR = 1;
  3090  0BD7  148C               	bsf	(3169/8)^0180h,(3169)&7	;volatile
  3091                           	line	582
  3092                           	
  3093  0BD8                     l1746:	
  3094                           ;PR31_final.c: 582: WREN = 0;
  3095  0BD8  110C               	bcf	(3170/8)^0180h,(3170)&7	;volatile
  3096                           	line	583
  3097                           ;PR31_final.c: 583: while (WR == 1);
  3098  0BD9  2BDA               	goto	l425
  3099                           	
  3100  0BDA                     l426:	
  3101                           	
  3102  0BDA                     l425:	
  3103  0BDA  188C               	btfsc	(3169/8)^0180h,(3169)&7	;volatile
  3104  0BDB  2BDD               	goto	u1511
  3105  0BDC  2BDE               	goto	u1510
  3106  0BDD                     u1511:
  3107  0BDD  2BDA               	goto	l425
  3108  0BDE                     u1510:
  3109  0BDE  2BDF               	goto	l428
  3110                           	
  3111  0BDF                     l427:	
  3112                           	line	584
  3113                           	
  3114  0BDF                     l428:	
  3115  0BDF  0008               	return
  3116                           	opt stack 0
  3117                           GLOBAL	__end_of_eprom_write
  3118  0BE0                     	__end_of_eprom_write:
  3119                           	signat	_eprom_write,8312
  3120                           	global	_switch_channel
  3121                           
  3122 ;; *************** function _switch_channel *****************
  3123 ;; Defined at:
  3124 ;;		line 192 in file "PR31_final.c"
  3125 ;; Parameters:    Size  Location     Type
  3126 ;;		None
  3127 ;; Auto vars:     Size  Location     Type
  3128 ;;		None
  3129 ;; Return value:  Size  Location     Type
  3130 ;;		None               void
  3131 ;; Registers used:
  3132 ;;		wreg, fsr0l, fsr0h, status,2, status,0, btemp+1, pclath, cstack
  3133 ;; Tracked objects:
  3134 ;;		On entry : 0/0
  3135 ;;		On exit  : 0/0
  3136 ;;		Unchanged: 0/0
  3137 ;; Data sizes:     COMMON   BANK0   BANK1   BANK3   BANK2
  3138 ;;      Params:         0       0       0       0       0
  3139 ;;      Locals:         0       0       0       0       0
  3140 ;;      Temps:          0       1       0       0       0
  3141 ;;      Totals:         0       1       0       0       0
  3142 ;;Total ram usage:        1 bytes
  3143 ;; Hardware stack levels used:    1
  3144 ;; Hardware stack levels required when called:    5
  3145 ;; This function calls:
  3146 ;;		_lcd_clr
  3147 ;;		_send_string
  3148 ;;		_uart_tx
  3149 ;;		_uart_sendstr
  3150 ;;		_send_char
  3151 ;;		_eprom_read
  3152 ;;		_setAR1000
  3153 ;;		_send_dec
  3154 ;; This function is called by:
  3155 ;;		_main
  3156 ;;		_adjust_channel
  3157 ;; This function uses a non-reentrant model
  3158 ;;
  3159                           psect	text579,local,class=CODE,delta=2,merge=1
  3160                           global __ptext579
  3161  0D23                     __ptext579:
  3162                           psect	text579
  3163                           	file	"PR31_final.c"
  3164                           	line	192
  3165                           	global	__size_of_switch_channel
  3166  0064                     	__size_of_switch_channel	equ	__end_of_switch_channel-_switch_channel
  3167                           	
  3168  0D23                     _switch_channel:	
  3169                           	opt	stack 1
  3170                           ; Regs used in _switch_channel: [wreg-fsr0h+status,2+status,0+btemp+1+pclath+cstack]
  3171                           	line	193
  3172                           	
  3173  0D23                     l2022:	
  3174                           ;PR31_final.c: 193: m++;
  3175  0D23  3001               	movlw	(01h)
  3176  0D24  1283               	bcf	status, 5	;RP0=0, select bank0
  3177  0D25  1303               	bcf	status, 6	;RP1=0, select bank0
  3178  0D26  00BE               	movwf	(??_switch_channel+0)+0
  3179  0D27  083E               	movf	(??_switch_channel+0)+0,w
  3180  0D28  07E8               	addwf	(_m),f
  3181                           	line	194
  3182                           	
  3183  0D29                     l2024:	
  3184                           ;PR31_final.c: 194: if ( m > 6) m = 1;
  3185  0D29  3007               	movlw	(07h)
  3186  0D2A  0268               	subwf	(_m),w
  3187  0D2B  1C03               	skipc
  3188  0D2C  2D2E               	goto	u1941
  3189  0D2D  2D2F               	goto	u1940
  3190  0D2E                     u1941:
  3191  0D2E  2D33               	goto	l2028
  3192  0D2F                     u1940:
  3193                           	
  3194  0D2F                     l2026:	
  3195  0D2F  01E8               	clrf	(_m)
  3196  0D30  1403               	bsf	status,0
  3197  0D31  0DE8               	rlf	(_m),f
  3198  0D32  2D33               	goto	l2028
  3199                           	
  3200  0D33                     l285:	
  3201                           	line	196
  3202                           	
  3203  0D33                     l2028:	
  3204                           ;PR31_final.c: 196: lcd_clr();
  3205  0D33  120A  158A  238B   	fcall	_lcd_clr
              120A  158A         
  3206                           	line	197
  3207                           	
  3208  0D38                     l2030:	
  3209                           ;PR31_final.c: 197: send_string("channel ");
  3210  0D38  304D               	movlw	((STR_10-__stringbase))&0ffh
  3211  0D39  120A  118A  2004   	fcall	_send_string
              120A  158A         
  3212                           	line	198
  3213                           	
  3214  0D3E                     l2032:	
  3215                           ;PR31_final.c: 198: uart_tx(0x0C);
  3216  0D3E  300C               	movlw	(0Ch)
  3217  0D3F  120A  158A  2304   	fcall	_uart_tx
              120A  158A         
  3218                           	line	199
  3219                           	
  3220  0D44                     l2034:	
  3221                           ;PR31_final.c: 199: uart_sendstr("Channel ");
  3222  0D44  3044               	movlw	((STR_11-__stringbase))&0ffh
  3223  0D45  120A  158A  246C   	fcall	_uart_sendstr
              120A  158A         
  3224                           	line	200
  3225                           	
  3226  0D4A                     l2036:	
  3227                           ;PR31_final.c: 200: send_char(0x30+m);
  3228  0D4A  1283               	bcf	status, 5	;RP0=0, select bank0
  3229  0D4B  1303               	bcf	status, 6	;RP1=0, select bank0
  3230  0D4C  0868               	movf	(_m),w
  3231  0D4D  3E30               	addlw	030h
  3232  0D4E  120A  158A  2359   	fcall	_send_char
              120A  158A         
  3233                           	line	201
  3234                           	
  3235  0D53                     l2038:	
  3236                           ;PR31_final.c: 201: uart_tx(0x30+m);
  3237  0D53  1283               	bcf	status, 5	;RP0=0, select bank0
  3238  0D54  1303               	bcf	status, 6	;RP1=0, select bank0
  3239  0D55  0868               	movf	(_m),w
  3240  0D56  3E30               	addlw	030h
  3241  0D57  120A  158A  2304   	fcall	_uart_tx
              120A  158A         
  3242                           	line	202
  3243                           	
  3244  0D5C                     l2040:	
  3245                           ;PR31_final.c: 202: currentChannel = eprom_read(m);
  3246  0D5C  1283               	bcf	status, 5	;RP0=0, select bank0
  3247  0D5D  1303               	bcf	status, 6	;RP1=0, select bank0
  3248  0D5E  0868               	movf	(_m),w
  3249  0D5F  120A  158A  23FF   	fcall	_eprom_read
              120A  158A         
  3250  0D64  0870               	movf	(0+(?_eprom_read)),w
  3251  0D65  1283               	bcf	status, 5	;RP0=0, select bank0
  3252  0D66  1303               	bcf	status, 6	;RP1=0, select bank0
  3253  0D67  00DD               	movwf	(_currentChannel)
  3254  0D68  0871               	movf	(1+(?_eprom_read)),w
  3255  0D69  00DE               	movwf	((_currentChannel))+1
  3256  0D6A  01DF               	clrf	2+((_currentChannel))
  3257  0D6B  01E0               	clrf	3+((_currentChannel))
  3258                           	line	203
  3259                           	
  3260  0D6C                     l2042:	
  3261                           ;PR31_final.c: 203: setAR1000(currentChannel);
  3262  0D6C  085E               	movf	(_currentChannel+1),w
  3263  0D6D  01AA               	clrf	(?_setAR1000+1)
  3264  0D6E  07AA               	addwf	(?_setAR1000+1)
  3265  0D6F  085D               	movf	(_currentChannel),w
  3266  0D70  01A9               	clrf	(?_setAR1000)
  3267  0D71  07A9               	addwf	(?_setAR1000)
  3268                           
  3269  0D72  120A  118A  21B1   	fcall	_setAR1000
              120A  158A         
  3270                           	line	204
  3271                           	
  3272  0D77                     l2044:	
  3273                           ;PR31_final.c: 204: send_dec(currentChannel);
  3274  0D77  1283               	bcf	status, 5	;RP0=0, select bank0
  3275  0D78  1303               	bcf	status, 6	;RP1=0, select bank0
  3276  0D79  0860               	movf	(_currentChannel+3),w
  3277  0D7A  00A3               	movwf	(?_send_dec+3)
  3278  0D7B  085F               	movf	(_currentChannel+2),w
  3279  0D7C  00A2               	movwf	(?_send_dec+2)
  3280  0D7D  085E               	movf	(_currentChannel+1),w
  3281  0D7E  00A1               	movwf	(?_send_dec+1)
  3282  0D7F  085D               	movf	(_currentChannel),w
  3283  0D80  00A0               	movwf	(?_send_dec)
  3284                           
  3285  0D81  120A  118A  266B   	fcall	_send_dec
              120A  158A         
  3286                           	line	205
  3287                           	
  3288  0D86                     l286:	
  3289  0D86  0008               	return
  3290                           	opt stack 0
  3291                           GLOBAL	__end_of_switch_channel
  3292  0D87                     	__end_of_switch_channel:
  3293                           	signat	_switch_channel,88
  3294                           	global	_lcd_clr
  3295                           
  3296 ;; *************** function _lcd_clr *****************
  3297 ;; Defined at:
  3298 ;;		line 500 in file "PR31_final.c"
  3299 ;; Parameters:    Size  Location     Type
  3300 ;;		None
  3301 ;; Auto vars:     Size  Location     Type
  3302 ;;		None
  3303 ;; Return value:  Size  Location     Type
  3304 ;;		None               void
  3305 ;; Registers used:
  3306 ;;		wreg, status,2, status,0, pclath, cstack
  3307 ;; Tracked objects:
  3308 ;;		On entry : 0/0
  3309 ;;		On exit  : 0/0
  3310 ;;		Unchanged: 0/0
  3311 ;; Data sizes:     COMMON   BANK0   BANK1   BANK3   BANK2
  3312 ;;      Params:         0       0       0       0       0
  3313 ;;      Locals:         0       0       0       0       0
  3314 ;;      Temps:          0       0       0       0       0
  3315 ;;      Totals:         0       0       0       0       0
  3316 ;;Total ram usage:        0 bytes
  3317 ;; Hardware stack levels used:    1
  3318 ;; Hardware stack levels required when called:    3
  3319 ;; This function calls:
  3320 ;;		_send_config
  3321 ;;		_delay
  3322 ;; This function is called by:
  3323 ;;		_main
  3324 ;;		_switch_channel
  3325 ;;		_adjust_channel
  3326 ;; This function uses a non-reentrant model
  3327 ;;
  3328                           psect	text580,local,class=CODE,delta=2,merge=1
  3329                           global __ptext580
  3330  0B8B                     __ptext580:
  3331                           psect	text580
  3332                           	file	"PR31_final.c"
  3333                           	line	500
  3334                           	global	__size_of_lcd_clr
  3335  001A                     	__size_of_lcd_clr	equ	__end_of_lcd_clr-_lcd_clr
  3336                           	
  3337  0B8B                     _lcd_clr:	
  3338                           	opt	stack 2
  3339                           ; Regs used in _lcd_clr: [wreg+status,2+status,0+pclath+cstack]
  3340                           	line	501
  3341                           	
  3342  0B8B                     l1948:	
  3343                           ;PR31_final.c: 501: send_config(0b00000001);
  3344  0B8B  3001               	movlw	(01h)
  3345  0B8C  120A  158A  2372   	fcall	_send_config
              120A  158A         
  3346                           	line	502
  3347                           ;PR31_final.c: 502: send_config(0b00000010);
  3348  0B91  3002               	movlw	(02h)
  3349  0B92  120A  158A  2372   	fcall	_send_config
              120A  158A         
  3350                           	line	503
  3351                           ;PR31_final.c: 503: delay(350);
  3352  0B97  3000               	movlw	0
  3353  0B98  00F3               	movwf	(?_delay+3)
  3354  0B99  3000               	movlw	0
  3355  0B9A  00F2               	movwf	(?_delay+2)
  3356  0B9B  3001               	movlw	01h
  3357  0B9C  00F1               	movwf	(?_delay+1)
  3358  0B9D  305E               	movlw	05Eh
  3359  0B9E  00F0               	movwf	(?_delay)
  3360                           
  3361  0B9F  120A  118A  202B   	fcall	_delay
              120A  158A         
  3362                           	line	504
  3363                           	
  3364  0BA4                     l386:	
  3365  0BA4  0008               	return
  3366                           	opt stack 0
  3367                           GLOBAL	__end_of_lcd_clr
  3368  0BA5                     	__end_of_lcd_clr:
  3369                           	signat	_lcd_clr,88
  3370                           	global	_adjust_vol
  3371                           
  3372 ;; *************** function _adjust_vol *****************
  3373 ;; Defined at:
  3374 ;;		line 344 in file "PR31_final.c"
  3375 ;; Parameters:    Size  Location     Type
  3376 ;;		None
  3377 ;; Auto vars:     Size  Location     Type
  3378 ;;  vol_default     1    6[BANK0 ] unsigned char 
  3379 ;;  check           1    5[BANK0 ] unsigned char 
  3380 ;; Return value:  Size  Location     Type
  3381 ;;		None               void
  3382 ;; Registers used:
  3383 ;;		wreg, fsr0l, fsr0h, status,2, status,0, btemp+1, pclath, cstack
  3384 ;; Tracked objects:
  3385 ;;		On entry : 0/0
  3386 ;;		On exit  : 0/0
  3387 ;;		Unchanged: 0/0
  3388 ;; Data sizes:     COMMON   BANK0   BANK1   BANK3   BANK2
  3389 ;;      Params:         0       0       0       0       0
  3390 ;;      Locals:         0       2       0       0       0
  3391 ;;      Temps:          0       1       0       0       0
  3392 ;;      Totals:         0       3       0       0       0
  3393 ;;Total ram usage:        3 bytes
  3394 ;; Hardware stack levels used:    1
  3395 ;; Hardware stack levels required when called:    4
  3396 ;; This function calls:
  3397 ;;		_lcd_goto
  3398 ;;		_send_char
  3399 ;;		_uart_tx
  3400 ;;		_delay
  3401 ;;		_set_vol
  3402 ;; This function is called by:
  3403 ;;		_main
  3404 ;;		_adjust_channel
  3405 ;; This function uses a non-reentrant model
  3406 ;;
  3407                           psect	text581,local,class=CODE,delta=2,merge=1
  3408                           global __ptext581
  3409  0106                     __ptext581:
  3410                           psect	text581
  3411                           	file	"PR31_final.c"
  3412                           	line	344
  3413                           	global	__size_of_adjust_vol
  3414  00AB                     	__size_of_adjust_vol	equ	__end_of_adjust_vol-_adjust_vol
  3415                           	
  3416  0106                     _adjust_vol:	
  3417                           	opt	stack 3
  3418                           ; Regs used in _adjust_vol: [wreg-fsr0h+status,2+status,0+btemp+1+pclath+cstack]
  3419                           	line	346
  3420                           ;PR31_final.c: 346: while (1){
  3421                           	
  3422  0106                     l333:	
  3423                           	line	347
  3424                           ;PR31_final.c: 347: check = 0;
  3425  0106  1283               	bcf	status, 5	;RP0=0, select bank0
  3426  0107  1303               	bcf	status, 6	;RP1=0, select bank0
  3427  0108  01A5               	clrf	(adjust_vol@check)
  3428                           	line	348
  3429                           	
  3430  0109                     l1950:	
  3431                           ;PR31_final.c: 348: lcd_goto(13);
  3432  0109  300D               	movlw	(0Dh)
  3433  010A  120A  158A  23A5   	fcall	_lcd_goto
              120A  118A         
  3434                           	line	349
  3435                           	
  3436  010F                     l1952:	
  3437                           ;PR31_final.c: 349: vol_default = vol;
  3438  010F  1283               	bcf	status, 5	;RP0=0, select bank0
  3439  0110  1303               	bcf	status, 6	;RP1=0, select bank0
  3440  0111  0869               	movf	(_vol),w
  3441  0112  00A4               	movwf	(??_adjust_vol+0)+0
  3442  0113  0824               	movf	(??_adjust_vol+0)+0,w
  3443  0114  00A6               	movwf	(adjust_vol@vol_default)
  3444                           	line	350
  3445                           	
  3446  0115                     l1954:	
  3447                           ;PR31_final.c: 350: send_char(0x30+vol);
  3448  0115  0869               	movf	(_vol),w
  3449  0116  3E30               	addlw	030h
  3450  0117  120A  158A  2359   	fcall	_send_char
              120A  118A         
  3451                           	line	351
  3452                           	
  3453  011C                     l1956:	
  3454                           ;PR31_final.c: 351: uart_tx(0x30+vol);
  3455  011C  1283               	bcf	status, 5	;RP0=0, select bank0
  3456  011D  1303               	bcf	status, 6	;RP1=0, select bank0
  3457  011E  0869               	movf	(_vol),w
  3458  011F  3E30               	addlw	030h
  3459  0120  120A  158A  2304   	fcall	_uart_tx
              120A  118A         
  3460                           	line	352
  3461                           	
  3462  0125                     l1958:	
  3463                           ;PR31_final.c: 352: delay(10);
  3464  0125  3000               	movlw	0
  3465  0126  00F3               	movwf	(?_delay+3)
  3466  0127  3000               	movlw	0
  3467  0128  00F2               	movwf	(?_delay+2)
  3468  0129  3000               	movlw	0
  3469  012A  00F1               	movwf	(?_delay+1)
  3470  012B  300A               	movlw	0Ah
  3471  012C  00F0               	movwf	(?_delay)
  3472                           
  3473  012D  120A  118A  202B   	fcall	_delay
              120A  118A         
  3474                           	line	355
  3475                           ;PR31_final.c: 355: while(check==0)
  3476  0132  29A1               	goto	l1992
  3477                           	
  3478  0133                     l335:	
  3479                           	line	357
  3480                           ;PR31_final.c: 356: {
  3481                           ;PR31_final.c: 357: if (RB3 == 0)
  3482  0133  1986               	btfsc	(51/8),(51)&7	;volatile
  3483  0134  2936               	goto	u1781
  3484  0135  2937               	goto	u1780
  3485  0136                     u1781:
  3486  0136  295E               	goto	l1972
  3487  0137                     u1780:
  3488  0137  2939               	goto	l337
  3489                           	line	359
  3490                           	
  3491  0138                     l1960:	
  3492                           ;PR31_final.c: 358: {
  3493                           ;PR31_final.c: 359: while (RB3==0);
  3494  0138  2939               	goto	l337
  3495                           	
  3496  0139                     l338:	
  3497                           	
  3498  0139                     l337:	
  3499  0139  1D86               	btfss	(51/8),(51)&7	;volatile
  3500  013A  293C               	goto	u1791
  3501  013B  293D               	goto	u1790
  3502  013C                     u1791:
  3503  013C  2939               	goto	l337
  3504  013D                     u1790:
  3505  013D  293E               	goto	l1962
  3506                           	
  3507  013E                     l339:	
  3508                           	line	360
  3509                           	
  3510  013E                     l1962:	
  3511                           ;PR31_final.c: 360: vol -=1;
  3512  013E  3001               	movlw	low(01h)
  3513  013F  02E9               	subwf	(_vol),f
  3514                           	line	361
  3515                           	
  3516  0140                     l1964:	
  3517                           ;PR31_final.c: 361: if ( vol <= 1 )
  3518  0140  3002               	movlw	(02h)
  3519  0141  0269               	subwf	(_vol),w
  3520  0142  1803               	skipnc
  3521  0143  2945               	goto	u1801
  3522  0144  2946               	goto	u1800
  3523  0145                     u1801:
  3524  0145  294A               	goto	l1968
  3525  0146                     u1800:
  3526                           	line	362
  3527                           	
  3528  0146                     l1966:	
  3529                           ;PR31_final.c: 362: vol = 1;
  3530  0146  01E9               	clrf	(_vol)
  3531  0147  1403               	bsf	status,0
  3532  0148  0DE9               	rlf	(_vol),f
  3533  0149  294A               	goto	l1968
  3534                           	
  3535  014A                     l340:	
  3536                           	line	363
  3537                           	
  3538  014A                     l1968:	
  3539                           ;PR31_final.c: 363: set_vol (vol);
  3540  014A  0869               	movf	(_vol),w
  3541  014B  120A  118A  205B   	fcall	_set_vol
              120A  118A         
  3542                           	line	364
  3543                           	
  3544  0150                     l1970:	
  3545                           ;PR31_final.c: 364: delay(100);
  3546  0150  3000               	movlw	0
  3547  0151  00F3               	movwf	(?_delay+3)
  3548  0152  3000               	movlw	0
  3549  0153  00F2               	movwf	(?_delay+2)
  3550  0154  3000               	movlw	0
  3551  0155  00F1               	movwf	(?_delay+1)
  3552  0156  3064               	movlw	064h
  3553  0157  00F0               	movwf	(?_delay)
  3554                           
  3555  0158  120A  118A  202B   	fcall	_delay
              120A  118A         
  3556  015D  295E               	goto	l1972
  3557                           	line	365
  3558                           	
  3559  015E                     l336:	
  3560                           	line	367
  3561                           	
  3562  015E                     l1972:	
  3563                           ;PR31_final.c: 365: }
  3564                           ;PR31_final.c: 367: if (RB2 == 0)
  3565  015E  1283               	bcf	status, 5	;RP0=0, select bank0
  3566  015F  1303               	bcf	status, 6	;RP1=0, select bank0
  3567  0160  1906               	btfsc	(50/8),(50)&7	;volatile
  3568  0161  2963               	goto	u1811
  3569  0162  2964               	goto	u1810
  3570  0163                     u1811:
  3571  0163  298E               	goto	l1986
  3572  0164                     u1810:
  3573  0164  2966               	goto	l342
  3574                           	line	369
  3575                           	
  3576  0165                     l1974:	
  3577                           ;PR31_final.c: 368: {
  3578                           ;PR31_final.c: 369: while (RB2==0);
  3579  0165  2966               	goto	l342
  3580                           	
  3581  0166                     l343:	
  3582                           	
  3583  0166                     l342:	
  3584  0166  1D06               	btfss	(50/8),(50)&7	;volatile
  3585  0167  2969               	goto	u1821
  3586  0168  296A               	goto	u1820
  3587  0169                     u1821:
  3588  0169  2966               	goto	l342
  3589  016A                     u1820:
  3590  016A  296B               	goto	l1976
  3591                           	
  3592  016B                     l344:	
  3593                           	line	370
  3594                           	
  3595  016B                     l1976:	
  3596                           ;PR31_final.c: 370: vol +=1;
  3597  016B  3001               	movlw	(01h)
  3598  016C  00A4               	movwf	(??_adjust_vol+0)+0
  3599  016D  0824               	movf	(??_adjust_vol+0)+0,w
  3600  016E  07E9               	addwf	(_vol),f
  3601                           	line	371
  3602                           	
  3603  016F                     l1978:	
  3604                           ;PR31_final.c: 371: if (vol >= 9)
  3605  016F  3009               	movlw	(09h)
  3606  0170  0269               	subwf	(_vol),w
  3607  0171  1C03               	skipc
  3608  0172  2974               	goto	u1831
  3609  0173  2975               	goto	u1830
  3610  0174                     u1831:
  3611  0174  297A               	goto	l1982
  3612  0175                     u1830:
  3613                           	line	372
  3614                           	
  3615  0175                     l1980:	
  3616                           ;PR31_final.c: 372: vol = 9;
  3617  0175  3009               	movlw	(09h)
  3618  0176  00A4               	movwf	(??_adjust_vol+0)+0
  3619  0177  0824               	movf	(??_adjust_vol+0)+0,w
  3620  0178  00E9               	movwf	(_vol)
  3621  0179  297A               	goto	l1982
  3622                           	
  3623  017A                     l345:	
  3624                           	line	373
  3625                           	
  3626  017A                     l1982:	
  3627                           ;PR31_final.c: 373: set_vol (vol);
  3628  017A  0869               	movf	(_vol),w
  3629  017B  120A  118A  205B   	fcall	_set_vol
              120A  118A         
  3630                           	line	374
  3631                           	
  3632  0180                     l1984:	
  3633                           ;PR31_final.c: 374: delay(100);
  3634  0180  3000               	movlw	0
  3635  0181  00F3               	movwf	(?_delay+3)
  3636  0182  3000               	movlw	0
  3637  0183  00F2               	movwf	(?_delay+2)
  3638  0184  3000               	movlw	0
  3639  0185  00F1               	movwf	(?_delay+1)
  3640  0186  3064               	movlw	064h
  3641  0187  00F0               	movwf	(?_delay)
  3642                           
  3643  0188  120A  118A  202B   	fcall	_delay
              120A  118A         
  3644  018D  298E               	goto	l1986
  3645                           	line	375
  3646                           	
  3647  018E                     l341:	
  3648                           	line	377
  3649                           	
  3650  018E                     l1986:	
  3651                           ;PR31_final.c: 375: }
  3652                           ;PR31_final.c: 377: if (RB0==0)
  3653  018E  1283               	bcf	status, 5	;RP0=0, select bank0
  3654  018F  1303               	bcf	status, 6	;RP1=0, select bank0
  3655  0190  1806               	btfsc	(48/8),(48)&7	;volatile
  3656  0191  2993               	goto	u1841
  3657  0192  2994               	goto	u1840
  3658  0193                     u1841:
  3659  0193  2996               	goto	l1990
  3660  0194                     u1840:
  3661  0194  29B0               	goto	l347
  3662                           	line	379
  3663                           	
  3664  0195                     l1988:	
  3665                           ;PR31_final.c: 378: {
  3666                           ;PR31_final.c: 379: return;
  3667  0195  29B0               	goto	l347
  3668                           	line	380
  3669                           	
  3670  0196                     l346:	
  3671                           	line	382
  3672                           	
  3673  0196                     l1990:	
  3674                           ;PR31_final.c: 380: }
  3675                           ;PR31_final.c: 382: check = vol & ~(vol_default);
  3676  0196  0926               	comf	(adjust_vol@vol_default),w
  3677  0197  0569               	andwf	(_vol),w
  3678  0198  00A4               	movwf	(??_adjust_vol+0)+0
  3679  0199  0824               	movf	(??_adjust_vol+0)+0,w
  3680  019A  00A5               	movwf	(adjust_vol@check)
  3681                           	line	383
  3682                           ;PR31_final.c: 383: check |= ~vol & vol_default;
  3683  019B  0969               	comf	(_vol),w
  3684  019C  0526               	andwf	(adjust_vol@vol_default),w
  3685  019D  00A4               	movwf	(??_adjust_vol+0)+0
  3686  019E  0824               	movf	(??_adjust_vol+0)+0,w
  3687  019F  04A5               	iorwf	(adjust_vol@check),f
  3688  01A0  29A1               	goto	l1992
  3689                           	line	385
  3690                           	
  3691  01A1                     l334:	
  3692                           	line	355
  3693                           	
  3694  01A1                     l1992:	
  3695  01A1  1283               	bcf	status, 5	;RP0=0, select bank0
  3696  01A2  1303               	bcf	status, 6	;RP1=0, select bank0
  3697  01A3  0825               	movf	(adjust_vol@check),w
  3698  01A4  1D03               	skipz
  3699  01A5  29A7               	goto	u1850
  3700  01A6  2933               	goto	l335
  3701  01A7                     u1850:
  3702  01A7  29A8               	goto	l1994
  3703                           	
  3704  01A8                     l348:	
  3705                           	line	386
  3706                           	
  3707  01A8                     l1994:	
  3708                           ;PR31_final.c: 385: }
  3709                           ;PR31_final.c: 386: uart_tx(0x08);
  3710  01A8  3008               	movlw	(08h)
  3711  01A9  120A  158A  2304   	fcall	_uart_tx
              120A  118A         
  3712  01AE  2906               	goto	l333
  3713                           	line	387
  3714                           	
  3715  01AF                     l349:	
  3716                           	line	346
  3717  01AF  2906               	goto	l333
  3718                           	
  3719  01B0                     l350:	
  3720                           	line	388
  3721                           	
  3722  01B0                     l347:	
  3723  01B0  0008               	return
  3724                           	opt stack 0
  3725                           GLOBAL	__end_of_adjust_vol
  3726  01B1                     	__end_of_adjust_vol:
  3727                           	signat	_adjust_vol,88
  3728                           	global	_set_vol
  3729                           
  3730 ;; *************** function _set_vol *****************
  3731 ;; Defined at:
  3732 ;;		line 327 in file "PR31_final.c"
  3733 ;; Parameters:    Size  Location     Type
  3734 ;;  key             1    wreg     unsigned char 
  3735 ;; Auto vars:     Size  Location     Type
  3736 ;;  key             1   13[COMMON] unsigned char 
  3737 ;; Return value:  Size  Location     Type
  3738 ;;		None               void
  3739 ;; Registers used:
  3740 ;;		wreg, fsr0l, fsr0h, status,2, status,0, btemp+1, pclath, cstack
  3741 ;; Tracked objects:
  3742 ;;		On entry : 0/0
  3743 ;;		On exit  : 0/0
  3744 ;;		Unchanged: 0/0
  3745 ;; Data sizes:     COMMON   BANK0   BANK1   BANK3   BANK2
  3746 ;;      Params:         0       0       0       0       0
  3747 ;;      Locals:         1       0       0       0       0
  3748 ;;      Temps:          0       4       0       0       0
  3749 ;;      Totals:         1       4       0       0       0
  3750 ;;Total ram usage:        5 bytes
  3751 ;; Hardware stack levels used:    1
  3752 ;; Hardware stack levels required when called:    1
  3753 ;; This function calls:
  3754 ;;		_ar_i2c_write
  3755 ;; This function is called by:
  3756 ;;		_main
  3757 ;;		_adjust_vol
  3758 ;; This function uses a non-reentrant model
  3759 ;;
  3760                           psect	text582,local,class=CODE,delta=2,merge=1
  3761                           global __ptext582
  3762  005B                     __ptext582:
  3763                           psect	text582
  3764                           	file	"PR31_final.c"
  3765                           	line	327
  3766                           	global	__size_of_set_vol
  3767  00AB                     	__size_of_set_vol	equ	__end_of_set_vol-_set_vol
  3768                           	
  3769  005B                     _set_vol:	
  3770                           	opt	stack 5
  3771                           ; Regs used in _set_vol: [wreg-fsr0h+status,2+status,0+btemp+1+pclath+cstack]
  3772                           ;set_vol@key stored from wreg
  3773  005B  00FD               	movwf	(set_vol@key)
  3774                           	line	328
  3775                           	
  3776  005C                     l1856:	
  3777                           ;PR31_final.c: 328: vol = key;
  3778  005C  087D               	movf	(set_vol@key),w
  3779  005D  1283               	bcf	status, 5	;RP0=0, select bank0
  3780  005E  1303               	bcf	status, 6	;RP1=0, select bank0
  3781  005F  00A0               	movwf	(??_set_vol+0)+0
  3782  0060  0820               	movf	(??_set_vol+0)+0,w
  3783  0061  00E9               	movwf	(_vol)
  3784                           	line	330
  3785                           	
  3786  0062                     l1858:	
  3787                           ;PR31_final.c: 330: register_values[1] |= (1<<1);
  3788  0062  1683               	bsf	status, 5	;RP0=1, select bank1
  3789  0063  1303               	bcf	status, 6	;RP1=0, select bank1
  3790  0064  14AC               	bsf	0+(_register_values)^080h+02h+(1/8),(1)&7
  3791                           	line	331
  3792                           	
  3793  0065                     l1860:	
  3794                           ;PR31_final.c: 331: ar_i2c_write(0x20, 1, register_values[1]);
  3795  0065  01F0               	clrf	(?_ar_i2c_write)
  3796  0066  1403               	bsf	status,0
  3797  0067  0DF0               	rlf	(?_ar_i2c_write),f
  3798  0068  082C               	movf	0+(_register_values)^080h+02h,w
  3799  0069  00F1               	movwf	0+(?_ar_i2c_write)+01h
  3800  006A  082D               	movf	1+(_register_values)^080h+02h,w
  3801  006B  00F2               	movwf	(0+(?_ar_i2c_write)+01h)+1
  3802  006C  01F3               	clrf	2+(0+(?_ar_i2c_write)+01h)
  3803  006D  01F4               	clrf	3+(0+(?_ar_i2c_write)+01h)
  3804  006E  3020               	movlw	(020h)
  3805  006F  120A  158A  26D3   	fcall	_ar_i2c_write
              120A  118A         
  3806                           	line	333
  3807                           	
  3808  0074                     l1862:	
  3809                           ;PR31_final.c: 333: register_values[3] = (register_values[3] & ~0x0780) | (v1[key] << 7)
                                 ;
  3810  0074  087D               	movf	(set_vol@key),w
  3811  0075  3EA0               	addlw	_v1&0ffh
  3812  0076  0084               	movwf	fsr0
  3813  0077  1383               	bcf	status, 7	;select IRP bank1
  3814  0078  0800               	movf	indf,w
  3815  0079  1283               	bcf	status, 5	;RP0=0, select bank0
  3816  007A  1303               	bcf	status, 6	;RP1=0, select bank0
  3817  007B  00A0               	movwf	(??_set_vol+0)+0+0
  3818  007C  01A1               	clrf	(??_set_vol+0)+0+1
  3819  007D  3007               	movlw	07h
  3820  007E  00FF               	movwf	btemp+1
  3821  007F                     u1715:
  3822  007F  1003               	clrc
  3823  0080  0DA0               	rlf	(??_set_vol+0)+0,f
  3824  0081  0DA1               	rlf	(??_set_vol+0)+1,f
  3825  0082  0BFF               	decfsz	btemp+1,f
  3826  0083  287F               	goto	u1715
  3827  0084  307F               	movlw	low(0F87Fh)
  3828  0085  1683               	bsf	status, 5	;RP0=1, select bank1
  3829  0086  1303               	bcf	status, 6	;RP1=0, select bank1
  3830  0087  0530               	andwf	0+(_register_values)^080h+06h,w
  3831  0088  1283               	bcf	status, 5	;RP0=0, select bank0
  3832  0089  1303               	bcf	status, 6	;RP1=0, select bank0
  3833  008A  00A2               	movwf	(??_set_vol+2)+0
  3834  008B  30F8               	movlw	high(0F87Fh)
  3835  008C  1683               	bsf	status, 5	;RP0=1, select bank1
  3836  008D  1303               	bcf	status, 6	;RP1=0, select bank1
  3837  008E  0531               	andwf	1+(_register_values)^080h+06h,w
  3838  008F  1283               	bcf	status, 5	;RP0=0, select bank0
  3839  0090  1303               	bcf	status, 6	;RP1=0, select bank0
  3840  0091  00A3               	movwf	1+(??_set_vol+2)+0
  3841  0092  0820               	movf	0+(??_set_vol+0)+0,w
  3842  0093  0422               	iorwf	0+(??_set_vol+2)+0,w
  3843  0094  1683               	bsf	status, 5	;RP0=1, select bank1
  3844  0095  1303               	bcf	status, 6	;RP1=0, select bank1
  3845  0096  00B0               	movwf	0+(_register_values)^080h+06h
  3846  0097  1283               	bcf	status, 5	;RP0=0, select bank0
  3847  0098  1303               	bcf	status, 6	;RP1=0, select bank0
  3848  0099  0821               	movf	1+(??_set_vol+0)+0,w
  3849  009A  0423               	iorwf	1+(??_set_vol+2)+0,w
  3850  009B  1683               	bsf	status, 5	;RP0=1, select bank1
  3851  009C  1303               	bcf	status, 6	;RP1=0, select bank1
  3852  009D  00B1               	movwf	1+0+(_register_values)^080h+06h
  3853                           	line	334
  3854                           	
  3855  009E                     l1864:	
  3856                           ;PR31_final.c: 334: ar_i2c_write(0x20, 3, register_values[3]);
  3857  009E  3003               	movlw	(03h)
  3858  009F  1283               	bcf	status, 5	;RP0=0, select bank0
  3859  00A0  1303               	bcf	status, 6	;RP1=0, select bank0
  3860  00A1  00A0               	movwf	(??_set_vol+0)+0
  3861  00A2  0820               	movf	(??_set_vol+0)+0,w
  3862  00A3  00F0               	movwf	(?_ar_i2c_write)
  3863  00A4  1683               	bsf	status, 5	;RP0=1, select bank1
  3864  00A5  1303               	bcf	status, 6	;RP1=0, select bank1
  3865  00A6  0830               	movf	0+(_register_values)^080h+06h,w
  3866  00A7  00F1               	movwf	0+(?_ar_i2c_write)+01h
  3867  00A8  0831               	movf	1+(_register_values)^080h+06h,w
  3868  00A9  00F2               	movwf	(0+(?_ar_i2c_write)+01h)+1
  3869  00AA  01F3               	clrf	2+(0+(?_ar_i2c_write)+01h)
  3870  00AB  01F4               	clrf	3+(0+(?_ar_i2c_write)+01h)
  3871  00AC  3020               	movlw	(020h)
  3872  00AD  120A  158A  26D3   	fcall	_ar_i2c_write
              120A  118A         
  3873                           	line	336
  3874                           	
  3875  00B2                     l1866:	
  3876                           ;PR31_final.c: 336: register_values[14] = (register_values[14] & ~0xF000)| (v2[key]<< 12
                                 );
  3877  00B2  087D               	movf	(set_vol@key),w
  3878  00B3  3E4C               	addlw	_v2&0ffh
  3879  00B4  0084               	movwf	fsr0
  3880  00B5  1383               	bcf	status, 7	;select IRP bank0
  3881  00B6  0800               	movf	indf,w
  3882  00B7  1283               	bcf	status, 5	;RP0=0, select bank0
  3883  00B8  1303               	bcf	status, 6	;RP1=0, select bank0
  3884  00B9  00A0               	movwf	(??_set_vol+0)+0+0
  3885  00BA  01A1               	clrf	(??_set_vol+0)+0+1
  3886  00BB  300C               	movlw	0Ch
  3887  00BC  00FF               	movwf	btemp+1
  3888  00BD                     u1725:
  3889  00BD  1003               	clrc
  3890  00BE  0DA0               	rlf	(??_set_vol+0)+0,f
  3891  00BF  0DA1               	rlf	(??_set_vol+0)+1,f
  3892  00C0  0BFF               	decfsz	btemp+1,f
  3893  00C1  28BD               	goto	u1725
  3894  00C2  30FF               	movlw	low(0FFFh)
  3895  00C3  1683               	bsf	status, 5	;RP0=1, select bank1
  3896  00C4  1303               	bcf	status, 6	;RP1=0, select bank1
  3897  00C5  0546               	andwf	0+(_register_values)^080h+01Ch,w
  3898  00C6  1283               	bcf	status, 5	;RP0=0, select bank0
  3899  00C7  1303               	bcf	status, 6	;RP1=0, select bank0
  3900  00C8  00A2               	movwf	(??_set_vol+2)+0
  3901  00C9  300F               	movlw	high(0FFFh)
  3902  00CA  1683               	bsf	status, 5	;RP0=1, select bank1
  3903  00CB  1303               	bcf	status, 6	;RP1=0, select bank1
  3904  00CC  0547               	andwf	1+(_register_values)^080h+01Ch,w
  3905  00CD  1283               	bcf	status, 5	;RP0=0, select bank0
  3906  00CE  1303               	bcf	status, 6	;RP1=0, select bank0
  3907  00CF  00A3               	movwf	1+(??_set_vol+2)+0
  3908  00D0  0820               	movf	0+(??_set_vol+0)+0,w
  3909  00D1  0422               	iorwf	0+(??_set_vol+2)+0,w
  3910  00D2  1683               	bsf	status, 5	;RP0=1, select bank1
  3911  00D3  1303               	bcf	status, 6	;RP1=0, select bank1
  3912  00D4  00C6               	movwf	0+(_register_values)^080h+01Ch
  3913  00D5  1283               	bcf	status, 5	;RP0=0, select bank0
  3914  00D6  1303               	bcf	status, 6	;RP1=0, select bank0
  3915  00D7  0821               	movf	1+(??_set_vol+0)+0,w
  3916  00D8  0423               	iorwf	1+(??_set_vol+2)+0,w
  3917  00D9  1683               	bsf	status, 5	;RP0=1, select bank1
  3918  00DA  1303               	bcf	status, 6	;RP1=0, select bank1
  3919  00DB  00C7               	movwf	1+0+(_register_values)^080h+01Ch
  3920                           	line	337
  3921                           	
  3922  00DC                     l1868:	
  3923                           ;PR31_final.c: 337: ar_i2c_write(0x20, 14, register_values[14]);
  3924  00DC  300E               	movlw	(0Eh)
  3925  00DD  1283               	bcf	status, 5	;RP0=0, select bank0
  3926  00DE  1303               	bcf	status, 6	;RP1=0, select bank0
  3927  00DF  00A0               	movwf	(??_set_vol+0)+0
  3928  00E0  0820               	movf	(??_set_vol+0)+0,w
  3929  00E1  00F0               	movwf	(?_ar_i2c_write)
  3930  00E2  1683               	bsf	status, 5	;RP0=1, select bank1
  3931  00E3  1303               	bcf	status, 6	;RP1=0, select bank1
  3932  00E4  0846               	movf	0+(_register_values)^080h+01Ch,w
  3933  00E5  00F1               	movwf	0+(?_ar_i2c_write)+01h
  3934  00E6  0847               	movf	1+(_register_values)^080h+01Ch,w
  3935  00E7  00F2               	movwf	(0+(?_ar_i2c_write)+01h)+1
  3936  00E8  01F3               	clrf	2+(0+(?_ar_i2c_write)+01h)
  3937  00E9  01F4               	clrf	3+(0+(?_ar_i2c_write)+01h)
  3938  00EA  3020               	movlw	(020h)
  3939  00EB  120A  158A  26D3   	fcall	_ar_i2c_write
              120A  118A         
  3940                           	line	339
  3941                           	
  3942  00F0                     l1870:	
  3943                           ;PR31_final.c: 339: register_values[1] &= ~(1<<1);
  3944  00F0  30FD               	movlw	low(0FFFDh)
  3945  00F1  1683               	bsf	status, 5	;RP0=1, select bank1
  3946  00F2  1303               	bcf	status, 6	;RP1=0, select bank1
  3947  00F3  05AC               	andwf	0+(_register_values)^080h+02h,f
  3948  00F4  30FF               	movlw	high(0FFFDh)
  3949  00F5  05AD               	andwf	1+(_register_values)^080h+02h,f
  3950                           	line	340
  3951                           ;PR31_final.c: 340: ar_i2c_write(0x20, 1,register_values[1]);
  3952  00F6  01F0               	clrf	(?_ar_i2c_write)
  3953  00F7  1403               	bsf	status,0
  3954  00F8  0DF0               	rlf	(?_ar_i2c_write),f
  3955  00F9  082C               	movf	0+(_register_values)^080h+02h,w
  3956  00FA  00F1               	movwf	0+(?_ar_i2c_write)+01h
  3957  00FB  082D               	movf	1+(_register_values)^080h+02h,w
  3958  00FC  00F2               	movwf	(0+(?_ar_i2c_write)+01h)+1
  3959  00FD  01F3               	clrf	2+(0+(?_ar_i2c_write)+01h)
  3960  00FE  01F4               	clrf	3+(0+(?_ar_i2c_write)+01h)
  3961  00FF  3020               	movlw	(020h)
  3962  0100  120A  158A  26D3   	fcall	_ar_i2c_write
              120A  118A         
  3963                           	line	341
  3964                           	
  3965  0105                     l330:	
  3966  0105  0008               	return
  3967                           	opt stack 0
  3968                           GLOBAL	__end_of_set_vol
  3969  0106                     	__end_of_set_vol:
  3970                           	signat	_set_vol,4216
  3971                           	global	_eprom_read
  3972                           
  3973 ;; *************** function _eprom_read *****************
  3974 ;; Defined at:
  3975 ;;		line 561 in file "PR31_final.c"
  3976 ;; Parameters:    Size  Location     Type
  3977 ;;  channel_adr     1    wreg     unsigned char 
  3978 ;; Auto vars:     Size  Location     Type
  3979 ;;  channel_adr     1    4[COMMON] unsigned char 
  3980 ;;  fm_value        2    2[COMMON] unsigned int 
  3981 ;; Return value:  Size  Location     Type
  3982 ;;                  2    0[COMMON] unsigned int 
  3983 ;; Registers used:
  3984 ;;		wreg, status,2, status,0
  3985 ;; Tracked objects:
  3986 ;;		On entry : 0/0
  3987 ;;		On exit  : 0/0
  3988 ;;		Unchanged: 0/0
  3989 ;; Data sizes:     COMMON   BANK0   BANK1   BANK3   BANK2
  3990 ;;      Params:         2       0       0       0       0
  3991 ;;      Locals:         3       0       0       0       0
  3992 ;;      Temps:          0       0       0       0       0
  3993 ;;      Totals:         5       0       0       0       0
  3994 ;;Total ram usage:        5 bytes
  3995 ;; Hardware stack levels used:    1
  3996 ;; This function calls:
  3997 ;;		Nothing
  3998 ;; This function is called by:
  3999 ;;		_switch_channel
  4000 ;; This function uses a non-reentrant model
  4001 ;;
  4002                           psect	text583,local,class=CODE,delta=2,merge=1
  4003                           global __ptext583
  4004  0BFF                     __ptext583:
  4005                           psect	text583
  4006                           	file	"PR31_final.c"
  4007                           	line	561
  4008                           	global	__size_of_eprom_read
  4009  0020                     	__size_of_eprom_read	equ	__end_of_eprom_read-_eprom_read
  4010                           	
  4011  0BFF                     _eprom_read:	
  4012                           	opt	stack 5
  4013                           ; Regs used in _eprom_read: [wreg+status,2+status,0]
  4014                           ;eprom_read@channel_adr stored from wreg
  4015                           	line	563
  4016  0BFF  00F4               	movwf	(eprom_read@channel_adr)
  4017                           	
  4018  0C00                     l1752:	
  4019                           ;PR31_final.c: 562: unsigned int fm_value;
  4020                           ;PR31_final.c: 563: EEADR = channel_adr;
  4021  0C00  0874               	movf	(eprom_read@channel_adr),w
  4022  0C01  1283               	bcf	status, 5	;RP0=0, select bank2
  4023  0C02  1703               	bsf	status, 6	;RP1=1, select bank2
  4024  0C03  008D               	movwf	(269)^0100h	;volatile
  4025                           	line	564
  4026                           	
  4027  0C04                     l1754:	
  4028                           ;PR31_final.c: 564: EEPGD = 0;
  4029  0C04  1683               	bsf	status, 5	;RP0=1, select bank3
  4030  0C05  1703               	bsf	status, 6	;RP1=1, select bank3
  4031  0C06  138C               	bcf	(3175/8)^0180h,(3175)&7	;volatile
  4032                           	line	565
  4033                           	
  4034  0C07                     l1756:	
  4035                           ;PR31_final.c: 565: RD = 1;
  4036  0C07  140C               	bsf	(3168/8)^0180h,(3168)&7	;volatile
  4037                           	line	566
  4038                           ;PR31_final.c: 566: while (RD == 1);
  4039  0C08  2C09               	goto	l419
  4040                           	
  4041  0C09                     l420:	
  4042                           	
  4043  0C09                     l419:	
  4044  0C09  180C               	btfsc	(3168/8)^0180h,(3168)&7	;volatile
  4045  0C0A  2C0C               	goto	u1531
  4046  0C0B  2C0D               	goto	u1530
  4047  0C0C                     u1531:
  4048  0C0C  2C09               	goto	l419
  4049  0C0D                     u1530:
  4050  0C0D  2C0E               	goto	l1758
  4051                           	
  4052  0C0E                     l421:	
  4053                           	line	567
  4054                           	
  4055  0C0E                     l1758:	
  4056                           ;PR31_final.c: 567: fm_value = (EEDATA + 825);
  4057  0C0E  1283               	bcf	status, 5	;RP0=0, select bank2
  4058  0C0F  1703               	bsf	status, 6	;RP1=1, select bank2
  4059  0C10  080C               	movf	(268)^0100h,w	;volatile
  4060  0C11  3E39               	addlw	low(0339h)
  4061  0C12  00F2               	movwf	(eprom_read@fm_value)
  4062  0C13  3003               	movlw	high(0339h)
  4063  0C14  1803               	skipnc
  4064  0C15  3004               	movlw	(high(0339h)+1)&0ffh
  4065  0C16  00F3               	movwf	((eprom_read@fm_value))+1
  4066                           	line	569
  4067                           	
  4068  0C17                     l1760:	
  4069                           ;PR31_final.c: 569: return fm_value;
  4070  0C17  0873               	movf	(eprom_read@fm_value+1),w
  4071  0C18  01F1               	clrf	(?_eprom_read+1)
  4072  0C19  07F1               	addwf	(?_eprom_read+1)
  4073  0C1A  0872               	movf	(eprom_read@fm_value),w
  4074  0C1B  01F0               	clrf	(?_eprom_read)
  4075  0C1C  07F0               	addwf	(?_eprom_read)
  4076                           
  4077  0C1D  2C1E               	goto	l422
  4078                           	
  4079  0C1E                     l1762:	
  4080                           	line	570
  4081                           	
  4082  0C1E                     l422:	
  4083  0C1E  0008               	return
  4084                           	opt stack 0
  4085                           GLOBAL	__end_of_eprom_read
  4086  0C1F                     	__end_of_eprom_read:
  4087                           	signat	_eprom_read,4218
  4088                           	global	_decrease_chan
  4089                           
  4090 ;; *************** function _decrease_chan *****************
  4091 ;; Defined at:
  4092 ;;		line 279 in file "PR31_final.c"
  4093 ;; Parameters:    Size  Location     Type
  4094 ;;		None
  4095 ;; Auto vars:     Size  Location     Type
  4096 ;;		None
  4097 ;; Return value:  Size  Location     Type
  4098 ;;		None               void
  4099 ;; Registers used:
  4100 ;;		wreg, fsr0l, fsr0h, status,2, status,0, btemp+1, pclath, cstack
  4101 ;; Tracked objects:
  4102 ;;		On entry : 0/0
  4103 ;;		On exit  : 0/0
  4104 ;;		Unchanged: 0/0
  4105 ;; Data sizes:     COMMON   BANK0   BANK1   BANK3   BANK2
  4106 ;;      Params:         0       0       0       0       0
  4107 ;;      Locals:         0       0       0       0       0
  4108 ;;      Temps:          0       4       0       0       0
  4109 ;;      Totals:         0       4       0       0       0
  4110 ;;Total ram usage:        4 bytes
  4111 ;; Hardware stack levels used:    1
  4112 ;; Hardware stack levels required when called:    5
  4113 ;; This function calls:
  4114 ;;		_setAR1000
  4115 ;;		_uart_tx
  4116 ;;		_uart_sendstr
  4117 ;;		_send_dec
  4118 ;;		_delay
  4119 ;; This function is called by:
  4120 ;;		_adjust_channel
  4121 ;; This function uses a non-reentrant model
  4122 ;;
  4123                           psect	text584,local,class=CODE,delta=2,merge=1
  4124                           global __ptext584
  4125  0E5D                     __ptext584:
  4126                           psect	text584
  4127                           	file	"PR31_final.c"
  4128                           	line	279
  4129                           	global	__size_of_decrease_chan
  4130  0076                     	__size_of_decrease_chan	equ	__end_of_decrease_chan-_decrease_chan
  4131                           	
  4132  0E5D                     _decrease_chan:	
  4133                           	opt	stack 1
  4134                           ; Regs used in _decrease_chan: [wreg-fsr0h+status,2+status,0+btemp+1+pclath+cstack]
  4135                           	line	280
  4136                           	
  4137  0E5D                     l2046:	
  4138                           ;PR31_final.c: 280: currentChannel -=1;
  4139  0E5D  3001               	movlw	01h
  4140  0E5E  1283               	bcf	status, 5	;RP0=0, select bank0
  4141  0E5F  1303               	bcf	status, 6	;RP1=0, select bank0
  4142  0E60  00BE               	movwf	((??_decrease_chan+0)+0)
  4143  0E61  3000               	movlw	0
  4144  0E62  00BF               	movwf	((??_decrease_chan+0)+0+1)
  4145  0E63  3000               	movlw	0
  4146  0E64  00C0               	movwf	((??_decrease_chan+0)+0+2)
  4147  0E65  3000               	movlw	0
  4148  0E66  00C1               	movwf	((??_decrease_chan+0)+0+3)
  4149  0E67  083E               	movf	0+(??_decrease_chan+0)+0,w
  4150  0E68  02DD               	subwf	(_currentChannel),f
  4151  0E69  083F               	movf	1+(??_decrease_chan+0)+0,w
  4152  0E6A  1C03               	skipc
  4153  0E6B  0F3F               	incfsz	1+(??_decrease_chan+0)+0,w
  4154  0E6C  2E6E               	goto	u1955
  4155  0E6D  2E6F               	goto	u1956
  4156  0E6E                     u1955:
  4157  0E6E  02DE               	subwf	(_currentChannel+1),f
  4158  0E6F                     u1956:
  4159  0E6F  0840               	movf	2+(??_decrease_chan+0)+0,w
  4160  0E70  1C03               	skipc
  4161  0E71  0F40               	incfsz	2+(??_decrease_chan+0)+0,w
  4162  0E72  2E74               	goto	u1957
  4163  0E73  2E75               	goto	u1958
  4164  0E74                     u1957:
  4165  0E74  02DF               	subwf	(_currentChannel+2),f
  4166  0E75                     u1958:
  4167  0E75  0841               	movf	3+(??_decrease_chan+0)+0,w
  4168  0E76  1C03               	skipc
  4169  0E77  0F41               	incfsz	3+(??_decrease_chan+0)+0,w
  4170  0E78  2E7A               	goto	u1959
  4171  0E79  2E7B               	goto	u1950
  4172  0E7A                     u1959:
  4173  0E7A  02E0               	subwf	(_currentChannel+3),f
  4174  0E7B                     u1950:
  4175                           
  4176                           	line	281
  4177                           ;PR31_final.c: 281: if ( currentChannel <= 875 )
  4178  0E7B  3000               	movlw	0
  4179  0E7C  0260               	subwf	(_currentChannel+3),w
  4180  0E7D  1D03               	skipz
  4181  0E7E  2E89               	goto	u1965
  4182  0E7F  3000               	movlw	0
  4183  0E80  025F               	subwf	(_currentChannel+2),w
  4184  0E81  1D03               	skipz
  4185  0E82  2E89               	goto	u1965
  4186  0E83  3003               	movlw	03h
  4187  0E84  025E               	subwf	(_currentChannel+1),w
  4188  0E85  1D03               	skipz
  4189  0E86  2E89               	goto	u1965
  4190  0E87  306C               	movlw	06Ch
  4191  0E88  025D               	subwf	(_currentChannel),w
  4192  0E89                     u1965:
  4193  0E89  1803               	skipnc
  4194  0E8A  2E8C               	goto	u1961
  4195  0E8B  2E8D               	goto	u1960
  4196  0E8C                     u1961:
  4197  0E8C  2E96               	goto	l2050
  4198  0E8D                     u1960:
  4199                           	line	282
  4200                           	
  4201  0E8D                     l2048:	
  4202                           ;PR31_final.c: 282: currentChannel = 1080;
  4203  0E8D  3000               	movlw	0
  4204  0E8E  00E0               	movwf	(_currentChannel+3)
  4205  0E8F  3000               	movlw	0
  4206  0E90  00DF               	movwf	(_currentChannel+2)
  4207  0E91  3004               	movlw	04h
  4208  0E92  00DE               	movwf	(_currentChannel+1)
  4209  0E93  3038               	movlw	038h
  4210  0E94  00DD               	movwf	(_currentChannel)
  4211                           
  4212  0E95  2E96               	goto	l2050
  4213                           	
  4214  0E96                     l317:	
  4215                           	line	283
  4216                           	
  4217  0E96                     l2050:	
  4218                           ;PR31_final.c: 283: setAR1000 (currentChannel);
  4219  0E96  085E               	movf	(_currentChannel+1),w
  4220  0E97  01AA               	clrf	(?_setAR1000+1)
  4221  0E98  07AA               	addwf	(?_setAR1000+1)
  4222  0E99  085D               	movf	(_currentChannel),w
  4223  0E9A  01A9               	clrf	(?_setAR1000)
  4224  0E9B  07A9               	addwf	(?_setAR1000)
  4225                           
  4226  0E9C  120A  118A  21B1   	fcall	_setAR1000
              120A  158A         
  4227                           	line	284
  4228                           	
  4229  0EA1                     l2052:	
  4230                           ;PR31_final.c: 284: uart_tx(0x0C);
  4231  0EA1  300C               	movlw	(0Ch)
  4232  0EA2  120A  158A  2304   	fcall	_uart_tx
              120A  158A         
  4233                           	line	285
  4234                           	
  4235  0EA7                     l2054:	
  4236                           ;PR31_final.c: 285: uart_sendstr("channel ");
  4237  0EA7  304D               	movlw	((STR_18-__stringbase))&0ffh
  4238  0EA8  120A  158A  246C   	fcall	_uart_sendstr
              120A  158A         
  4239                           	line	286
  4240                           	
  4241  0EAD                     l2056:	
  4242                           ;PR31_final.c: 286: uart_tx(0x30+m);
  4243  0EAD  1283               	bcf	status, 5	;RP0=0, select bank0
  4244  0EAE  1303               	bcf	status, 6	;RP1=0, select bank0
  4245  0EAF  0868               	movf	(_m),w
  4246  0EB0  3E30               	addlw	030h
  4247  0EB1  120A  158A  2304   	fcall	_uart_tx
              120A  158A         
  4248                           	line	287
  4249                           	
  4250  0EB6                     l2058:	
  4251                           ;PR31_final.c: 287: send_dec(currentChannel);
  4252  0EB6  1283               	bcf	status, 5	;RP0=0, select bank0
  4253  0EB7  1303               	bcf	status, 6	;RP1=0, select bank0
  4254  0EB8  0860               	movf	(_currentChannel+3),w
  4255  0EB9  00A3               	movwf	(?_send_dec+3)
  4256  0EBA  085F               	movf	(_currentChannel+2),w
  4257  0EBB  00A2               	movwf	(?_send_dec+2)
  4258  0EBC  085E               	movf	(_currentChannel+1),w
  4259  0EBD  00A1               	movwf	(?_send_dec+1)
  4260  0EBE  085D               	movf	(_currentChannel),w
  4261  0EBF  00A0               	movwf	(?_send_dec)
  4262                           
  4263  0EC0  120A  118A  266B   	fcall	_send_dec
              120A  158A         
  4264                           	line	288
  4265                           	
  4266  0EC5                     l2060:	
  4267                           ;PR31_final.c: 288: delay(1500);
  4268  0EC5  3000               	movlw	0
  4269  0EC6  00F3               	movwf	(?_delay+3)
  4270  0EC7  3000               	movlw	0
  4271  0EC8  00F2               	movwf	(?_delay+2)
  4272  0EC9  3005               	movlw	05h
  4273  0ECA  00F1               	movwf	(?_delay+1)
  4274  0ECB  30DC               	movlw	0DCh
  4275  0ECC  00F0               	movwf	(?_delay)
  4276                           
  4277  0ECD  120A  118A  202B   	fcall	_delay
              120A  158A         
  4278                           	line	289
  4279                           	
  4280  0ED2                     l318:	
  4281  0ED2  0008               	return
  4282                           	opt stack 0
  4283                           GLOBAL	__end_of_decrease_chan
  4284  0ED3                     	__end_of_decrease_chan:
  4285                           	signat	_decrease_chan,88
  4286                           	global	_increase_chan
  4287                           
  4288 ;; *************** function _increase_chan *****************
  4289 ;; Defined at:
  4290 ;;		line 292 in file "PR31_final.c"
  4291 ;; Parameters:    Size  Location     Type
  4292 ;;		None
  4293 ;; Auto vars:     Size  Location     Type
  4294 ;;		None
  4295 ;; Return value:  Size  Location     Type
  4296 ;;		None               void
  4297 ;; Registers used:
  4298 ;;		wreg, fsr0l, fsr0h, status,2, status,0, btemp+1, pclath, cstack
  4299 ;; Tracked objects:
  4300 ;;		On entry : 0/0
  4301 ;;		On exit  : 0/0
  4302 ;;		Unchanged: 0/0
  4303 ;; Data sizes:     COMMON   BANK0   BANK1   BANK3   BANK2
  4304 ;;      Params:         0       0       0       0       0
  4305 ;;      Locals:         0       0       0       0       0
  4306 ;;      Temps:          0       0       0       0       0
  4307 ;;      Totals:         0       0       0       0       0
  4308 ;;Total ram usage:        0 bytes
  4309 ;; Hardware stack levels used:    1
  4310 ;; Hardware stack levels required when called:    5
  4311 ;; This function calls:
  4312 ;;		_setAR1000
  4313 ;;		_uart_tx
  4314 ;;		_uart_sendstr
  4315 ;;		_send_dec
  4316 ;;		_delay
  4317 ;; This function is called by:
  4318 ;;		_adjust_channel
  4319 ;; This function uses a non-reentrant model
  4320 ;;
  4321                           psect	text585,local,class=CODE,delta=2,merge=1
  4322                           global __ptext585
  4323  0D87                     __ptext585:
  4324                           psect	text585
  4325                           	file	"PR31_final.c"
  4326                           	line	292
  4327                           	global	__size_of_increase_chan
  4328  0068                     	__size_of_increase_chan	equ	__end_of_increase_chan-_increase_chan
  4329                           	
  4330  0D87                     _increase_chan:	
  4331                           	opt	stack 1
  4332                           ; Regs used in _increase_chan: [wreg-fsr0h+status,2+status,0+btemp+1+pclath+cstack]
  4333                           	line	293
  4334                           	
  4335  0D87                     l2062:	
  4336                           ;PR31_final.c: 293: currentChannel +=1;
  4337  0D87  3001               	movlw	01h
  4338  0D88  1283               	bcf	status, 5	;RP0=0, select bank0
  4339  0D89  1303               	bcf	status, 6	;RP1=0, select bank0
  4340  0D8A  07DD               	addwf	(_currentChannel),f
  4341  0D8B  3000               	movlw	0
  4342  0D8C  1803               	skipnc
  4343  0D8D  3001               movlw 1
  4344  0D8E  07DE               	addwf	(_currentChannel+1),f
  4345  0D8F  3000               	movlw	0
  4346  0D90  1803               	skipnc
  4347  0D91  3001               movlw 1
  4348  0D92  07DF               	addwf	(_currentChannel+2),f
  4349  0D93  3000               	movlw	0
  4350  0D94  1803               	skipnc
  4351  0D95  3001               movlw 1
  4352  0D96  07E0               	addwf	(_currentChannel+3),f
  4353                           	line	294
  4354                           ;PR31_final.c: 294: if ( currentChannel >= 1080 )
  4355  0D97  3000               	movlw	0
  4356  0D98  0260               	subwf	(_currentChannel+3),w
  4357  0D99  1D03               	skipz
  4358  0D9A  2DA5               	goto	u1975
  4359  0D9B  3000               	movlw	0
  4360  0D9C  025F               	subwf	(_currentChannel+2),w
  4361  0D9D  1D03               	skipz
  4362  0D9E  2DA5               	goto	u1975
  4363  0D9F  3004               	movlw	04h
  4364  0DA0  025E               	subwf	(_currentChannel+1),w
  4365  0DA1  1D03               	skipz
  4366  0DA2  2DA5               	goto	u1975
  4367  0DA3  3038               	movlw	038h
  4368  0DA4  025D               	subwf	(_currentChannel),w
  4369  0DA5                     u1975:
  4370  0DA5  1C03               	skipc
  4371  0DA6  2DA8               	goto	u1971
  4372  0DA7  2DA9               	goto	u1970
  4373  0DA8                     u1971:
  4374  0DA8  2DB2               	goto	l2066
  4375  0DA9                     u1970:
  4376                           	line	295
  4377                           	
  4378  0DA9                     l2064:	
  4379                           ;PR31_final.c: 295: currentChannel = 875;
  4380  0DA9  3000               	movlw	0
  4381  0DAA  00E0               	movwf	(_currentChannel+3)
  4382  0DAB  3000               	movlw	0
  4383  0DAC  00DF               	movwf	(_currentChannel+2)
  4384  0DAD  3003               	movlw	03h
  4385  0DAE  00DE               	movwf	(_currentChannel+1)
  4386  0DAF  306B               	movlw	06Bh
  4387  0DB0  00DD               	movwf	(_currentChannel)
  4388                           
  4389  0DB1  2DB2               	goto	l2066
  4390                           	
  4391  0DB2                     l321:	
  4392                           	line	296
  4393                           	
  4394  0DB2                     l2066:	
  4395                           ;PR31_final.c: 296: setAR1000 (currentChannel);
  4396  0DB2  085E               	movf	(_currentChannel+1),w
  4397  0DB3  01AA               	clrf	(?_setAR1000+1)
  4398  0DB4  07AA               	addwf	(?_setAR1000+1)
  4399  0DB5  085D               	movf	(_currentChannel),w
  4400  0DB6  01A9               	clrf	(?_setAR1000)
  4401  0DB7  07A9               	addwf	(?_setAR1000)
  4402                           
  4403  0DB8  120A  118A  21B1   	fcall	_setAR1000
              120A  158A         
  4404                           	line	297
  4405                           	
  4406  0DBD                     l2068:	
  4407                           ;PR31_final.c: 297: uart_tx(0x0C);
  4408  0DBD  300C               	movlw	(0Ch)
  4409  0DBE  120A  158A  2304   	fcall	_uart_tx
              120A  158A         
  4410                           	line	298
  4411                           	
  4412  0DC3                     l2070:	
  4413                           ;PR31_final.c: 298: uart_sendstr("channel ");
  4414  0DC3  304D               	movlw	((STR_19-__stringbase))&0ffh
  4415  0DC4  120A  158A  246C   	fcall	_uart_sendstr
              120A  158A         
  4416                           	line	299
  4417                           	
  4418  0DC9                     l2072:	
  4419                           ;PR31_final.c: 299: uart_tx(0x30+m);
  4420  0DC9  1283               	bcf	status, 5	;RP0=0, select bank0
  4421  0DCA  1303               	bcf	status, 6	;RP1=0, select bank0
  4422  0DCB  0868               	movf	(_m),w
  4423  0DCC  3E30               	addlw	030h
  4424  0DCD  120A  158A  2304   	fcall	_uart_tx
              120A  158A         
  4425                           	line	300
  4426                           	
  4427  0DD2                     l2074:	
  4428                           ;PR31_final.c: 300: send_dec(currentChannel);
  4429  0DD2  1283               	bcf	status, 5	;RP0=0, select bank0
  4430  0DD3  1303               	bcf	status, 6	;RP1=0, select bank0
  4431  0DD4  0860               	movf	(_currentChannel+3),w
  4432  0DD5  00A3               	movwf	(?_send_dec+3)
  4433  0DD6  085F               	movf	(_currentChannel+2),w
  4434  0DD7  00A2               	movwf	(?_send_dec+2)
  4435  0DD8  085E               	movf	(_currentChannel+1),w
  4436  0DD9  00A1               	movwf	(?_send_dec+1)
  4437  0DDA  085D               	movf	(_currentChannel),w
  4438  0DDB  00A0               	movwf	(?_send_dec)
  4439                           
  4440  0DDC  120A  118A  266B   	fcall	_send_dec
              120A  158A         
  4441                           	line	301
  4442                           	
  4443  0DE1                     l2076:	
  4444                           ;PR31_final.c: 301: delay(1500);
  4445  0DE1  3000               	movlw	0
  4446  0DE2  00F3               	movwf	(?_delay+3)
  4447  0DE3  3000               	movlw	0
  4448  0DE4  00F2               	movwf	(?_delay+2)
  4449  0DE5  3005               	movlw	05h
  4450  0DE6  00F1               	movwf	(?_delay+1)
  4451  0DE7  30DC               	movlw	0DCh
  4452  0DE8  00F0               	movwf	(?_delay)
  4453                           
  4454  0DE9  120A  118A  202B   	fcall	_delay
              120A  158A         
  4455                           	line	302
  4456                           	
  4457  0DEE                     l322:	
  4458  0DEE  0008               	return
  4459                           	opt stack 0
  4460                           GLOBAL	__end_of_increase_chan
  4461  0DEF                     	__end_of_increase_chan:
  4462                           	signat	_increase_chan,88
  4463                           	global	_setAR1000
  4464                           
  4465 ;; *************** function _setAR1000 *****************
  4466 ;; Defined at:
  4467 ;;		line 416 in file "PR31_final.c"
  4468 ;; Parameters:    Size  Location     Type
  4469 ;;  freq_kHz        2    9[BANK0 ] unsigned int 
  4470 ;; Auto vars:     Size  Location     Type
  4471 ;;		None
  4472 ;; Return value:  Size  Location     Type
  4473 ;;		None               void
  4474 ;; Registers used:
  4475 ;;		wreg, status,2, status,0, btemp+1, pclath, cstack
  4476 ;; Tracked objects:
  4477 ;;		On entry : 0/0
  4478 ;;		On exit  : 0/0
  4479 ;;		Unchanged: 0/0
  4480 ;; Data sizes:     COMMON   BANK0   BANK1   BANK3   BANK2
  4481 ;;      Params:         0       2       0       0       0
  4482 ;;      Locals:         0       0       0       0       0
  4483 ;;      Temps:          0       3       0       0       0
  4484 ;;      Totals:         0       5       0       0       0
  4485 ;;Total ram usage:        5 bytes
  4486 ;; Hardware stack levels used:    1
  4487 ;; Hardware stack levels required when called:    1
  4488 ;; This function calls:
  4489 ;;		_ar_i2c_write
  4490 ;;		_ar_i2c_read
  4491 ;;		_delay
  4492 ;; This function is called by:
  4493 ;;		_switch_channel
  4494 ;;		_decrease_chan
  4495 ;;		_increase_chan
  4496 ;; This function uses a non-reentrant model
  4497 ;;
  4498                           psect	text586,local,class=CODE,delta=2,merge=1
  4499                           global __ptext586
  4500  01B1                     __ptext586:
  4501                           psect	text586
  4502                           	file	"PR31_final.c"
  4503                           	line	416
  4504                           	global	__size_of_setAR1000
  4505  0111                     	__size_of_setAR1000	equ	__end_of_setAR1000-_setAR1000
  4506                           	
  4507  01B1                     _setAR1000:	
  4508                           	opt	stack 4
  4509                           ; Regs used in _setAR1000: [wreg+status,2+status,0+btemp+1+pclath+cstack]
  4510                           	line	417
  4511                           	
  4512  01B1                     l1872:	
  4513                           ;PR31_final.c: 417: freq_kHz -= 690;
  4514  01B1  30B2               	movlw	low(02B2h)
  4515  01B2  1283               	bcf	status, 5	;RP0=0, select bank0
  4516  01B3  1303               	bcf	status, 6	;RP1=0, select bank0
  4517  01B4  02A9               	subwf	(setAR1000@freq_kHz),f
  4518  01B5  3002               	movlw	high(02B2h)
  4519  01B6  1C03               	skipc
  4520  01B7  03AA               	decf	(setAR1000@freq_kHz+1),f
  4521  01B8  02AA               	subwf	(setAR1000@freq_kHz+1),f
  4522                           	line	419
  4523                           	
  4524  01B9                     l1874:	
  4525                           ;PR31_final.c: 419: register_values[1] |= (1<<1);
  4526  01B9  1683               	bsf	status, 5	;RP0=1, select bank1
  4527  01BA  1303               	bcf	status, 6	;RP1=0, select bank1
  4528  01BB  14AC               	bsf	0+(_register_values)^080h+02h+(1/8),(1)&7
  4529                           	line	420
  4530                           	
  4531  01BC                     l1876:	
  4532                           ;PR31_final.c: 420: ar_i2c_write(0x20, 1, register_values[1]);
  4533  01BC  01F0               	clrf	(?_ar_i2c_write)
  4534  01BD  1403               	bsf	status,0
  4535  01BE  0DF0               	rlf	(?_ar_i2c_write),f
  4536  01BF  082C               	movf	0+(_register_values)^080h+02h,w
  4537  01C0  00F1               	movwf	0+(?_ar_i2c_write)+01h
  4538  01C1  082D               	movf	1+(_register_values)^080h+02h,w
  4539  01C2  00F2               	movwf	(0+(?_ar_i2c_write)+01h)+1
  4540  01C3  01F3               	clrf	2+(0+(?_ar_i2c_write)+01h)
  4541  01C4  01F4               	clrf	3+(0+(?_ar_i2c_write)+01h)
  4542  01C5  3020               	movlw	(020h)
  4543  01C6  120A  158A  26D3   	fcall	_ar_i2c_write
              120A  118A         
  4544                           	line	423
  4545                           	
  4546  01CB                     l1878:	
  4547                           ;PR31_final.c: 423: register_values[2] &= ~(0x01FF | 0x0200);
  4548  01CB  3000               	movlw	low(0FC00h)
  4549  01CC  1683               	bsf	status, 5	;RP0=1, select bank1
  4550  01CD  1303               	bcf	status, 6	;RP1=0, select bank1
  4551  01CE  05AE               	andwf	0+(_register_values)^080h+04h,f
  4552  01CF  30FC               	movlw	high(0FC00h)
  4553  01D0  05AF               	andwf	1+(_register_values)^080h+04h,f
  4554                           	line	424
  4555                           ;PR31_final.c: 424: ar_i2c_write(0x20, 2, register_values[2]);
  4556  01D1  3002               	movlw	(02h)
  4557  01D2  1283               	bcf	status, 5	;RP0=0, select bank0
  4558  01D3  1303               	bcf	status, 6	;RP1=0, select bank0
  4559  01D4  00AB               	movwf	(??_setAR1000+0)+0
  4560  01D5  082B               	movf	(??_setAR1000+0)+0,w
  4561  01D6  00F0               	movwf	(?_ar_i2c_write)
  4562  01D7  1683               	bsf	status, 5	;RP0=1, select bank1
  4563  01D8  1303               	bcf	status, 6	;RP1=0, select bank1
  4564  01D9  082E               	movf	0+(_register_values)^080h+04h,w
  4565  01DA  00F1               	movwf	0+(?_ar_i2c_write)+01h
  4566  01DB  082F               	movf	1+(_register_values)^080h+04h,w
  4567  01DC  00F2               	movwf	(0+(?_ar_i2c_write)+01h)+1
  4568  01DD  01F3               	clrf	2+(0+(?_ar_i2c_write)+01h)
  4569  01DE  01F4               	clrf	3+(0+(?_ar_i2c_write)+01h)
  4570  01DF  3020               	movlw	(020h)
  4571  01E0  120A  158A  26D3   	fcall	_ar_i2c_write
              120A  118A         
  4572                           	line	427
  4573                           	
  4574  01E5                     l1880:	
  4575                           ;PR31_final.c: 427: register_values[3] &= ~(1<<14);
  4576  01E5  30FF               	movlw	low(0BFFFh)
  4577  01E6  1683               	bsf	status, 5	;RP0=1, select bank1
  4578  01E7  1303               	bcf	status, 6	;RP1=0, select bank1
  4579  01E8  05B0               	andwf	0+(_register_values)^080h+06h,f
  4580  01E9  30BF               	movlw	high(0BFFFh)
  4581  01EA  05B1               	andwf	1+(_register_values)^080h+06h,f
  4582                           	line	428
  4583                           	
  4584  01EB                     l1882:	
  4585                           ;PR31_final.c: 428: ar_i2c_write(0x20, 3,register_values[3]);
  4586  01EB  3003               	movlw	(03h)
  4587  01EC  1283               	bcf	status, 5	;RP0=0, select bank0
  4588  01ED  1303               	bcf	status, 6	;RP1=0, select bank0
  4589  01EE  00AB               	movwf	(??_setAR1000+0)+0
  4590  01EF  082B               	movf	(??_setAR1000+0)+0,w
  4591  01F0  00F0               	movwf	(?_ar_i2c_write)
  4592  01F1  1683               	bsf	status, 5	;RP0=1, select bank1
  4593  01F2  1303               	bcf	status, 6	;RP1=0, select bank1
  4594  01F3  0830               	movf	0+(_register_values)^080h+06h,w
  4595  01F4  00F1               	movwf	0+(?_ar_i2c_write)+01h
  4596  01F5  0831               	movf	1+(_register_values)^080h+06h,w
  4597  01F6  00F2               	movwf	(0+(?_ar_i2c_write)+01h)+1
  4598  01F7  01F3               	clrf	2+(0+(?_ar_i2c_write)+01h)
  4599  01F8  01F4               	clrf	3+(0+(?_ar_i2c_write)+01h)
  4600  01F9  3020               	movlw	(020h)
  4601  01FA  120A  158A  26D3   	fcall	_ar_i2c_write
              120A  118A         
  4602                           	line	431
  4603                           	
  4604  01FF                     l1884:	
  4605                           ;PR31_final.c: 431: register_values[3] |= (1<<13);
  4606  01FF  1683               	bsf	status, 5	;RP0=1, select bank1
  4607  0200  1303               	bcf	status, 6	;RP1=0, select bank1
  4608  0201  16B1               	bsf	0+(_register_values)^080h+06h+(13/8),(13)&7
  4609                           	line	432
  4610                           	
  4611  0202                     l1886:	
  4612                           ;PR31_final.c: 432: ar_i2c_write(0x20, 3,register_values[3]);
  4613  0202  3003               	movlw	(03h)
  4614  0203  1283               	bcf	status, 5	;RP0=0, select bank0
  4615  0204  1303               	bcf	status, 6	;RP1=0, select bank0
  4616  0205  00AB               	movwf	(??_setAR1000+0)+0
  4617  0206  082B               	movf	(??_setAR1000+0)+0,w
  4618  0207  00F0               	movwf	(?_ar_i2c_write)
  4619  0208  1683               	bsf	status, 5	;RP0=1, select bank1
  4620  0209  1303               	bcf	status, 6	;RP1=0, select bank1
  4621  020A  0830               	movf	0+(_register_values)^080h+06h,w
  4622  020B  00F1               	movwf	0+(?_ar_i2c_write)+01h
  4623  020C  0831               	movf	1+(_register_values)^080h+06h,w
  4624  020D  00F2               	movwf	(0+(?_ar_i2c_write)+01h)+1
  4625  020E  01F3               	clrf	2+(0+(?_ar_i2c_write)+01h)
  4626  020F  01F4               	clrf	3+(0+(?_ar_i2c_write)+01h)
  4627  0210  3020               	movlw	(020h)
  4628  0211  120A  158A  26D3   	fcall	_ar_i2c_write
              120A  118A         
  4629                           	line	435
  4630                           	
  4631  0216                     l1888:	
  4632                           ;PR31_final.c: 435: register_values[2] |= freq_kHz;
  4633  0216  1283               	bcf	status, 5	;RP0=0, select bank0
  4634  0217  1303               	bcf	status, 6	;RP1=0, select bank0
  4635  0218  0829               	movf	(setAR1000@freq_kHz),w
  4636  0219  1683               	bsf	status, 5	;RP0=1, select bank1
  4637  021A  1303               	bcf	status, 6	;RP1=0, select bank1
  4638  021B  04AE               	iorwf	0+(_register_values)^080h+04h,f
  4639  021C  1283               	bcf	status, 5	;RP0=0, select bank0
  4640  021D  1303               	bcf	status, 6	;RP1=0, select bank0
  4641  021E  082A               	movf	(setAR1000@freq_kHz+1),w
  4642  021F  1683               	bsf	status, 5	;RP0=1, select bank1
  4643  0220  1303               	bcf	status, 6	;RP1=0, select bank1
  4644  0221  04AF               	iorwf	1+(_register_values)^080h+04h,f
  4645                           	line	436
  4646                           ;PR31_final.c: 436: ar_i2c_write(0x20, 2,register_values[2]);
  4647  0222  3002               	movlw	(02h)
  4648  0223  1283               	bcf	status, 5	;RP0=0, select bank0
  4649  0224  1303               	bcf	status, 6	;RP1=0, select bank0
  4650  0225  00AB               	movwf	(??_setAR1000+0)+0
  4651  0226  082B               	movf	(??_setAR1000+0)+0,w
  4652  0227  00F0               	movwf	(?_ar_i2c_write)
  4653  0228  1683               	bsf	status, 5	;RP0=1, select bank1
  4654  0229  1303               	bcf	status, 6	;RP1=0, select bank1
  4655  022A  082E               	movf	0+(_register_values)^080h+04h,w
  4656  022B  00F1               	movwf	0+(?_ar_i2c_write)+01h
  4657  022C  082F               	movf	1+(_register_values)^080h+04h,w
  4658  022D  00F2               	movwf	(0+(?_ar_i2c_write)+01h)+1
  4659  022E  01F3               	clrf	2+(0+(?_ar_i2c_write)+01h)
  4660  022F  01F4               	clrf	3+(0+(?_ar_i2c_write)+01h)
  4661  0230  3020               	movlw	(020h)
  4662  0231  120A  158A  26D3   	fcall	_ar_i2c_write
              120A  118A         
  4663                           	line	439
  4664                           	
  4665  0236                     l1890:	
  4666                           ;PR31_final.c: 439: register_values[2] |= (1<<9);
  4667  0236  1683               	bsf	status, 5	;RP0=1, select bank1
  4668  0237  1303               	bcf	status, 6	;RP1=0, select bank1
  4669  0238  14AF               	bsf	0+(_register_values)^080h+04h+(9/8),(9)&7
  4670                           	line	440
  4671                           ;PR31_final.c: 440: ar_i2c_write(0x20, 2,register_values[2]);
  4672  0239  3002               	movlw	(02h)
  4673  023A  1283               	bcf	status, 5	;RP0=0, select bank0
  4674  023B  1303               	bcf	status, 6	;RP1=0, select bank0
  4675  023C  00AB               	movwf	(??_setAR1000+0)+0
  4676  023D  082B               	movf	(??_setAR1000+0)+0,w
  4677  023E  00F0               	movwf	(?_ar_i2c_write)
  4678  023F  1683               	bsf	status, 5	;RP0=1, select bank1
  4679  0240  1303               	bcf	status, 6	;RP1=0, select bank1
  4680  0241  082E               	movf	0+(_register_values)^080h+04h,w
  4681  0242  00F1               	movwf	0+(?_ar_i2c_write)+01h
  4682  0243  082F               	movf	1+(_register_values)^080h+04h,w
  4683  0244  00F2               	movwf	(0+(?_ar_i2c_write)+01h)+1
  4684  0245  01F3               	clrf	2+(0+(?_ar_i2c_write)+01h)
  4685  0246  01F4               	clrf	3+(0+(?_ar_i2c_write)+01h)
  4686  0247  3020               	movlw	(020h)
  4687  0248  120A  158A  26D3   	fcall	_ar_i2c_write
              120A  118A         
  4688                           	line	442
  4689                           ;PR31_final.c: 442: while(STC == 0)
  4690  024D  2A74               	goto	l1898
  4691                           	
  4692  024E                     l362:	
  4693                           	line	444
  4694                           	
  4695  024E                     l1892:	
  4696                           ;PR31_final.c: 443: {
  4697                           ;PR31_final.c: 444: STC = ar_i2c_read(0x20, 0x13);
  4698  024E  3013               	movlw	(013h)
  4699  024F  1283               	bcf	status, 5	;RP0=0, select bank0
  4700  0250  1303               	bcf	status, 6	;RP1=0, select bank0
  4701  0251  00AB               	movwf	(??_setAR1000+0)+0
  4702  0252  082B               	movf	(??_setAR1000+0)+0,w
  4703  0253  00F0               	movwf	(?_ar_i2c_read)
  4704  0254  3020               	movlw	(020h)
  4705  0255  120A  118A  23EE   	fcall	_ar_i2c_read
              120A  118A         
  4706  025A  0871               	movf	(1+(?_ar_i2c_read)),w
  4707  025B  1283               	bcf	status, 5	;RP0=0, select bank0
  4708  025C  1303               	bcf	status, 6	;RP1=0, select bank0
  4709  025D  01E6               	clrf	(_STC+1)
  4710  025E  07E6               	addwf	(_STC+1)
  4711  025F  0870               	movf	(0+(?_ar_i2c_read)),w
  4712  0260  01E5               	clrf	(_STC)
  4713  0261  07E5               	addwf	(_STC)
  4714                           
  4715                           	line	445
  4716                           	
  4717  0262                     l1894:	
  4718                           ;PR31_final.c: 445: STC &= (1<<5);
  4719  0262  3020               	movlw	low(020h)
  4720  0263  05E5               	andwf	(_STC),f
  4721  0264  3000               	movlw	high(020h)
  4722  0265  05E6               	andwf	(_STC+1),f
  4723                           	line	446
  4724                           	
  4725  0266                     l1896:	
  4726                           ;PR31_final.c: 446: delay(10);
  4727  0266  3000               	movlw	0
  4728  0267  00F3               	movwf	(?_delay+3)
  4729  0268  3000               	movlw	0
  4730  0269  00F2               	movwf	(?_delay+2)
  4731  026A  3000               	movlw	0
  4732  026B  00F1               	movwf	(?_delay+1)
  4733  026C  300A               	movlw	0Ah
  4734  026D  00F0               	movwf	(?_delay)
  4735                           
  4736  026E  120A  118A  202B   	fcall	_delay
              120A  118A         
  4737  0273  2A74               	goto	l1898
  4738                           	line	447
  4739                           	
  4740  0274                     l361:	
  4741                           	line	442
  4742                           	
  4743  0274                     l1898:	
  4744  0274  1283               	bcf	status, 5	;RP0=0, select bank0
  4745  0275  1303               	bcf	status, 6	;RP1=0, select bank0
  4746  0276  0866               	movf	(_STC+1),w
  4747  0277  0465               	iorwf	(_STC),w
  4748  0278  1903               	skipnz
  4749  0279  2A7B               	goto	u1731
  4750  027A  2A7C               	goto	u1730
  4751  027B                     u1731:
  4752  027B  2A4E               	goto	l1892
  4753  027C                     u1730:
  4754  027C  2A7D               	goto	l1900
  4755                           	
  4756  027D                     l363:	
  4757                           	line	451
  4758                           	
  4759  027D                     l1900:	
  4760                           ;PR31_final.c: 447: }
  4761                           ;PR31_final.c: 451: register_values[1] &= ~(1<<1);
  4762  027D  30FD               	movlw	low(0FFFDh)
  4763  027E  1683               	bsf	status, 5	;RP0=1, select bank1
  4764  027F  1303               	bcf	status, 6	;RP1=0, select bank1
  4765  0280  05AC               	andwf	0+(_register_values)^080h+02h,f
  4766  0281  30FF               	movlw	high(0FFFDh)
  4767  0282  05AD               	andwf	1+(_register_values)^080h+02h,f
  4768                           	line	452
  4769                           	
  4770  0283                     l1902:	
  4771                           ;PR31_final.c: 452: ar_i2c_write(0x20, 1,register_values[1]);
  4772  0283  01F0               	clrf	(?_ar_i2c_write)
  4773  0284  1403               	bsf	status,0
  4774  0285  0DF0               	rlf	(?_ar_i2c_write),f
  4775  0286  082C               	movf	0+(_register_values)^080h+02h,w
  4776  0287  00F1               	movwf	0+(?_ar_i2c_write)+01h
  4777  0288  082D               	movf	1+(_register_values)^080h+02h,w
  4778  0289  00F2               	movwf	(0+(?_ar_i2c_write)+01h)+1
  4779  028A  01F3               	clrf	2+(0+(?_ar_i2c_write)+01h)
  4780  028B  01F4               	clrf	3+(0+(?_ar_i2c_write)+01h)
  4781  028C  3020               	movlw	(020h)
  4782  028D  120A  158A  26D3   	fcall	_ar_i2c_write
              120A  118A         
  4783                           	line	454
  4784                           	
  4785  0292                     l1904:	
  4786                           ;PR31_final.c: 454: currentChannel = (ar_i2c_read(0x20, 0x13)&0xFF80)>>7;
  4787  0292  3013               	movlw	(013h)
  4788  0293  1283               	bcf	status, 5	;RP0=0, select bank0
  4789  0294  1303               	bcf	status, 6	;RP1=0, select bank0
  4790  0295  00AB               	movwf	(??_setAR1000+0)+0
  4791  0296  082B               	movf	(??_setAR1000+0)+0,w
  4792  0297  00F0               	movwf	(?_ar_i2c_read)
  4793  0298  3020               	movlw	(020h)
  4794  0299  120A  118A  23EE   	fcall	_ar_i2c_read
              120A  118A         
  4795  029E  0870               	movf	(0+?_ar_i2c_read),w
  4796  029F  1283               	bcf	status, 5	;RP0=0, select bank0
  4797  02A0  1303               	bcf	status, 6	;RP1=0, select bank0
  4798  02A1  00AC               	movwf	(??_setAR1000+1)+0
  4799  02A2  0871               	movf	(1+?_ar_i2c_read),w
  4800  02A3  00AD               	movwf	((??_setAR1000+1)+0+1)
  4801  02A4  3007               	movlw	07h
  4802  02A5                     u1745:
  4803  02A5  1003               	clrc
  4804  02A6  0CAD               	rrf	(??_setAR1000+1)+1,f
  4805  02A7  0CAC               	rrf	(??_setAR1000+1)+0,f
  4806  02A8  3EFF               	addlw	-1
  4807  02A9  1D03               	skipz
  4808  02AA  2AA5               	goto	u1745
  4809  02AB  30FF               	movlw	low(01FFh)
  4810  02AC  052C               	andwf	0+(??_setAR1000+1)+0,w
  4811  02AD  00DD               	movwf	(_currentChannel)
  4812  02AE  3001               	movlw	high(01FFh)
  4813  02AF  052D               	andwf	1+(??_setAR1000+1)+0,w
  4814  02B0  00DE               	movwf	1+(_currentChannel)
  4815  02B1  01DF               	clrf	2+(_currentChannel)
  4816  02B2  01E0               	clrf	3+(_currentChannel)
  4817                           	line	455
  4818                           	
  4819  02B3                     l1906:	
  4820                           ;PR31_final.c: 455: currentChannel += 690;
  4821  02B3  30B2               	movlw	0B2h
  4822  02B4  07DD               	addwf	(_currentChannel),f
  4823  02B5  3002               	movlw	02h
  4824  02B6  1803               	skipnc
  4825  02B7  3003               movlw 3
  4826  02B8  07DE               	addwf	(_currentChannel+1),f
  4827  02B9  3000               	movlw	0
  4828  02BA  1803               	skipnc
  4829  02BB  3001               movlw 1
  4830  02BC  07DF               	addwf	(_currentChannel+2),f
  4831  02BD  3000               	movlw	0
  4832  02BE  1803               	skipnc
  4833  02BF  3001               movlw 1
  4834  02C0  07E0               	addwf	(_currentChannel+3),f
  4835                           	line	456
  4836                           	
  4837  02C1                     l364:	
  4838  02C1  0008               	return
  4839                           	opt stack 0
  4840                           GLOBAL	__end_of_setAR1000
  4841  02C2                     	__end_of_setAR1000:
  4842                           	signat	_setAR1000,4216
  4843                           	global	_ar_i2c_read
  4844                           
  4845 ;; *************** function _ar_i2c_read *****************
  4846 ;; Defined at:
  4847 ;;		line 83 in file "i2c_ar1000.c"
  4848 ;; Parameters:    Size  Location     Type
  4849 ;;  ar_slave_add    1    wreg     unsigned char 
  4850 ;;  ar_register     1    0[COMMON] unsigned char 
  4851 ;; Auto vars:     Size  Location     Type
  4852 ;;  ar_slave_add    1    4[BANK0 ] unsigned char 
  4853 ;;  count           4    5[BANK0 ] unsigned long 
  4854 ;;  ar_received_    2    0[BANK0 ] unsigned int 
  4855 ;;  ar_received_    1    3[BANK0 ] unsigned char 
  4856 ;;  ar_received_    1    2[BANK0 ] unsigned char 
  4857 ;; Return value:  Size  Location     Type
  4858 ;;                  2    0[COMMON] unsigned int 
  4859 ;; Registers used:
  4860 ;;		wreg, status,2, status,0, btemp+1
  4861 ;; Tracked objects:
  4862 ;;		On entry : 0/0
  4863 ;;		On exit  : 0/0
  4864 ;;		Unchanged: 0/0
  4865 ;; Data sizes:     COMMON   BANK0   BANK1   BANK3   BANK2
  4866 ;;      Params:         2       0       0       0       0
  4867 ;;      Locals:         0       9       0       0       0
  4868 ;;      Temps:          4       0       0       0       0
  4869 ;;      Totals:         6       9       0       0       0
  4870 ;;Total ram usage:       15 bytes
  4871 ;; Hardware stack levels used:    1
  4872 ;; This function calls:
  4873 ;;		Nothing
  4874 ;; This function is called by:
  4875 ;;		_ar1000_init
  4876 ;;		_setAR1000
  4877 ;; This function uses a non-reentrant model
  4878 ;;
  4879                           psect	text587,local,class=CODE,delta=2,merge=1
  4880                           global __ptext587
  4881  03EE                     __ptext587:
  4882                           psect	text587
  4883                           	file	"i2c_ar1000.c"
  4884                           	line	83
  4885                           	global	__size_of_ar_i2c_read
  4886  0130                     	__size_of_ar_i2c_read	equ	__end_of_ar_i2c_read-_ar_i2c_read
  4887                           	
  4888  03EE                     _ar_i2c_read:	
  4889                           	opt	stack 4
  4890                           ; Regs used in _ar_i2c_read: [wreg+status,2+status,0+btemp+1]
  4891                           ;ar_i2c_read@ar_slave_address stored from wreg
  4892                           	line	85
  4893  03EE  1283               	bcf	status, 5	;RP0=0, select bank0
  4894  03EF  1303               	bcf	status, 6	;RP1=0, select bank0
  4895  03F0  00A4               	movwf	(ar_i2c_read@ar_slave_address)
  4896                           	
  4897  03F1                     l1636:	
  4898                           ;i2c_ar1000.c: 85: unsigned char ar_received_byte1=0, ar_received_byte2=0;
  4899  03F1  01A2               	clrf	(ar_i2c_read@ar_received_byte1)
  4900  03F2  01A3               	clrf	(ar_i2c_read@ar_received_byte2)
  4901                           	line	86
  4902                           	
  4903  03F3                     l1638:	
  4904                           ;i2c_ar1000.c: 86: unsigned int ar_received_byte=0;
  4905  03F3  01A0               	clrf	(ar_i2c_read@ar_received_byte)
  4906  03F4  01A1               	clrf	(ar_i2c_read@ar_received_byte+1)
  4907                           	line	90
  4908                           	
  4909  03F5                     l1640:	
  4910                           ;i2c_ar1000.c: 90: SEN = 1;
  4911  03F5  1683               	bsf	status, 5	;RP0=1, select bank1
  4912  03F6  1303               	bcf	status, 6	;RP1=0, select bank1
  4913  03F7  1411               	bsf	(1160/8)^080h,(1160)&7	;volatile
  4914                           	line	91
  4915                           ;i2c_ar1000.c: 91: while (SEN == 1);
  4916  03F8  2BF9               	goto	l46
  4917                           	
  4918  03F9                     l47:	
  4919                           	
  4920  03F9                     l46:	
  4921  03F9  1811               	btfsc	(1160/8)^080h,(1160)&7	;volatile
  4922  03FA  2BFC               	goto	u1101
  4923  03FB  2BFD               	goto	u1100
  4924  03FC                     u1101:
  4925  03FC  2BF9               	goto	l46
  4926  03FD                     u1100:
  4927  03FD  2BFE               	goto	l1642
  4928                           	
  4929  03FE                     l48:	
  4930                           	line	94
  4931                           	
  4932  03FE                     l1642:	
  4933                           ;i2c_ar1000.c: 94: SSPBUF = ar_slave_address | 0x00;
  4934  03FE  1283               	bcf	status, 5	;RP0=0, select bank0
  4935  03FF  1303               	bcf	status, 6	;RP1=0, select bank0
  4936  0400  0824               	movf	(ar_i2c_read@ar_slave_address),w
  4937  0401  0093               	movwf	(19)	;volatile
  4938                           	line	97
  4939                           ;i2c_ar1000.c: 97: while (R_W == 1);
  4940  0402  2C03               	goto	l49
  4941                           	
  4942  0403                     l50:	
  4943                           	
  4944  0403                     l49:	
  4945  0403  1683               	bsf	status, 5	;RP0=1, select bank1
  4946  0404  1303               	bcf	status, 6	;RP1=0, select bank1
  4947  0405  1914               	btfsc	(1186/8)^080h,(1186)&7	;volatile
  4948  0406  2C08               	goto	u1111
  4949  0407  2C09               	goto	u1110
  4950  0408                     u1111:
  4951  0408  2C03               	goto	l49
  4952  0409                     u1110:
  4953                           	
  4954  0409                     l51:	
  4955                           	line	100
  4956                           ;i2c_ar1000.c: 100: if (ACKSTAT == 1) {
  4957  0409  1F11               	btfss	(1166/8)^080h,(1166)&7	;volatile
  4958  040A  2C0C               	goto	u1121
  4959  040B  2C0D               	goto	u1120
  4960  040C                     u1121:
  4961  040C  2C18               	goto	l1650
  4962  040D                     u1120:
  4963                           	line	102
  4964                           	
  4965  040D                     l1644:	
  4966                           ;i2c_ar1000.c: 102: PEN = 1;
  4967  040D  1511               	bsf	(1162/8)^080h,(1162)&7	;volatile
  4968                           	line	103
  4969                           ;i2c_ar1000.c: 103: while (PEN == 1);
  4970  040E  2C0F               	goto	l53
  4971                           	
  4972  040F                     l54:	
  4973                           	
  4974  040F                     l53:	
  4975  040F  1911               	btfsc	(1162/8)^080h,(1162)&7	;volatile
  4976  0410  2C12               	goto	u1131
  4977  0411  2C13               	goto	u1130
  4978  0412                     u1131:
  4979  0412  2C0F               	goto	l53
  4980  0413                     u1130:
  4981  0413  2C14               	goto	l1646
  4982                           	
  4983  0414                     l55:	
  4984                           	line	105
  4985                           	
  4986  0414                     l1646:	
  4987                           ;i2c_ar1000.c: 105: return 0;
  4988  0414  01F0               	clrf	(?_ar_i2c_read)
  4989  0415  01F1               	clrf	(?_ar_i2c_read+1)
  4990  0416  2D1D               	goto	l56
  4991                           	
  4992  0417                     l1648:	
  4993  0417  2D1D               	goto	l56
  4994                           	line	106
  4995                           	
  4996  0418                     l52:	
  4997                           	line	109
  4998                           	
  4999  0418                     l1650:	
  5000                           ;i2c_ar1000.c: 106: }
  5001                           ;i2c_ar1000.c: 109: SSPBUF = ar_register;
  5002  0418  0870               	movf	(ar_i2c_read@ar_register),w
  5003  0419  1283               	bcf	status, 5	;RP0=0, select bank0
  5004  041A  1303               	bcf	status, 6	;RP1=0, select bank0
  5005  041B  0093               	movwf	(19)	;volatile
  5006                           	line	112
  5007                           ;i2c_ar1000.c: 112: while (R_W == 1);
  5008  041C  2C1D               	goto	l57
  5009                           	
  5010  041D                     l58:	
  5011                           	
  5012  041D                     l57:	
  5013  041D  1683               	bsf	status, 5	;RP0=1, select bank1
  5014  041E  1303               	bcf	status, 6	;RP1=0, select bank1
  5015  041F  1914               	btfsc	(1186/8)^080h,(1186)&7	;volatile
  5016  0420  2C22               	goto	u1141
  5017  0421  2C23               	goto	u1140
  5018  0422                     u1141:
  5019  0422  2C1D               	goto	l57
  5020  0423                     u1140:
  5021                           	
  5022  0423                     l59:	
  5023                           	line	115
  5024                           ;i2c_ar1000.c: 115: if (ACKSTAT == 1) {
  5025  0423  1F11               	btfss	(1166/8)^080h,(1166)&7	;volatile
  5026  0424  2C26               	goto	u1151
  5027  0425  2C27               	goto	u1150
  5028  0426                     u1151:
  5029  0426  2C32               	goto	l60
  5030  0427                     u1150:
  5031                           	line	117
  5032                           	
  5033  0427                     l1652:	
  5034                           ;i2c_ar1000.c: 117: PEN = 1;
  5035  0427  1511               	bsf	(1162/8)^080h,(1162)&7	;volatile
  5036                           	line	118
  5037                           ;i2c_ar1000.c: 118: while (PEN == 1);
  5038  0428  2C29               	goto	l61
  5039                           	
  5040  0429                     l62:	
  5041                           	
  5042  0429                     l61:	
  5043  0429  1911               	btfsc	(1162/8)^080h,(1162)&7	;volatile
  5044  042A  2C2C               	goto	u1161
  5045  042B  2C2D               	goto	u1160
  5046  042C                     u1161:
  5047  042C  2C29               	goto	l61
  5048  042D                     u1160:
  5049  042D  2C2E               	goto	l1654
  5050                           	
  5051  042E                     l63:	
  5052                           	line	120
  5053                           	
  5054  042E                     l1654:	
  5055                           ;i2c_ar1000.c: 120: return 0;
  5056  042E  01F0               	clrf	(?_ar_i2c_read)
  5057  042F  01F1               	clrf	(?_ar_i2c_read+1)
  5058  0430  2D1D               	goto	l56
  5059                           	
  5060  0431                     l1656:	
  5061  0431  2D1D               	goto	l56
  5062                           	line	121
  5063                           	
  5064  0432                     l60:	
  5065                           	line	126
  5066                           ;i2c_ar1000.c: 121: }
  5067                           ;i2c_ar1000.c: 126: RSEN = 1;
  5068  0432  1491               	bsf	(1161/8)^080h,(1161)&7	;volatile
  5069                           	line	127
  5070                           ;i2c_ar1000.c: 127: while (RSEN == 1);
  5071  0433  2C34               	goto	l64
  5072                           	
  5073  0434                     l65:	
  5074                           	
  5075  0434                     l64:	
  5076  0434  1891               	btfsc	(1161/8)^080h,(1161)&7	;volatile
  5077  0435  2C37               	goto	u1171
  5078  0436  2C38               	goto	u1170
  5079  0437                     u1171:
  5080  0437  2C34               	goto	l64
  5081  0438                     u1170:
  5082  0438  2C39               	goto	l1658
  5083                           	
  5084  0439                     l66:	
  5085                           	line	130
  5086                           	
  5087  0439                     l1658:	
  5088                           ;i2c_ar1000.c: 130: SSPBUF = ar_slave_address | 0x01;
  5089  0439  1283               	bcf	status, 5	;RP0=0, select bank0
  5090  043A  1303               	bcf	status, 6	;RP1=0, select bank0
  5091  043B  0824               	movf	(ar_i2c_read@ar_slave_address),w
  5092  043C  3801               	iorlw	01h
  5093  043D  0093               	movwf	(19)	;volatile
  5094                           	line	133
  5095                           ;i2c_ar1000.c: 133: while (R_W == 1);
  5096  043E  2C3F               	goto	l67
  5097                           	
  5098  043F                     l68:	
  5099                           	
  5100  043F                     l67:	
  5101  043F  1683               	bsf	status, 5	;RP0=1, select bank1
  5102  0440  1303               	bcf	status, 6	;RP1=0, select bank1
  5103  0441  1914               	btfsc	(1186/8)^080h,(1186)&7	;volatile
  5104  0442  2C44               	goto	u1181
  5105  0443  2C45               	goto	u1180
  5106  0444                     u1181:
  5107  0444  2C3F               	goto	l67
  5108  0445                     u1180:
  5109                           	
  5110  0445                     l69:	
  5111                           	line	136
  5112                           ;i2c_ar1000.c: 136: if (ACKSTAT == 1) {
  5113  0445  1F11               	btfss	(1166/8)^080h,(1166)&7	;volatile
  5114  0446  2C48               	goto	u1191
  5115  0447  2C49               	goto	u1190
  5116  0448                     u1191:
  5117  0448  2C54               	goto	l70
  5118  0449                     u1190:
  5119                           	line	138
  5120                           	
  5121  0449                     l1660:	
  5122                           ;i2c_ar1000.c: 138: PEN = 1;
  5123  0449  1511               	bsf	(1162/8)^080h,(1162)&7	;volatile
  5124                           	line	139
  5125                           ;i2c_ar1000.c: 139: while (PEN == 1);
  5126  044A  2C4B               	goto	l71
  5127                           	
  5128  044B                     l72:	
  5129                           	
  5130  044B                     l71:	
  5131  044B  1911               	btfsc	(1162/8)^080h,(1162)&7	;volatile
  5132  044C  2C4E               	goto	u1201
  5133  044D  2C4F               	goto	u1200
  5134  044E                     u1201:
  5135  044E  2C4B               	goto	l71
  5136  044F                     u1200:
  5137  044F  2C50               	goto	l1662
  5138                           	
  5139  0450                     l73:	
  5140                           	line	141
  5141                           	
  5142  0450                     l1662:	
  5143                           ;i2c_ar1000.c: 141: return 0;
  5144  0450  01F0               	clrf	(?_ar_i2c_read)
  5145  0451  01F1               	clrf	(?_ar_i2c_read+1)
  5146  0452  2D1D               	goto	l56
  5147                           	
  5148  0453                     l1664:	
  5149  0453  2D1D               	goto	l56
  5150                           	line	142
  5151                           	
  5152  0454                     l70:	
  5153                           	line	145
  5154                           ;i2c_ar1000.c: 142: }
  5155                           ;i2c_ar1000.c: 145: RCEN = 1;
  5156  0454  1591               	bsf	(1163/8)^080h,(1163)&7	;volatile
  5157                           	line	148
  5158                           	
  5159  0455                     l1666:	
  5160                           ;i2c_ar1000.c: 148: unsigned long count = 10000L;
  5161  0455  3000               	movlw	0
  5162  0456  1283               	bcf	status, 5	;RP0=0, select bank0
  5163  0457  1303               	bcf	status, 6	;RP1=0, select bank0
  5164  0458  00A8               	movwf	(ar_i2c_read@count+3)
  5165  0459  3000               	movlw	0
  5166  045A  00A7               	movwf	(ar_i2c_read@count+2)
  5167  045B  3027               	movlw	027h
  5168  045C  00A6               	movwf	(ar_i2c_read@count+1)
  5169  045D  3010               	movlw	010h
  5170  045E  00A5               	movwf	(ar_i2c_read@count)
  5171                           
  5172                           	line	149
  5173                           ;i2c_ar1000.c: 149: while (BF == 0) {
  5174  045F  2C92               	goto	l74
  5175                           	
  5176  0460                     l75:	
  5177                           	line	152
  5178                           	
  5179  0460                     l1668:	
  5180                           ;i2c_ar1000.c: 152: if (--count == 0) {
  5181  0460  3001               	movlw	01h
  5182  0461  00F2               	movwf	((??_ar_i2c_read+0)+0)
  5183  0462  3000               	movlw	0
  5184  0463  00F3               	movwf	((??_ar_i2c_read+0)+0+1)
  5185  0464  3000               	movlw	0
  5186  0465  00F4               	movwf	((??_ar_i2c_read+0)+0+2)
  5187  0466  3000               	movlw	0
  5188  0467  00F5               	movwf	((??_ar_i2c_read+0)+0+3)
  5189  0468  0872               	movf	0+(??_ar_i2c_read+0)+0,w
  5190  0469  1283               	bcf	status, 5	;RP0=0, select bank0
  5191  046A  02A5               	subwf	(ar_i2c_read@count),f
  5192  046B  0873               	movf	1+(??_ar_i2c_read+0)+0,w
  5193  046C  1C03               	skipc
  5194  046D  0F73               	incfsz	1+(??_ar_i2c_read+0)+0,w
  5195  046E  2C70               	goto	u1215
  5196  046F  2C71               	goto	u1216
  5197  0470                     u1215:
  5198  0470  02A6               	subwf	(ar_i2c_read@count+1),f
  5199  0471                     u1216:
  5200  0471  0874               	movf	2+(??_ar_i2c_read+0)+0,w
  5201  0472  1C03               	skipc
  5202  0473  0F74               	incfsz	2+(??_ar_i2c_read+0)+0,w
  5203  0474  2C76               	goto	u1217
  5204  0475  2C77               	goto	u1218
  5205  0476                     u1217:
  5206  0476  02A7               	subwf	(ar_i2c_read@count+2),f
  5207  0477                     u1218:
  5208  0477  0875               	movf	3+(??_ar_i2c_read+0)+0,w
  5209  0478  1C03               	skipc
  5210  0479  0F75               	incfsz	3+(??_ar_i2c_read+0)+0,w
  5211  047A  2C7C               	goto	u1219
  5212  047B  2C7D               	goto	u1210
  5213  047C                     u1219:
  5214  047C  02A8               	subwf	(ar_i2c_read@count+3),f
  5215  047D                     u1210:
  5216                           
  5217  047D  0828               	movf	((ar_i2c_read@count+3)),w
  5218  047E  0427               	iorwf	((ar_i2c_read@count+2)),w
  5219  047F  0426               	iorwf	((ar_i2c_read@count+1)),w
  5220  0480  0425               	iorwf	((ar_i2c_read@count)),w
  5221  0481  1D03               	skipz
  5222  0482  2C84               	goto	u1221
  5223  0483  2C85               	goto	u1220
  5224  0484                     u1221:
  5225  0484  2C92               	goto	l74
  5226  0485                     u1220:
  5227                           	line	154
  5228                           	
  5229  0485                     l1670:	
  5230                           ;i2c_ar1000.c: 154: PEN = 1;
  5231  0485  1683               	bsf	status, 5	;RP0=1, select bank1
  5232  0486  1303               	bcf	status, 6	;RP1=0, select bank1
  5233  0487  1511               	bsf	(1162/8)^080h,(1162)&7	;volatile
  5234                           	line	155
  5235                           ;i2c_ar1000.c: 155: while (PEN == 1);
  5236  0488  2C89               	goto	l77
  5237                           	
  5238  0489                     l78:	
  5239                           	
  5240  0489                     l77:	
  5241  0489  1911               	btfsc	(1162/8)^080h,(1162)&7	;volatile
  5242  048A  2C8C               	goto	u1231
  5243  048B  2C8D               	goto	u1230
  5244  048C                     u1231:
  5245  048C  2C89               	goto	l77
  5246  048D                     u1230:
  5247  048D  2C8E               	goto	l1672
  5248                           	
  5249  048E                     l79:	
  5250                           	line	157
  5251                           	
  5252  048E                     l1672:	
  5253                           ;i2c_ar1000.c: 157: return 0;
  5254  048E  01F0               	clrf	(?_ar_i2c_read)
  5255  048F  01F1               	clrf	(?_ar_i2c_read+1)
  5256  0490  2D1D               	goto	l56
  5257                           	
  5258  0491                     l1674:	
  5259  0491  2D1D               	goto	l56
  5260                           	line	158
  5261                           	
  5262  0492                     l76:	
  5263                           	line	159
  5264                           	
  5265  0492                     l74:	
  5266                           	line	149
  5267  0492  1683               	bsf	status, 5	;RP0=1, select bank1
  5268  0493  1303               	bcf	status, 6	;RP1=0, select bank1
  5269  0494  1C14               	btfss	(1184/8)^080h,(1184)&7	;volatile
  5270  0495  2C97               	goto	u1241
  5271  0496  2C98               	goto	u1240
  5272  0497                     u1241:
  5273  0497  2C60               	goto	l1668
  5274  0498                     u1240:
  5275  0498  2C99               	goto	l1676
  5276                           	
  5277  0499                     l80:	
  5278                           	line	162
  5279                           	
  5280  0499                     l1676:	
  5281                           ;i2c_ar1000.c: 158: }
  5282                           ;i2c_ar1000.c: 159: }
  5283                           ;i2c_ar1000.c: 162: ar_received_byte1 = SSPBUF;
  5284  0499  1283               	bcf	status, 5	;RP0=0, select bank0
  5285  049A  1303               	bcf	status, 6	;RP1=0, select bank0
  5286  049B  0813               	movf	(19),w	;volatile
  5287  049C  00F2               	movwf	(??_ar_i2c_read+0)+0
  5288  049D  0872               	movf	(??_ar_i2c_read+0)+0,w
  5289  049E  00A2               	movwf	(ar_i2c_read@ar_received_byte1)
  5290                           	line	165
  5291                           	
  5292  049F                     l1678:	
  5293                           ;i2c_ar1000.c: 165: ACKDT = 0;
  5294  049F  1683               	bsf	status, 5	;RP0=1, select bank1
  5295  04A0  1303               	bcf	status, 6	;RP1=0, select bank1
  5296  04A1  1291               	bcf	(1165/8)^080h,(1165)&7	;volatile
  5297                           	line	166
  5298                           	
  5299  04A2                     l1680:	
  5300                           ;i2c_ar1000.c: 166: ACKEN = 1;
  5301  04A2  1611               	bsf	(1164/8)^080h,(1164)&7	;volatile
  5302                           	line	167
  5303                           ;i2c_ar1000.c: 167: while (ACKEN == 1);
  5304  04A3  2CA4               	goto	l81
  5305                           	
  5306  04A4                     l82:	
  5307                           	
  5308  04A4                     l81:	
  5309  04A4  1A11               	btfsc	(1164/8)^080h,(1164)&7	;volatile
  5310  04A5  2CA7               	goto	u1251
  5311  04A6  2CA8               	goto	u1250
  5312  04A7                     u1251:
  5313  04A7  2CA4               	goto	l81
  5314  04A8                     u1250:
  5315                           	
  5316  04A8                     l83:	
  5317                           	line	168
  5318                           ;i2c_ar1000.c: 168: RCEN = 1;
  5319  04A8  1591               	bsf	(1163/8)^080h,(1163)&7	;volatile
  5320                           	line	170
  5321                           	
  5322  04A9                     l1682:	
  5323                           ;i2c_ar1000.c: 170: unsigned long count = 10000L;
  5324  04A9  3000               	movlw	0
  5325  04AA  1283               	bcf	status, 5	;RP0=0, select bank0
  5326  04AB  1303               	bcf	status, 6	;RP1=0, select bank0
  5327  04AC  00A8               	movwf	(ar_i2c_read@count+3)
  5328  04AD  3000               	movlw	0
  5329  04AE  00A7               	movwf	(ar_i2c_read@count+2)
  5330  04AF  3027               	movlw	027h
  5331  04B0  00A6               	movwf	(ar_i2c_read@count+1)
  5332  04B1  3010               	movlw	010h
  5333  04B2  00A5               	movwf	(ar_i2c_read@count)
  5334                           
  5335                           	line	171
  5336                           ;i2c_ar1000.c: 171: while (BF == 0) {
  5337  04B3  2CE6               	goto	l84
  5338                           	
  5339  04B4                     l85:	
  5340                           	line	174
  5341                           	
  5342  04B4                     l1684:	
  5343                           ;i2c_ar1000.c: 174: if (--count == 0) {
  5344  04B4  3001               	movlw	01h
  5345  04B5  00F2               	movwf	((??_ar_i2c_read+0)+0)
  5346  04B6  3000               	movlw	0
  5347  04B7  00F3               	movwf	((??_ar_i2c_read+0)+0+1)
  5348  04B8  3000               	movlw	0
  5349  04B9  00F4               	movwf	((??_ar_i2c_read+0)+0+2)
  5350  04BA  3000               	movlw	0
  5351  04BB  00F5               	movwf	((??_ar_i2c_read+0)+0+3)
  5352  04BC  0872               	movf	0+(??_ar_i2c_read+0)+0,w
  5353  04BD  1283               	bcf	status, 5	;RP0=0, select bank0
  5354  04BE  02A5               	subwf	(ar_i2c_read@count),f
  5355  04BF  0873               	movf	1+(??_ar_i2c_read+0)+0,w
  5356  04C0  1C03               	skipc
  5357  04C1  0F73               	incfsz	1+(??_ar_i2c_read+0)+0,w
  5358  04C2  2CC4               	goto	u1265
  5359  04C3  2CC5               	goto	u1266
  5360  04C4                     u1265:
  5361  04C4  02A6               	subwf	(ar_i2c_read@count+1),f
  5362  04C5                     u1266:
  5363  04C5  0874               	movf	2+(??_ar_i2c_read+0)+0,w
  5364  04C6  1C03               	skipc
  5365  04C7  0F74               	incfsz	2+(??_ar_i2c_read+0)+0,w
  5366  04C8  2CCA               	goto	u1267
  5367  04C9  2CCB               	goto	u1268
  5368  04CA                     u1267:
  5369  04CA  02A7               	subwf	(ar_i2c_read@count+2),f
  5370  04CB                     u1268:
  5371  04CB  0875               	movf	3+(??_ar_i2c_read+0)+0,w
  5372  04CC  1C03               	skipc
  5373  04CD  0F75               	incfsz	3+(??_ar_i2c_read+0)+0,w
  5374  04CE  2CD0               	goto	u1269
  5375  04CF  2CD1               	goto	u1260
  5376  04D0                     u1269:
  5377  04D0  02A8               	subwf	(ar_i2c_read@count+3),f
  5378  04D1                     u1260:
  5379                           
  5380  04D1  0828               	movf	((ar_i2c_read@count+3)),w
  5381  04D2  0427               	iorwf	((ar_i2c_read@count+2)),w
  5382  04D3  0426               	iorwf	((ar_i2c_read@count+1)),w
  5383  04D4  0425               	iorwf	((ar_i2c_read@count)),w
  5384  04D5  1D03               	skipz
  5385  04D6  2CD8               	goto	u1271
  5386  04D7  2CD9               	goto	u1270
  5387  04D8                     u1271:
  5388  04D8  2CE6               	goto	l84
  5389  04D9                     u1270:
  5390                           	line	176
  5391                           	
  5392  04D9                     l1686:	
  5393                           ;i2c_ar1000.c: 176: PEN = 1;
  5394  04D9  1683               	bsf	status, 5	;RP0=1, select bank1
  5395  04DA  1303               	bcf	status, 6	;RP1=0, select bank1
  5396  04DB  1511               	bsf	(1162/8)^080h,(1162)&7	;volatile
  5397                           	line	177
  5398                           ;i2c_ar1000.c: 177: while (PEN == 1);
  5399  04DC  2CDD               	goto	l87
  5400                           	
  5401  04DD                     l88:	
  5402                           	
  5403  04DD                     l87:	
  5404  04DD  1911               	btfsc	(1162/8)^080h,(1162)&7	;volatile
  5405  04DE  2CE0               	goto	u1281
  5406  04DF  2CE1               	goto	u1280
  5407  04E0                     u1281:
  5408  04E0  2CDD               	goto	l87
  5409  04E1                     u1280:
  5410  04E1  2CE2               	goto	l1688
  5411                           	
  5412  04E2                     l89:	
  5413                           	line	179
  5414                           	
  5415  04E2                     l1688:	
  5416                           ;i2c_ar1000.c: 179: return 0;
  5417  04E2  01F0               	clrf	(?_ar_i2c_read)
  5418  04E3  01F1               	clrf	(?_ar_i2c_read+1)
  5419  04E4  2D1D               	goto	l56
  5420                           	
  5421  04E5                     l1690:	
  5422  04E5  2D1D               	goto	l56
  5423                           	line	180
  5424                           	
  5425  04E6                     l86:	
  5426                           	line	181
  5427                           	
  5428  04E6                     l84:	
  5429                           	line	171
  5430  04E6  1683               	bsf	status, 5	;RP0=1, select bank1
  5431  04E7  1303               	bcf	status, 6	;RP1=0, select bank1
  5432  04E8  1C14               	btfss	(1184/8)^080h,(1184)&7	;volatile
  5433  04E9  2CEB               	goto	u1291
  5434  04EA  2CEC               	goto	u1290
  5435  04EB                     u1291:
  5436  04EB  2CB4               	goto	l1684
  5437  04EC                     u1290:
  5438  04EC  2CED               	goto	l1692
  5439                           	
  5440  04ED                     l90:	
  5441                           	line	184
  5442                           	
  5443  04ED                     l1692:	
  5444                           ;i2c_ar1000.c: 180: }
  5445                           ;i2c_ar1000.c: 181: }
  5446                           ;i2c_ar1000.c: 184: ar_received_byte2 = SSPBUF;
  5447  04ED  1283               	bcf	status, 5	;RP0=0, select bank0
  5448  04EE  1303               	bcf	status, 6	;RP1=0, select bank0
  5449  04EF  0813               	movf	(19),w	;volatile
  5450  04F0  00F2               	movwf	(??_ar_i2c_read+0)+0
  5451  04F1  0872               	movf	(??_ar_i2c_read+0)+0,w
  5452  04F2  00A3               	movwf	(ar_i2c_read@ar_received_byte2)
  5453                           	line	187
  5454                           	
  5455  04F3                     l1694:	
  5456                           ;i2c_ar1000.c: 187: ACKDT = 1;
  5457  04F3  1683               	bsf	status, 5	;RP0=1, select bank1
  5458  04F4  1303               	bcf	status, 6	;RP1=0, select bank1
  5459  04F5  1691               	bsf	(1165/8)^080h,(1165)&7	;volatile
  5460                           	line	188
  5461                           	
  5462  04F6                     l1696:	
  5463                           ;i2c_ar1000.c: 188: ACKEN = 1;
  5464  04F6  1611               	bsf	(1164/8)^080h,(1164)&7	;volatile
  5465                           	line	189
  5466                           ;i2c_ar1000.c: 189: while (ACKEN == 1);
  5467  04F7  2CF8               	goto	l91
  5468                           	
  5469  04F8                     l92:	
  5470                           	
  5471  04F8                     l91:	
  5472  04F8  1A11               	btfsc	(1164/8)^080h,(1164)&7	;volatile
  5473  04F9  2CFB               	goto	u1301
  5474  04FA  2CFC               	goto	u1300
  5475  04FB                     u1301:
  5476  04FB  2CF8               	goto	l91
  5477  04FC                     u1300:
  5478                           	
  5479  04FC                     l93:	
  5480                           	line	192
  5481                           ;i2c_ar1000.c: 192: PEN = 1;
  5482  04FC  1511               	bsf	(1162/8)^080h,(1162)&7	;volatile
  5483                           	line	193
  5484                           ;i2c_ar1000.c: 193: while (PEN == 1);
  5485  04FD  2CFE               	goto	l94
  5486                           	
  5487  04FE                     l95:	
  5488                           	
  5489  04FE                     l94:	
  5490  04FE  1911               	btfsc	(1162/8)^080h,(1162)&7	;volatile
  5491  04FF  2D01               	goto	u1311
  5492  0500  2D02               	goto	u1310
  5493  0501                     u1311:
  5494  0501  2CFE               	goto	l94
  5495  0502                     u1310:
  5496  0502  2D03               	goto	l1698
  5497                           	
  5498  0503                     l96:	
  5499                           	line	195
  5500                           	
  5501  0503                     l1698:	
  5502                           ;i2c_ar1000.c: 195: ar_received_byte = (ar_received_byte1 << 8);
  5503  0503  1283               	bcf	status, 5	;RP0=0, select bank0
  5504  0504  1303               	bcf	status, 6	;RP1=0, select bank0
  5505  0505  0822               	movf	(ar_i2c_read@ar_received_byte1),w
  5506  0506  00F2               	movwf	(??_ar_i2c_read+0)+0+0
  5507  0507  01F3               	clrf	(??_ar_i2c_read+0)+0+1
  5508  0508  0872               	movf	(??_ar_i2c_read+0)+0,w
  5509  0509  00F3               	movwf	(??_ar_i2c_read+0)+1
  5510  050A  01F2               	clrf	(??_ar_i2c_read+0)+0
  5511  050B  0872               	movf	0+(??_ar_i2c_read+0)+0,w
  5512  050C  00A0               	movwf	(ar_i2c_read@ar_received_byte)
  5513  050D  0873               	movf	1+(??_ar_i2c_read+0)+0,w
  5514  050E  00A1               	movwf	(ar_i2c_read@ar_received_byte+1)
  5515                           	line	196
  5516                           	
  5517  050F                     l1700:	
  5518                           ;i2c_ar1000.c: 196: ar_received_byte |= ar_received_byte2;
  5519  050F  0823               	movf	(ar_i2c_read@ar_received_byte2),w
  5520  0510  00F2               	movwf	(??_ar_i2c_read+0)+0+0
  5521  0511  01F3               	clrf	(??_ar_i2c_read+0)+0+1
  5522  0512  0872               	movf	0+(??_ar_i2c_read+0)+0,w
  5523  0513  04A0               	iorwf	(ar_i2c_read@ar_received_byte),f
  5524  0514  0873               	movf	1+(??_ar_i2c_read+0)+0,w
  5525  0515  04A1               	iorwf	(ar_i2c_read@ar_received_byte+1),f
  5526                           	line	199
  5527                           	
  5528  0516                     l1702:	
  5529                           ;i2c_ar1000.c: 199: return ar_received_byte;
  5530  0516  0821               	movf	(ar_i2c_read@ar_received_byte+1),w
  5531  0517  01F1               	clrf	(?_ar_i2c_read+1)
  5532  0518  07F1               	addwf	(?_ar_i2c_read+1)
  5533  0519  0820               	movf	(ar_i2c_read@ar_received_byte),w
  5534  051A  01F0               	clrf	(?_ar_i2c_read)
  5535  051B  07F0               	addwf	(?_ar_i2c_read)
  5536                           
  5537  051C  2D1D               	goto	l56
  5538                           	
  5539  051D                     l1704:	
  5540                           	line	201
  5541                           	
  5542  051D                     l56:	
  5543  051D  0008               	return
  5544                           	opt stack 0
  5545                           GLOBAL	__end_of_ar_i2c_read
  5546  051E                     	__end_of_ar_i2c_read:
  5547                           	signat	_ar_i2c_read,8314
  5548                           	global	_ar_i2c_write
  5549                           
  5550 ;; *************** function _ar_i2c_write *****************
  5551 ;; Defined at:
  5552 ;;		line 220 in file "i2c_ar1000.c"
  5553 ;; Parameters:    Size  Location     Type
  5554 ;;  ar_slave_add    1    wreg     unsigned char 
  5555 ;;  ar_register     1    0[COMMON] unsigned char 
  5556 ;;  ar_data         4    1[COMMON] unsigned long 
  5557 ;; Auto vars:     Size  Location     Type
  5558 ;;  ar_slave_add    1   10[COMMON] unsigned char 
  5559 ;;  ar_transmit_    1   12[COMMON] unsigned char 
  5560 ;;  ar_transmit_    1   11[COMMON] unsigned char 
  5561 ;; Return value:  Size  Location     Type
  5562 ;;		None               void
  5563 ;; Registers used:
  5564 ;;		wreg, status,2, status,0
  5565 ;; Tracked objects:
  5566 ;;		On entry : 0/0
  5567 ;;		On exit  : 0/0
  5568 ;;		Unchanged: 0/0
  5569 ;; Data sizes:     COMMON   BANK0   BANK1   BANK3   BANK2
  5570 ;;      Params:         5       0       0       0       0
  5571 ;;      Locals:         3       0       0       0       0
  5572 ;;      Temps:          5       0       0       0       0
  5573 ;;      Totals:        13       0       0       0       0
  5574 ;;Total ram usage:       13 bytes
  5575 ;; Hardware stack levels used:    1
  5576 ;; This function calls:
  5577 ;;		Nothing
  5578 ;; This function is called by:
  5579 ;;		_set_vol
  5580 ;;		_ar1000_init
  5581 ;;		_setAR1000
  5582 ;; This function uses a non-reentrant model
  5583 ;;
  5584                           psect	text588,local,class=CODE,delta=2,merge=1
  5585                           global __ptext588
  5586  0ED3                     __ptext588:
  5587                           psect	text588
  5588                           	file	"i2c_ar1000.c"
  5589                           	line	220
  5590                           	global	__size_of_ar_i2c_write
  5591  0087                     	__size_of_ar_i2c_write	equ	__end_of_ar_i2c_write-_ar_i2c_write
  5592                           	
  5593  0ED3                     _ar_i2c_write:	
  5594                           	opt	stack 5
  5595                           ; Regs used in _ar_i2c_write: [wreg+status,2+status,0]
  5596                           ;ar_i2c_write@ar_slave_address stored from wreg
  5597                           	line	224
  5598  0ED3  00FA               	movwf	(ar_i2c_write@ar_slave_address)
  5599                           	
  5600  0ED4                     l1706:	
  5601                           ;i2c_ar1000.c: 223: unsigned char ar_transmit_byte1, ar_transmit_byte2;
  5602                           ;i2c_ar1000.c: 224: ar_transmit_byte1 = (ar_data & 0xFF00) >> 8;
  5603  0ED4  0871               	movf	(ar_i2c_write@ar_data),w
  5604  0ED5  00F5               	movwf	(??_ar_i2c_write+0)+0
  5605  0ED6  0872               	movf	(ar_i2c_write@ar_data+1),w
  5606  0ED7  00F6               	movwf	((??_ar_i2c_write+0)+0+1)
  5607  0ED8  0873               	movf	(ar_i2c_write@ar_data+2),w
  5608  0ED9  00F7               	movwf	((??_ar_i2c_write+0)+0+2)
  5609  0EDA  0874               	movf	(ar_i2c_write@ar_data+3),w
  5610  0EDB  00F8               	movwf	((??_ar_i2c_write+0)+0+3)
  5611  0EDC  3008               	movlw	08h
  5612  0EDD                     u1325:
  5613  0EDD  1003               	clrc
  5614  0EDE  0CF8               	rrf	(??_ar_i2c_write+0)+3,f
  5615  0EDF  0CF7               	rrf	(??_ar_i2c_write+0)+2,f
  5616  0EE0  0CF6               	rrf	(??_ar_i2c_write+0)+1,f
  5617  0EE1  0CF5               	rrf	(??_ar_i2c_write+0)+0,f
  5618  0EE2                     u1320:
  5619  0EE2  3EFF               	addlw	-1
  5620  0EE3  1D03               	skipz
  5621  0EE4  2EDD               	goto	u1325
  5622  0EE5  0875               	movf	0+(??_ar_i2c_write+0)+0,w
  5623  0EE6  00F9               	movwf	(??_ar_i2c_write+4)+0
  5624  0EE7  0879               	movf	(??_ar_i2c_write+4)+0,w
  5625  0EE8  00FB               	movwf	(ar_i2c_write@ar_transmit_byte1)
  5626                           	line	225
  5627                           	
  5628  0EE9                     l1708:	
  5629                           ;i2c_ar1000.c: 225: ar_transmit_byte2 = (ar_data & 0x00FF);
  5630  0EE9  0871               	movf	(ar_i2c_write@ar_data),w
  5631  0EEA  00F5               	movwf	(??_ar_i2c_write+0)+0
  5632  0EEB  0875               	movf	(??_ar_i2c_write+0)+0,w
  5633  0EEC  00FC               	movwf	(ar_i2c_write@ar_transmit_byte2)
  5634                           	line	228
  5635                           	
  5636  0EED                     l1710:	
  5637                           ;i2c_ar1000.c: 228: SEN = 1;
  5638  0EED  1683               	bsf	status, 5	;RP0=1, select bank1
  5639  0EEE  1303               	bcf	status, 6	;RP1=0, select bank1
  5640  0EEF  1411               	bsf	(1160/8)^080h,(1160)&7	;volatile
  5641                           	line	229
  5642                           ;i2c_ar1000.c: 229: while (SEN == 1);
  5643  0EF0  2EF1               	goto	l99
  5644                           	
  5645  0EF1                     l100:	
  5646                           	
  5647  0EF1                     l99:	
  5648  0EF1  1811               	btfsc	(1160/8)^080h,(1160)&7	;volatile
  5649  0EF2  2EF4               	goto	u1331
  5650  0EF3  2EF5               	goto	u1330
  5651  0EF4                     u1331:
  5652  0EF4  2EF1               	goto	l99
  5653  0EF5                     u1330:
  5654  0EF5  2EF6               	goto	l1712
  5655                           	
  5656  0EF6                     l101:	
  5657                           	line	232
  5658                           	
  5659  0EF6                     l1712:	
  5660                           ;i2c_ar1000.c: 232: SSPBUF = ar_slave_address | 0x00;
  5661  0EF6  087A               	movf	(ar_i2c_write@ar_slave_address),w
  5662  0EF7  1283               	bcf	status, 5	;RP0=0, select bank0
  5663  0EF8  1303               	bcf	status, 6	;RP1=0, select bank0
  5664  0EF9  0093               	movwf	(19)	;volatile
  5665                           	line	235
  5666                           ;i2c_ar1000.c: 235: while (R_W == 1);
  5667  0EFA  2EFB               	goto	l102
  5668                           	
  5669  0EFB                     l103:	
  5670                           	
  5671  0EFB                     l102:	
  5672  0EFB  1683               	bsf	status, 5	;RP0=1, select bank1
  5673  0EFC  1303               	bcf	status, 6	;RP1=0, select bank1
  5674  0EFD  1914               	btfsc	(1186/8)^080h,(1186)&7	;volatile
  5675  0EFE  2F00               	goto	u1341
  5676  0EFF  2F01               	goto	u1340
  5677  0F00                     u1341:
  5678  0F00  2EFB               	goto	l102
  5679  0F01                     u1340:
  5680                           	
  5681  0F01                     l104:	
  5682                           	line	238
  5683                           ;i2c_ar1000.c: 238: if (ACKSTAT == 1) {
  5684  0F01  1F11               	btfss	(1166/8)^080h,(1166)&7	;volatile
  5685  0F02  2F04               	goto	u1351
  5686  0F03  2F05               	goto	u1350
  5687  0F04                     u1351:
  5688  0F04  2F0D               	goto	l1716
  5689  0F05                     u1350:
  5690                           	line	240
  5691                           	
  5692  0F05                     l1714:	
  5693                           ;i2c_ar1000.c: 240: PEN = 1;
  5694  0F05  1511               	bsf	(1162/8)^080h,(1162)&7	;volatile
  5695                           	line	241
  5696                           ;i2c_ar1000.c: 241: while (PEN == 1);
  5697  0F06  2F07               	goto	l106
  5698                           	
  5699  0F07                     l107:	
  5700                           	
  5701  0F07                     l106:	
  5702  0F07  1911               	btfsc	(1162/8)^080h,(1162)&7	;volatile
  5703  0F08  2F0A               	goto	u1361
  5704  0F09  2F0B               	goto	u1360
  5705  0F0A                     u1361:
  5706  0F0A  2F07               	goto	l106
  5707  0F0B                     u1360:
  5708  0F0B  2F59               	goto	l109
  5709                           	
  5710  0F0C                     l108:	
  5711                           	line	243
  5712                           ;i2c_ar1000.c: 243: return;
  5713  0F0C  2F59               	goto	l109
  5714                           	line	244
  5715                           	
  5716  0F0D                     l105:	
  5717                           	line	247
  5718                           	
  5719  0F0D                     l1716:	
  5720                           ;i2c_ar1000.c: 244: }
  5721                           ;i2c_ar1000.c: 247: SSPBUF = ar_register;
  5722  0F0D  0870               	movf	(ar_i2c_write@ar_register),w
  5723  0F0E  1283               	bcf	status, 5	;RP0=0, select bank0
  5724  0F0F  1303               	bcf	status, 6	;RP1=0, select bank0
  5725  0F10  0093               	movwf	(19)	;volatile
  5726                           	line	250
  5727                           ;i2c_ar1000.c: 250: while (R_W == 1);
  5728  0F11  2F12               	goto	l110
  5729                           	
  5730  0F12                     l111:	
  5731                           	
  5732  0F12                     l110:	
  5733  0F12  1683               	bsf	status, 5	;RP0=1, select bank1
  5734  0F13  1303               	bcf	status, 6	;RP1=0, select bank1
  5735  0F14  1914               	btfsc	(1186/8)^080h,(1186)&7	;volatile
  5736  0F15  2F17               	goto	u1371
  5737  0F16  2F18               	goto	u1370
  5738  0F17                     u1371:
  5739  0F17  2F12               	goto	l110
  5740  0F18                     u1370:
  5741                           	
  5742  0F18                     l112:	
  5743                           	line	253
  5744                           ;i2c_ar1000.c: 253: if (ACKSTAT == 1) {
  5745  0F18  1F11               	btfss	(1166/8)^080h,(1166)&7	;volatile
  5746  0F19  2F1B               	goto	u1381
  5747  0F1A  2F1C               	goto	u1380
  5748  0F1B                     u1381:
  5749  0F1B  2F24               	goto	l1720
  5750  0F1C                     u1380:
  5751                           	line	255
  5752                           	
  5753  0F1C                     l1718:	
  5754                           ;i2c_ar1000.c: 255: PEN = 1;
  5755  0F1C  1511               	bsf	(1162/8)^080h,(1162)&7	;volatile
  5756                           	line	256
  5757                           ;i2c_ar1000.c: 256: while (PEN == 1);
  5758  0F1D  2F1E               	goto	l114
  5759                           	
  5760  0F1E                     l115:	
  5761                           	
  5762  0F1E                     l114:	
  5763  0F1E  1911               	btfsc	(1162/8)^080h,(1162)&7	;volatile
  5764  0F1F  2F21               	goto	u1391
  5765  0F20  2F22               	goto	u1390
  5766  0F21                     u1391:
  5767  0F21  2F1E               	goto	l114
  5768  0F22                     u1390:
  5769  0F22  2F59               	goto	l109
  5770                           	
  5771  0F23                     l116:	
  5772                           	line	258
  5773                           ;i2c_ar1000.c: 258: return;
  5774  0F23  2F59               	goto	l109
  5775                           	line	259
  5776                           	
  5777  0F24                     l113:	
  5778                           	line	263
  5779                           	
  5780  0F24                     l1720:	
  5781                           ;i2c_ar1000.c: 259: }
  5782                           ;i2c_ar1000.c: 263: SSPBUF = ar_transmit_byte1;
  5783  0F24  087B               	movf	(ar_i2c_write@ar_transmit_byte1),w
  5784  0F25  1283               	bcf	status, 5	;RP0=0, select bank0
  5785  0F26  1303               	bcf	status, 6	;RP1=0, select bank0
  5786  0F27  0093               	movwf	(19)	;volatile
  5787                           	line	266
  5788                           ;i2c_ar1000.c: 266: while (R_W == 1);
  5789  0F28  2F29               	goto	l117
  5790                           	
  5791  0F29                     l118:	
  5792                           	
  5793  0F29                     l117:	
  5794  0F29  1683               	bsf	status, 5	;RP0=1, select bank1
  5795  0F2A  1303               	bcf	status, 6	;RP1=0, select bank1
  5796  0F2B  1914               	btfsc	(1186/8)^080h,(1186)&7	;volatile
  5797  0F2C  2F2E               	goto	u1401
  5798  0F2D  2F2F               	goto	u1400
  5799  0F2E                     u1401:
  5800  0F2E  2F29               	goto	l117
  5801  0F2F                     u1400:
  5802                           	
  5803  0F2F                     l119:	
  5804                           	line	269
  5805                           ;i2c_ar1000.c: 269: if (ACKSTAT == 1) {
  5806  0F2F  1F11               	btfss	(1166/8)^080h,(1166)&7	;volatile
  5807  0F30  2F32               	goto	u1411
  5808  0F31  2F33               	goto	u1410
  5809  0F32                     u1411:
  5810  0F32  2F3B               	goto	l1724
  5811  0F33                     u1410:
  5812                           	line	271
  5813                           	
  5814  0F33                     l1722:	
  5815                           ;i2c_ar1000.c: 271: PEN = 1;
  5816  0F33  1511               	bsf	(1162/8)^080h,(1162)&7	;volatile
  5817                           	line	272
  5818                           ;i2c_ar1000.c: 272: while (PEN == 1);
  5819  0F34  2F35               	goto	l121
  5820                           	
  5821  0F35                     l122:	
  5822                           	
  5823  0F35                     l121:	
  5824  0F35  1911               	btfsc	(1162/8)^080h,(1162)&7	;volatile
  5825  0F36  2F38               	goto	u1421
  5826  0F37  2F39               	goto	u1420
  5827  0F38                     u1421:
  5828  0F38  2F35               	goto	l121
  5829  0F39                     u1420:
  5830  0F39  2F59               	goto	l109
  5831                           	
  5832  0F3A                     l123:	
  5833                           	line	274
  5834                           ;i2c_ar1000.c: 274: return;
  5835  0F3A  2F59               	goto	l109
  5836                           	line	275
  5837                           	
  5838  0F3B                     l120:	
  5839                           	line	278
  5840                           	
  5841  0F3B                     l1724:	
  5842                           ;i2c_ar1000.c: 275: }
  5843                           ;i2c_ar1000.c: 278: SSPBUF = ar_transmit_byte2;
  5844  0F3B  087C               	movf	(ar_i2c_write@ar_transmit_byte2),w
  5845  0F3C  1283               	bcf	status, 5	;RP0=0, select bank0
  5846  0F3D  1303               	bcf	status, 6	;RP1=0, select bank0
  5847  0F3E  0093               	movwf	(19)	;volatile
  5848                           	line	281
  5849                           ;i2c_ar1000.c: 281: while (R_W == 1);
  5850  0F3F  2F40               	goto	l124
  5851                           	
  5852  0F40                     l125:	
  5853                           	
  5854  0F40                     l124:	
  5855  0F40  1683               	bsf	status, 5	;RP0=1, select bank1
  5856  0F41  1303               	bcf	status, 6	;RP1=0, select bank1
  5857  0F42  1914               	btfsc	(1186/8)^080h,(1186)&7	;volatile
  5858  0F43  2F45               	goto	u1431
  5859  0F44  2F46               	goto	u1430
  5860  0F45                     u1431:
  5861  0F45  2F40               	goto	l124
  5862  0F46                     u1430:
  5863                           	
  5864  0F46                     l126:	
  5865                           	line	284
  5866                           ;i2c_ar1000.c: 284: if (ACKSTAT == 1) {
  5867  0F46  1F11               	btfss	(1166/8)^080h,(1166)&7	;volatile
  5868  0F47  2F49               	goto	u1441
  5869  0F48  2F4A               	goto	u1440
  5870  0F49                     u1441:
  5871  0F49  2F52               	goto	l127
  5872  0F4A                     u1440:
  5873                           	line	286
  5874                           	
  5875  0F4A                     l1726:	
  5876                           ;i2c_ar1000.c: 286: PEN = 1;
  5877  0F4A  1511               	bsf	(1162/8)^080h,(1162)&7	;volatile
  5878                           	line	287
  5879                           ;i2c_ar1000.c: 287: while (PEN == 1);
  5880  0F4B  2F4C               	goto	l128
  5881                           	
  5882  0F4C                     l129:	
  5883                           	
  5884  0F4C                     l128:	
  5885  0F4C  1911               	btfsc	(1162/8)^080h,(1162)&7	;volatile
  5886  0F4D  2F4F               	goto	u1451
  5887  0F4E  2F50               	goto	u1450
  5888  0F4F                     u1451:
  5889  0F4F  2F4C               	goto	l128
  5890  0F50                     u1450:
  5891  0F50  2F59               	goto	l109
  5892                           	
  5893  0F51                     l130:	
  5894                           	line	289
  5895                           ;i2c_ar1000.c: 289: return;
  5896  0F51  2F59               	goto	l109
  5897                           	line	290
  5898                           	
  5899  0F52                     l127:	
  5900                           	line	293
  5901                           ;i2c_ar1000.c: 290: }
  5902                           ;i2c_ar1000.c: 293: PEN = 1;
  5903  0F52  1511               	bsf	(1162/8)^080h,(1162)&7	;volatile
  5904                           	line	294
  5905                           ;i2c_ar1000.c: 294: while (PEN == 1);
  5906  0F53  2F54               	goto	l131
  5907                           	
  5908  0F54                     l132:	
  5909                           	
  5910  0F54                     l131:	
  5911  0F54  1911               	btfsc	(1162/8)^080h,(1162)&7	;volatile
  5912  0F55  2F57               	goto	u1461
  5913  0F56  2F58               	goto	u1460
  5914  0F57                     u1461:
  5915  0F57  2F54               	goto	l131
  5916  0F58                     u1460:
  5917  0F58  2F59               	goto	l109
  5918                           	
  5919  0F59                     l133:	
  5920                           	line	296
  5921                           	
  5922  0F59                     l109:	
  5923  0F59  0008               	return
  5924                           	opt stack 0
  5925                           GLOBAL	__end_of_ar_i2c_write
  5926  0F5A                     	__end_of_ar_i2c_write:
  5927                           	signat	_ar_i2c_write,12408
  5928                           	global	_send_dec
  5929                           
  5930 ;; *************** function _send_dec *****************
  5931 ;; Defined at:
  5932 ;;		line 305 in file "PR31_final.c"
  5933 ;; Parameters:    Size  Location     Type
  5934 ;;  RC4             4    0[BANK0 ] unsigned long 
  5935 ;; Auto vars:     Size  Location     Type
  5936 ;;  no             20    8[BANK0 ] unsigned long [5]
  5937 ;;  i               2   28[BANK0 ] unsigned short 
  5938 ;;  press           2    0        unsigned int 
  5939 ;; Return value:  Size  Location     Type
  5940 ;;		None               void
  5941 ;; Registers used:
  5942 ;;		wreg, fsr0l, fsr0h, status,2, status,0, pclath, cstack
  5943 ;; Tracked objects:
  5944 ;;		On entry : 0/0
  5945 ;;		On exit  : 0/0
  5946 ;;		Unchanged: 0/0
  5947 ;; Data sizes:     COMMON   BANK0   BANK1   BANK3   BANK2
  5948 ;;      Params:         0       4       0       0       0
  5949 ;;      Locals:         0      22       0       0       0
  5950 ;;      Temps:          0       4       0       0       0
  5951 ;;      Totals:         0      30       0       0       0
  5952 ;;Total ram usage:       30 bytes
  5953 ;; Hardware stack levels used:    1
  5954 ;; Hardware stack levels required when called:    4
  5955 ;; This function calls:
  5956 ;;		___lldiv
  5957 ;;		___llmod
  5958 ;;		_lcd_goto
  5959 ;;		_send_string
  5960 ;;		_uart_sendstr
  5961 ;;		_send_char
  5962 ;;		_uart_tx
  5963 ;;		_delay
  5964 ;; This function is called by:
  5965 ;;		_switch_channel
  5966 ;;		_adjust_channel
  5967 ;;		_decrease_chan
  5968 ;;		_increase_chan
  5969 ;; This function uses a non-reentrant model
  5970 ;;
  5971                           psect	text589,local,class=CODE,delta=2,merge=1
  5972                           global __ptext589
  5973  066B                     __ptext589:
  5974                           psect	text589
  5975                           	file	"PR31_final.c"
  5976                           	line	305
  5977                           	global	__size_of_send_dec
  5978  0195                     	__size_of_send_dec	equ	__end_of_send_dec-_send_dec
  5979                           	
  5980  066B                     _send_dec:	
  5981                           	opt	stack 1
  5982                           ; Regs used in _send_dec: [wreg-fsr0h+status,2+status,0+pclath+cstack]
  5983                           	line	308
  5984                           	
  5985  066B                     l1996:	
  5986                           ;PR31_final.c: 306: unsigned int press;
  5987                           ;PR31_final.c: 307: unsigned short i;
  5988                           ;PR31_final.c: 308: no[0]=(RC4/1000+0x30);
  5989  066B  3030               	movlw	030h
  5990  066C  1283               	bcf	status, 5	;RP0=0, select bank0
  5991  066D  1303               	bcf	status, 6	;RP1=0, select bank0
  5992  066E  00A4               	movwf	((??_send_dec+0)+0)
  5993  066F  3000               	movlw	0
  5994  0670  00A5               	movwf	((??_send_dec+0)+0+1)
  5995  0671  3000               	movlw	0
  5996  0672  00A6               	movwf	((??_send_dec+0)+0+2)
  5997  0673  3000               	movlw	0
  5998  0674  00A7               	movwf	((??_send_dec+0)+0+3)
  5999  0675  3000               	movlw	0
  6000  0676  00F3               	movwf	(?___lldiv+3)
  6001  0677  3000               	movlw	0
  6002  0678  00F2               	movwf	(?___lldiv+2)
  6003  0679  3003               	movlw	03h
  6004  067A  00F1               	movwf	(?___lldiv+1)
  6005  067B  30E8               	movlw	0E8h
  6006  067C  00F0               	movwf	(?___lldiv)
  6007                           
  6008  067D  0823               	movf	(send_dec@RC4+3),w
  6009  067E  00F7               	movwf	3+(?___lldiv)+04h
  6010  067F  0822               	movf	(send_dec@RC4+2),w
  6011  0680  00F6               	movwf	2+(?___lldiv)+04h
  6012  0681  0821               	movf	(send_dec@RC4+1),w
  6013  0682  00F5               	movwf	1+(?___lldiv)+04h
  6014  0683  0820               	movf	(send_dec@RC4),w
  6015  0684  00F4               	movwf	0+(?___lldiv)+04h
  6016                           
  6017  0685  120A  158A  25EF   	fcall	___lldiv
              120A  118A         
  6018  068A  0870               	movf	(0+(?___lldiv)),w
  6019  068B  1283               	bcf	status, 5	;RP0=0, select bank0
  6020  068C  1303               	bcf	status, 6	;RP1=0, select bank0
  6021  068D  07A4               	addwf	(??_send_dec+0)+0,f
  6022  068E  0871               	movf	(1+(?___lldiv)),w
  6023  068F  1803               	skipnc
  6024  0690  0F71               	incfsz	(1+(?___lldiv)),w
  6025  0691  2E93               	goto	u1860
  6026  0692  2E94               	goto	u1861
  6027  0693                     u1860:
  6028  0693  07A5               	addwf	(??_send_dec+0)+1,f
  6029  0694                     u1861:
  6030  0694  0872               	movf	(2+(?___lldiv)),w
  6031  0695  1803               	skipnc
  6032  0696  0F72               	incfsz	(2+(?___lldiv)),w
  6033  0697  2E99               	goto	u1862
  6034  0698  2E9A               	goto	u1863
  6035  0699                     u1862:
  6036  0699  07A6               	addwf	(??_send_dec+0)+2,f
  6037  069A                     u1863:
  6038  069A  0873               	movf	(3+(?___lldiv)),w
  6039  069B  1803               	skipnc
  6040  069C  0A73               	incf	(3+(?___lldiv)),w
  6041  069D  07A7               	addwf	(??_send_dec+0)+3,f
  6042  069E  0827               	movf	3+(??_send_dec+0)+0,w
  6043  069F  00AB               	movwf	(send_dec@no+3)
  6044  06A0  0826               	movf	2+(??_send_dec+0)+0,w
  6045  06A1  00AA               	movwf	(send_dec@no+2)
  6046  06A2  0825               	movf	1+(??_send_dec+0)+0,w
  6047  06A3  00A9               	movwf	(send_dec@no+1)
  6048  06A4  0824               	movf	0+(??_send_dec+0)+0,w
  6049  06A5  00A8               	movwf	(send_dec@no)
  6050                           
  6051                           	line	309
  6052                           ;PR31_final.c: 309: RC4=RC4%1000;
  6053  06A6  3000               	movlw	0
  6054  06A7  00F3               	movwf	(?___llmod+3)
  6055  06A8  3000               	movlw	0
  6056  06A9  00F2               	movwf	(?___llmod+2)
  6057  06AA  3003               	movlw	03h
  6058  06AB  00F1               	movwf	(?___llmod+1)
  6059  06AC  30E8               	movlw	0E8h
  6060  06AD  00F0               	movwf	(?___llmod)
  6061                           
  6062  06AE  0823               	movf	(send_dec@RC4+3),w
  6063  06AF  00F7               	movwf	3+(?___llmod)+04h
  6064  06B0  0822               	movf	(send_dec@RC4+2),w
  6065  06B1  00F6               	movwf	2+(?___llmod)+04h
  6066  06B2  0821               	movf	(send_dec@RC4+1),w
  6067  06B3  00F5               	movwf	1+(?___llmod)+04h
  6068  06B4  0820               	movf	(send_dec@RC4),w
  6069  06B5  00F4               	movwf	0+(?___llmod)+04h
  6070                           
  6071  06B6  120A  158A  24C7   	fcall	___llmod
              120A  118A         
  6072  06BB  0873               	movf	(3+(?___llmod)),w
  6073  06BC  1283               	bcf	status, 5	;RP0=0, select bank0
  6074  06BD  1303               	bcf	status, 6	;RP1=0, select bank0
  6075  06BE  00A3               	movwf	(send_dec@RC4+3)
  6076  06BF  0872               	movf	(2+(?___llmod)),w
  6077  06C0  00A2               	movwf	(send_dec@RC4+2)
  6078  06C1  0871               	movf	(1+(?___llmod)),w
  6079  06C2  00A1               	movwf	(send_dec@RC4+1)
  6080  06C3  0870               	movf	(0+(?___llmod)),w
  6081  06C4  00A0               	movwf	(send_dec@RC4)
  6082                           
  6083                           	line	310
  6084                           ;PR31_final.c: 310: no[1]=(RC4/100+0x30);
  6085  06C5  3030               	movlw	030h
  6086  06C6  00A4               	movwf	((??_send_dec+0)+0)
  6087  06C7  3000               	movlw	0
  6088  06C8  00A5               	movwf	((??_send_dec+0)+0+1)
  6089  06C9  3000               	movlw	0
  6090  06CA  00A6               	movwf	((??_send_dec+0)+0+2)
  6091  06CB  3000               	movlw	0
  6092  06CC  00A7               	movwf	((??_send_dec+0)+0+3)
  6093  06CD  3000               	movlw	0
  6094  06CE  00F3               	movwf	(?___lldiv+3)
  6095  06CF  3000               	movlw	0
  6096  06D0  00F2               	movwf	(?___lldiv+2)
  6097  06D1  3000               	movlw	0
  6098  06D2  00F1               	movwf	(?___lldiv+1)
  6099  06D3  3064               	movlw	064h
  6100  06D4  00F0               	movwf	(?___lldiv)
  6101                           
  6102  06D5  0823               	movf	(send_dec@RC4+3),w
  6103  06D6  00F7               	movwf	3+(?___lldiv)+04h
  6104  06D7  0822               	movf	(send_dec@RC4+2),w
  6105  06D8  00F6               	movwf	2+(?___lldiv)+04h
  6106  06D9  0821               	movf	(send_dec@RC4+1),w
  6107  06DA  00F5               	movwf	1+(?___lldiv)+04h
  6108  06DB  0820               	movf	(send_dec@RC4),w
  6109  06DC  00F4               	movwf	0+(?___lldiv)+04h
  6110                           
  6111  06DD  120A  158A  25EF   	fcall	___lldiv
              120A  118A         
  6112  06E2  0870               	movf	(0+(?___lldiv)),w
  6113  06E3  1283               	bcf	status, 5	;RP0=0, select bank0
  6114  06E4  1303               	bcf	status, 6	;RP1=0, select bank0
  6115  06E5  07A4               	addwf	(??_send_dec+0)+0,f
  6116  06E6  0871               	movf	(1+(?___lldiv)),w
  6117  06E7  1803               	skipnc
  6118  06E8  0F71               	incfsz	(1+(?___lldiv)),w
  6119  06E9  2EEB               	goto	u1870
  6120  06EA  2EEC               	goto	u1871
  6121  06EB                     u1870:
  6122  06EB  07A5               	addwf	(??_send_dec+0)+1,f
  6123  06EC                     u1871:
  6124  06EC  0872               	movf	(2+(?___lldiv)),w
  6125  06ED  1803               	skipnc
  6126  06EE  0F72               	incfsz	(2+(?___lldiv)),w
  6127  06EF  2EF1               	goto	u1872
  6128  06F0  2EF2               	goto	u1873
  6129  06F1                     u1872:
  6130  06F1  07A6               	addwf	(??_send_dec+0)+2,f
  6131  06F2                     u1873:
  6132  06F2  0873               	movf	(3+(?___lldiv)),w
  6133  06F3  1803               	skipnc
  6134  06F4  0A73               	incf	(3+(?___lldiv)),w
  6135  06F5  07A7               	addwf	(??_send_dec+0)+3,f
  6136  06F6  0827               	movf	3+(??_send_dec+0)+0,w
  6137  06F7  00AF               	movwf	3+(send_dec@no)+04h
  6138  06F8  0826               	movf	2+(??_send_dec+0)+0,w
  6139  06F9  00AE               	movwf	2+(send_dec@no)+04h
  6140  06FA  0825               	movf	1+(??_send_dec+0)+0,w
  6141  06FB  00AD               	movwf	1+(send_dec@no)+04h
  6142  06FC  0824               	movf	0+(??_send_dec+0)+0,w
  6143  06FD  00AC               	movwf	0+(send_dec@no)+04h
  6144                           
  6145                           	line	311
  6146                           ;PR31_final.c: 311: RC4=RC4%100;
  6147  06FE  3000               	movlw	0
  6148  06FF  00F3               	movwf	(?___llmod+3)
  6149  0700  3000               	movlw	0
  6150  0701  00F2               	movwf	(?___llmod+2)
  6151  0702  3000               	movlw	0
  6152  0703  00F1               	movwf	(?___llmod+1)
  6153  0704  3064               	movlw	064h
  6154  0705  00F0               	movwf	(?___llmod)
  6155                           
  6156  0706  0823               	movf	(send_dec@RC4+3),w
  6157  0707  00F7               	movwf	3+(?___llmod)+04h
  6158  0708  0822               	movf	(send_dec@RC4+2),w
  6159  0709  00F6               	movwf	2+(?___llmod)+04h
  6160  070A  0821               	movf	(send_dec@RC4+1),w
  6161  070B  00F5               	movwf	1+(?___llmod)+04h
  6162  070C  0820               	movf	(send_dec@RC4),w
  6163  070D  00F4               	movwf	0+(?___llmod)+04h
  6164                           
  6165  070E  120A  158A  24C7   	fcall	___llmod
              120A  118A         
  6166  0713  0873               	movf	(3+(?___llmod)),w
  6167  0714  1283               	bcf	status, 5	;RP0=0, select bank0
  6168  0715  1303               	bcf	status, 6	;RP1=0, select bank0
  6169  0716  00A3               	movwf	(send_dec@RC4+3)
  6170  0717  0872               	movf	(2+(?___llmod)),w
  6171  0718  00A2               	movwf	(send_dec@RC4+2)
  6172  0719  0871               	movf	(1+(?___llmod)),w
  6173  071A  00A1               	movwf	(send_dec@RC4+1)
  6174  071B  0870               	movf	(0+(?___llmod)),w
  6175  071C  00A0               	movwf	(send_dec@RC4)
  6176                           
  6177                           	line	312
  6178                           ;PR31_final.c: 312: no[2]=(RC4/10+0x30);
  6179  071D  3030               	movlw	030h
  6180  071E  00A4               	movwf	((??_send_dec+0)+0)
  6181  071F  3000               	movlw	0
  6182  0720  00A5               	movwf	((??_send_dec+0)+0+1)
  6183  0721  3000               	movlw	0
  6184  0722  00A6               	movwf	((??_send_dec+0)+0+2)
  6185  0723  3000               	movlw	0
  6186  0724  00A7               	movwf	((??_send_dec+0)+0+3)
  6187  0725  3000               	movlw	0
  6188  0726  00F3               	movwf	(?___lldiv+3)
  6189  0727  3000               	movlw	0
  6190  0728  00F2               	movwf	(?___lldiv+2)
  6191  0729  3000               	movlw	0
  6192  072A  00F1               	movwf	(?___lldiv+1)
  6193  072B  300A               	movlw	0Ah
  6194  072C  00F0               	movwf	(?___lldiv)
  6195                           
  6196  072D  0823               	movf	(send_dec@RC4+3),w
  6197  072E  00F7               	movwf	3+(?___lldiv)+04h
  6198  072F  0822               	movf	(send_dec@RC4+2),w
  6199  0730  00F6               	movwf	2+(?___lldiv)+04h
  6200  0731  0821               	movf	(send_dec@RC4+1),w
  6201  0732  00F5               	movwf	1+(?___lldiv)+04h
  6202  0733  0820               	movf	(send_dec@RC4),w
  6203  0734  00F4               	movwf	0+(?___lldiv)+04h
  6204                           
  6205  0735  120A  158A  25EF   	fcall	___lldiv
              120A  118A         
  6206  073A  0870               	movf	(0+(?___lldiv)),w
  6207  073B  1283               	bcf	status, 5	;RP0=0, select bank0
  6208  073C  1303               	bcf	status, 6	;RP1=0, select bank0
  6209  073D  07A4               	addwf	(??_send_dec+0)+0,f
  6210  073E  0871               	movf	(1+(?___lldiv)),w
  6211  073F  1803               	skipnc
  6212  0740  0F71               	incfsz	(1+(?___lldiv)),w
  6213  0741  2F43               	goto	u1880
  6214  0742  2F44               	goto	u1881
  6215  0743                     u1880:
  6216  0743  07A5               	addwf	(??_send_dec+0)+1,f
  6217  0744                     u1881:
  6218  0744  0872               	movf	(2+(?___lldiv)),w
  6219  0745  1803               	skipnc
  6220  0746  0F72               	incfsz	(2+(?___lldiv)),w
  6221  0747  2F49               	goto	u1882
  6222  0748  2F4A               	goto	u1883
  6223  0749                     u1882:
  6224  0749  07A6               	addwf	(??_send_dec+0)+2,f
  6225  074A                     u1883:
  6226  074A  0873               	movf	(3+(?___lldiv)),w
  6227  074B  1803               	skipnc
  6228  074C  0A73               	incf	(3+(?___lldiv)),w
  6229  074D  07A7               	addwf	(??_send_dec+0)+3,f
  6230  074E  0827               	movf	3+(??_send_dec+0)+0,w
  6231  074F  00B3               	movwf	3+(send_dec@no)+08h
  6232  0750  0826               	movf	2+(??_send_dec+0)+0,w
  6233  0751  00B2               	movwf	2+(send_dec@no)+08h
  6234  0752  0825               	movf	1+(??_send_dec+0)+0,w
  6235  0753  00B1               	movwf	1+(send_dec@no)+08h
  6236  0754  0824               	movf	0+(??_send_dec+0)+0,w
  6237  0755  00B0               	movwf	0+(send_dec@no)+08h
  6238                           
  6239                           	line	313
  6240                           	
  6241  0756                     l1998:	
  6242                           ;PR31_final.c: 313: no[3]=0x2E;
  6243  0756  3000               	movlw	0
  6244  0757  00B7               	movwf	3+(send_dec@no)+0Ch
  6245  0758  3000               	movlw	0
  6246  0759  00B6               	movwf	2+(send_dec@no)+0Ch
  6247  075A  3000               	movlw	0
  6248  075B  00B5               	movwf	1+(send_dec@no)+0Ch
  6249  075C  302E               	movlw	02Eh
  6250  075D  00B4               	movwf	0+(send_dec@no)+0Ch
  6251                           
  6252                           	line	314
  6253                           	
  6254  075E                     l2000:	
  6255                           ;PR31_final.c: 314: no[4]=(RC4%10+0x30);
  6256  075E  3030               	movlw	030h
  6257  075F  00A4               	movwf	((??_send_dec+0)+0)
  6258  0760  3000               	movlw	0
  6259  0761  00A5               	movwf	((??_send_dec+0)+0+1)
  6260  0762  3000               	movlw	0
  6261  0763  00A6               	movwf	((??_send_dec+0)+0+2)
  6262  0764  3000               	movlw	0
  6263  0765  00A7               	movwf	((??_send_dec+0)+0+3)
  6264  0766  3000               	movlw	0
  6265  0767  00F3               	movwf	(?___llmod+3)
  6266  0768  3000               	movlw	0
  6267  0769  00F2               	movwf	(?___llmod+2)
  6268  076A  3000               	movlw	0
  6269  076B  00F1               	movwf	(?___llmod+1)
  6270  076C  300A               	movlw	0Ah
  6271  076D  00F0               	movwf	(?___llmod)
  6272                           
  6273  076E  0823               	movf	(send_dec@RC4+3),w
  6274  076F  00F7               	movwf	3+(?___llmod)+04h
  6275  0770  0822               	movf	(send_dec@RC4+2),w
  6276  0771  00F6               	movwf	2+(?___llmod)+04h
  6277  0772  0821               	movf	(send_dec@RC4+1),w
  6278  0773  00F5               	movwf	1+(?___llmod)+04h
  6279  0774  0820               	movf	(send_dec@RC4),w
  6280  0775  00F4               	movwf	0+(?___llmod)+04h
  6281                           
  6282  0776  120A  158A  24C7   	fcall	___llmod
              120A  118A         
  6283  077B  0870               	movf	(0+(?___llmod)),w
  6284  077C  1283               	bcf	status, 5	;RP0=0, select bank0
  6285  077D  1303               	bcf	status, 6	;RP1=0, select bank0
  6286  077E  07A4               	addwf	(??_send_dec+0)+0,f
  6287  077F  0871               	movf	(1+(?___llmod)),w
  6288  0780  1803               	skipnc
  6289  0781  0F71               	incfsz	(1+(?___llmod)),w
  6290  0782  2F84               	goto	u1890
  6291  0783  2F85               	goto	u1891
  6292  0784                     u1890:
  6293  0784  07A5               	addwf	(??_send_dec+0)+1,f
  6294  0785                     u1891:
  6295  0785  0872               	movf	(2+(?___llmod)),w
  6296  0786  1803               	skipnc
  6297  0787  0F72               	incfsz	(2+(?___llmod)),w
  6298  0788  2F8A               	goto	u1892
  6299  0789  2F8B               	goto	u1893
  6300  078A                     u1892:
  6301  078A  07A6               	addwf	(??_send_dec+0)+2,f
  6302  078B                     u1893:
  6303  078B  0873               	movf	(3+(?___llmod)),w
  6304  078C  1803               	skipnc
  6305  078D  0A73               	incf	(3+(?___llmod)),w
  6306  078E  07A7               	addwf	(??_send_dec+0)+3,f
  6307  078F  0827               	movf	3+(??_send_dec+0)+0,w
  6308  0790  00BB               	movwf	3+(send_dec@no)+010h
  6309  0791  0826               	movf	2+(??_send_dec+0)+0,w
  6310  0792  00BA               	movwf	2+(send_dec@no)+010h
  6311  0793  0825               	movf	1+(??_send_dec+0)+0,w
  6312  0794  00B9               	movwf	1+(send_dec@no)+010h
  6313  0795  0824               	movf	0+(??_send_dec+0)+0,w
  6314  0796  00B8               	movwf	0+(send_dec@no)+010h
  6315                           
  6316                           	line	315
  6317                           	
  6318  0797                     l2002:	
  6319                           ;PR31_final.c: 315: lcd_goto(20);
  6320  0797  3014               	movlw	(014h)
  6321  0798  120A  158A  23A5   	fcall	_lcd_goto
              120A  118A         
  6322                           	line	316
  6323                           	
  6324  079D                     l2004:	
  6325                           ;PR31_final.c: 316: send_string("FM=");
  6326  079D  3065               	movlw	((STR_20-__stringbase))&0ffh
  6327  079E  120A  118A  2004   	fcall	_send_string
              120A  118A         
  6328                           	line	317
  6329                           	
  6330  07A3                     l2006:	
  6331                           ;PR31_final.c: 317: uart_sendstr("FM=");
  6332  07A3  3065               	movlw	((STR_21-__stringbase))&0ffh
  6333  07A4  120A  158A  246C   	fcall	_uart_sendstr
              120A  118A         
  6334                           	line	318
  6335                           	
  6336  07A9                     l2008:	
  6337                           ;PR31_final.c: 318: for (i=0;i<5;i++)
  6338  07A9  1283               	bcf	status, 5	;RP0=0, select bank0
  6339  07AA  1303               	bcf	status, 6	;RP1=0, select bank0
  6340  07AB  01BC               	clrf	(send_dec@i)
  6341  07AC  01BD               	clrf	(send_dec@i+1)
  6342                           	
  6343  07AD                     l2010:	
  6344  07AD  3000               	movlw	high(05h)
  6345  07AE  023D               	subwf	(send_dec@i+1),w
  6346  07AF  3005               	movlw	low(05h)
  6347  07B0  1903               	skipnz
  6348  07B1  023C               	subwf	(send_dec@i),w
  6349  07B2  1C03               	skipc
  6350  07B3  2FB5               	goto	u1901
  6351  07B4  2FB6               	goto	u1900
  6352  07B5                     u1901:
  6353  07B5  2FB8               	goto	l2014
  6354  07B6                     u1900:
  6355  07B6  2FF2               	goto	l2020
  6356                           	
  6357  07B7                     l2012:	
  6358  07B7  2FF2               	goto	l2020
  6359                           	line	319
  6360                           	
  6361  07B8                     l325:	
  6362                           	line	320
  6363                           	
  6364  07B8                     l2014:	
  6365                           ;PR31_final.c: 319: {
  6366                           ;PR31_final.c: 320: send_char(no[i]);
  6367  07B8  083C               	movf	(send_dec@i),w
  6368  07B9  00A4               	movwf	(??_send_dec+0)+0
  6369  07BA  3001               	movlw	(02h)-1
  6370  07BB                     u1915:
  6371  07BB  1003               	clrc
  6372  07BC  0DA4               	rlf	(??_send_dec+0)+0,f
  6373  07BD  3EFF               	addlw	-1
  6374  07BE  1D03               	skipz
  6375  07BF  2FBB               	goto	u1915
  6376  07C0  1003               	clrc
  6377  07C1  0D24               	rlf	(??_send_dec+0)+0,w
  6378  07C2  3E28               	addlw	send_dec@no&0ffh
  6379  07C3  0084               	movwf	fsr0
  6380  07C4  1383               	bcf	status, 7	;select IRP bank0
  6381  07C5  0800               	movf	indf,w
  6382  07C6  120A  158A  2359   	fcall	_send_char
              120A  118A         
  6383                           	line	321
  6384                           ;PR31_final.c: 321: uart_tx(no[i]);
  6385  07CB  1283               	bcf	status, 5	;RP0=0, select bank0
  6386  07CC  1303               	bcf	status, 6	;RP1=0, select bank0
  6387  07CD  083C               	movf	(send_dec@i),w
  6388  07CE  00A4               	movwf	(??_send_dec+0)+0
  6389  07CF  3001               	movlw	(02h)-1
  6390  07D0                     u1925:
  6391  07D0  1003               	clrc
  6392  07D1  0DA4               	rlf	(??_send_dec+0)+0,f
  6393  07D2  3EFF               	addlw	-1
  6394  07D3  1D03               	skipz
  6395  07D4  2FD0               	goto	u1925
  6396  07D5  1003               	clrc
  6397  07D6  0D24               	rlf	(??_send_dec+0)+0,w
  6398  07D7  3E28               	addlw	send_dec@no&0ffh
  6399  07D8  0084               	movwf	fsr0
  6400  07D9  1383               	bcf	status, 7	;select IRP bank0
  6401  07DA  0800               	movf	indf,w
  6402  07DB  120A  158A  2304   	fcall	_uart_tx
              120A  118A         
  6403                           	line	318
  6404                           	
  6405  07E0                     l2016:	
  6406  07E0  3001               	movlw	low(01h)
  6407  07E1  1283               	bcf	status, 5	;RP0=0, select bank0
  6408  07E2  1303               	bcf	status, 6	;RP1=0, select bank0
  6409  07E3  07BC               	addwf	(send_dec@i),f
  6410  07E4  1803               	skipnc
  6411  07E5  0ABD               	incf	(send_dec@i+1),f
  6412  07E6  3000               	movlw	high(01h)
  6413  07E7  07BD               	addwf	(send_dec@i+1),f
  6414                           	
  6415  07E8                     l2018:	
  6416  07E8  3000               	movlw	high(05h)
  6417  07E9  023D               	subwf	(send_dec@i+1),w
  6418  07EA  3005               	movlw	low(05h)
  6419  07EB  1903               	skipnz
  6420  07EC  023C               	subwf	(send_dec@i),w
  6421  07ED  1C03               	skipc
  6422  07EE  2FF0               	goto	u1931
  6423  07EF  2FF1               	goto	u1930
  6424  07F0                     u1931:
  6425  07F0  2FB8               	goto	l2014
  6426  07F1                     u1930:
  6427  07F1  2FF2               	goto	l2020
  6428                           	
  6429  07F2                     l326:	
  6430                           	line	323
  6431                           	
  6432  07F2                     l2020:	
  6433                           ;PR31_final.c: 322: }
  6434                           ;PR31_final.c: 323: delay(1000);
  6435  07F2  3000               	movlw	0
  6436  07F3  00F3               	movwf	(?_delay+3)
  6437  07F4  3000               	movlw	0
  6438  07F5  00F2               	movwf	(?_delay+2)
  6439  07F6  3003               	movlw	03h
  6440  07F7  00F1               	movwf	(?_delay+1)
  6441  07F8  30E8               	movlw	0E8h
  6442  07F9  00F0               	movwf	(?_delay)
  6443                           
  6444  07FA  120A  118A  202B   	fcall	_delay
              120A  118A         
  6445                           	line	324
  6446                           	
  6447  07FF                     l327:	
  6448  07FF  0008               	return
  6449                           	opt stack 0
  6450                           GLOBAL	__end_of_send_dec
  6451  0800                     	__end_of_send_dec:
  6452                           	signat	_send_dec,4216
  6453                           	global	_send_string
  6454                           
  6455 ;; *************** function _send_string *****************
  6456 ;; Defined at:
  6457 ;;		line 506 in file "PR31_final.c"
  6458 ;; Parameters:    Size  Location     Type
  6459 ;;  s               1    wreg     PTR const unsigned char 
  6460 ;;		 -> STR_20(4), STR_16(17), STR_14(8), STR_12(9), 
  6461 ;;		 -> STR_10(9), STR_8(17), STR_6(12), STR_4(17), 
  6462 ;;		 -> STR_2(14), STR_1(7), 
  6463 ;; Auto vars:     Size  Location     Type
  6464 ;;  s               1   11[COMMON] PTR const unsigned char 
  6465 ;;		 -> STR_20(4), STR_16(17), STR_14(8), STR_12(9), 
  6466 ;;		 -> STR_10(9), STR_8(17), STR_6(12), STR_4(17), 
  6467 ;;		 -> STR_2(14), STR_1(7), 
  6468 ;;  i               1   10[COMMON] unsigned char 
  6469 ;; Return value:  Size  Location     Type
  6470 ;;		None               void
  6471 ;; Registers used:
  6472 ;;		wreg, fsr0l, fsr0h, status,2, status,0, pclath, cstack
  6473 ;; Tracked objects:
  6474 ;;		On entry : 0/0
  6475 ;;		On exit  : 0/0
  6476 ;;		Unchanged: 0/0
  6477 ;; Data sizes:     COMMON   BANK0   BANK1   BANK3   BANK2
  6478 ;;      Params:         0       0       0       0       0
  6479 ;;      Locals:         2       0       0       0       0
  6480 ;;      Temps:          1       0       0       0       0
  6481 ;;      Totals:         3       0       0       0       0
  6482 ;;Total ram usage:        3 bytes
  6483 ;; Hardware stack levels used:    1
  6484 ;; Hardware stack levels required when called:    3
  6485 ;; This function calls:
  6486 ;;		_send_char
  6487 ;; This function is called by:
  6488 ;;		_main
  6489 ;;		_switch_channel
  6490 ;;		_adjust_channel
  6491 ;;		_send_dec
  6492 ;; This function uses a non-reentrant model
  6493 ;;
  6494                           psect	text590,local,class=CODE,delta=2,merge=1
  6495                           global __ptext590
  6496  0004                     __ptext590:
  6497                           psect	text590
  6498                           	file	"PR31_final.c"
  6499                           	line	506
  6500                           	global	__size_of_send_string
  6501  0027                     	__size_of_send_string	equ	__end_of_send_string-_send_string
  6502                           	
  6503  0004                     _send_string:	
  6504                           	opt	stack 1
  6505                           ; Regs used in _send_string: [wreg-fsr0h+status,2+status,0+pclath+cstack]
  6506                           ;send_string@s stored from wreg
  6507  0004  00FB               	movwf	(send_string@s)
  6508                           	line	507
  6509                           	
  6510  0005                     l1930:	
  6511                           ;PR31_final.c: 507: unsigned char i=0;
  6512  0005  01FA               	clrf	(send_string@i)
  6513                           	line	508
  6514                           ;PR31_final.c: 508: while (s && *s)send_char (*s++);
  6515  0006  2818               	goto	l1936
  6516                           	
  6517  0007                     l390:	
  6518                           	
  6519  0007                     l1932:	
  6520  0007  087B               	movf	(send_string@s),w
  6521  0008  0084               	movwf	fsr0
  6522  0009  120A  158A  2000   	fcall	stringdir
              120A  118A         
  6523  000E  120A  158A  2359   	fcall	_send_char
              120A  118A         
  6524                           	
  6525  0013                     l1934:	
  6526  0013  3001               	movlw	(01h)
  6527  0014  00F9               	movwf	(??_send_string+0)+0
  6528  0015  0879               	movf	(??_send_string+0)+0,w
  6529  0016  07FB               	addwf	(send_string@s),f
  6530  0017  2818               	goto	l1936
  6531                           	
  6532  0018                     l389:	
  6533                           	
  6534  0018                     l1936:	
  6535  0018  087B               	movf	(send_string@s),w
  6536  0019  1D03               	skipz
  6537  001A  281C               	goto	u1750
  6538  001B  282A               	goto	l394
  6539  001C                     u1750:
  6540                           	
  6541  001C                     l1938:	
  6542  001C  087B               	movf	(send_string@s),w
  6543  001D  0084               	movwf	fsr0
  6544  001E  120A  158A  2000   	fcall	stringdir
              120A  118A         
  6545  0023  3800               	iorlw	0
  6546  0024  1D03               	skipz
  6547  0025  2827               	goto	u1761
  6548  0026  2828               	goto	u1760
  6549  0027                     u1761:
  6550  0027  2807               	goto	l1932
  6551  0028                     u1760:
  6552  0028  282A               	goto	l394
  6553                           	
  6554  0029                     l392:	
  6555  0029  282A               	goto	l394
  6556                           	
  6557  002A                     l393:	
  6558                           	line	509
  6559                           	
  6560  002A                     l394:	
  6561  002A  0008               	return
  6562                           	opt stack 0
  6563                           GLOBAL	__end_of_send_string
  6564  002B                     	__end_of_send_string:
  6565                           	signat	_send_string,4216
  6566                           	global	_lcd_goto
  6567                           
  6568 ;; *************** function _lcd_goto *****************
  6569 ;; Defined at:
  6570 ;;		line 488 in file "PR31_final.c"
  6571 ;; Parameters:    Size  Location     Type
  6572 ;;  RC4             1    wreg     unsigned char 
  6573 ;; Auto vars:     Size  Location     Type
  6574 ;;  RC4             1   10[COMMON] unsigned char 
  6575 ;; Return value:  Size  Location     Type
  6576 ;;		None               void
  6577 ;; Registers used:
  6578 ;;		wreg, status,2, status,0, pclath, cstack
  6579 ;; Tracked objects:
  6580 ;;		On entry : 0/0
  6581 ;;		On exit  : 0/0
  6582 ;;		Unchanged: 0/0
  6583 ;; Data sizes:     COMMON   BANK0   BANK1   BANK3   BANK2
  6584 ;;      Params:         0       0       0       0       0
  6585 ;;      Locals:         1       0       0       0       0
  6586 ;;      Temps:          1       0       0       0       0
  6587 ;;      Totals:         2       0       0       0       0
  6588 ;;Total ram usage:        2 bytes
  6589 ;; Hardware stack levels used:    1
  6590 ;; Hardware stack levels required when called:    3
  6591 ;; This function calls:
  6592 ;;		_send_config
  6593 ;; This function is called by:
  6594 ;;		_main
  6595 ;;		_adjust_channel
  6596 ;;		_send_dec
  6597 ;;		_adjust_vol
  6598 ;; This function uses a non-reentrant model
  6599 ;;
  6600                           psect	text591,local,class=CODE,delta=2,merge=1
  6601                           global __ptext591
  6602  0BA5                     __ptext591:
  6603                           psect	text591
  6604                           	file	"PR31_final.c"
  6605                           	line	488
  6606                           	global	__size_of_lcd_goto
  6607  001D                     	__size_of_lcd_goto	equ	__end_of_lcd_goto-_lcd_goto
  6608                           	
  6609  0BA5                     _lcd_goto:	
  6610                           	opt	stack 3
  6611                           ; Regs used in _lcd_goto: [wreg+status,2+status,0+pclath+cstack]
  6612                           ;lcd_goto@RC4 stored from wreg
  6613  0BA5  00FA               	movwf	(lcd_goto@RC4)
  6614                           	line	489
  6615                           	
  6616  0BA6                     l1940:	
  6617                           ;PR31_final.c: 489: if(RC4<16)
  6618  0BA6  3010               	movlw	(010h)
  6619  0BA7  027A               	subwf	(lcd_goto@RC4),w
  6620  0BA8  1803               	skipnc
  6621  0BA9  2BAB               	goto	u1771
  6622  0BAA  2BAC               	goto	u1770
  6623  0BAB                     u1771:
  6624  0BAB  2BB4               	goto	l1944
  6625  0BAC                     u1770:
  6626                           	line	491
  6627                           	
  6628  0BAC                     l1942:	
  6629                           ;PR31_final.c: 490: {
  6630                           ;PR31_final.c: 491: send_config(0x80+RC4);
  6631  0BAC  087A               	movf	(lcd_goto@RC4),w
  6632  0BAD  3E80               	addlw	080h
  6633  0BAE  120A  158A  2372   	fcall	_send_config
              120A  158A         
  6634                           	line	492
  6635                           ;PR31_final.c: 492: }
  6636  0BB3  2BC1               	goto	l383
  6637                           	line	493
  6638                           	
  6639  0BB4                     l381:	
  6640                           	line	495
  6641                           	
  6642  0BB4                     l1944:	
  6643                           ;PR31_final.c: 493: else
  6644                           ;PR31_final.c: 494: {
  6645                           ;PR31_final.c: 495: RC4=RC4-20;
  6646  0BB4  087A               	movf	(lcd_goto@RC4),w
  6647  0BB5  3EEC               	addlw	0ECh
  6648  0BB6  00F9               	movwf	(??_lcd_goto+0)+0
  6649  0BB7  0879               	movf	(??_lcd_goto+0)+0,w
  6650  0BB8  00FA               	movwf	(lcd_goto@RC4)
  6651                           	line	496
  6652                           	
  6653  0BB9                     l1946:	
  6654                           ;PR31_final.c: 496: send_config(0xc0+RC4);
  6655  0BB9  087A               	movf	(lcd_goto@RC4),w
  6656  0BBA  3EC0               	addlw	0C0h
  6657  0BBB  120A  158A  2372   	fcall	_send_config
              120A  158A         
  6658  0BC0  2BC1               	goto	l383
  6659                           	line	497
  6660                           	
  6661  0BC1                     l382:	
  6662                           	line	498
  6663                           	
  6664  0BC1                     l383:	
  6665  0BC1  0008               	return
  6666                           	opt stack 0
  6667                           GLOBAL	__end_of_lcd_goto
  6668  0BC2                     	__end_of_lcd_goto:
  6669                           	signat	_lcd_goto,4216
  6670                           	global	_send_config
  6671                           
  6672 ;; *************** function _send_config *****************
  6673 ;; Defined at:
  6674 ;;		line 467 in file "PR31_final.c"
  6675 ;; Parameters:    Size  Location     Type
  6676 ;;  RC4             1    wreg     unsigned char 
  6677 ;; Auto vars:     Size  Location     Type
  6678 ;;  RC4             1    8[COMMON] unsigned char 
  6679 ;; Return value:  Size  Location     Type
  6680 ;;		None               void
  6681 ;; Registers used:
  6682 ;;		wreg, status,2, status,0, pclath, cstack
  6683 ;; Tracked objects:
  6684 ;;		On entry : 0/0
  6685 ;;		On exit  : 0/0
  6686 ;;		Unchanged: 0/0
  6687 ;; Data sizes:     COMMON   BANK0   BANK1   BANK3   BANK2
  6688 ;;      Params:         0       0       0       0       0
  6689 ;;      Locals:         1       0       0       0       0
  6690 ;;      Temps:          0       0       0       0       0
  6691 ;;      Totals:         1       0       0       0       0
  6692 ;;Total ram usage:        1 bytes
  6693 ;; Hardware stack levels used:    1
  6694 ;; Hardware stack levels required when called:    2
  6695 ;; This function calls:
  6696 ;;		_delay
  6697 ;;		_e_pulse
  6698 ;; This function is called by:
  6699 ;;		_main
  6700 ;;		_lcd_goto
  6701 ;;		_lcd_clr
  6702 ;; This function uses a non-reentrant model
  6703 ;;
  6704                           psect	text592,local,class=CODE,delta=2,merge=1
  6705                           global __ptext592
  6706  0B72                     __ptext592:
  6707                           psect	text592
  6708                           	file	"PR31_final.c"
  6709                           	line	467
  6710                           	global	__size_of_send_config
  6711  0019                     	__size_of_send_config	equ	__end_of_send_config-_send_config
  6712                           	
  6713  0B72                     _send_config:	
  6714                           	opt	stack 3
  6715                           ; Regs used in _send_config: [wreg+status,2+status,0+pclath+cstack]
  6716                           ;send_config@RC4 stored from wreg
  6717  0B72  00F8               	movwf	(send_config@RC4)
  6718                           	line	468
  6719                           	
  6720  0B73                     l1914:	
  6721                           ;PR31_final.c: 468: RB4=0;
  6722  0B73  1283               	bcf	status, 5	;RP0=0, select bank0
  6723  0B74  1303               	bcf	status, 6	;RP1=0, select bank0
  6724  0B75  1206               	bcf	(52/8),(52)&7	;volatile
  6725                           	line	469
  6726                           	
  6727  0B76                     l1916:	
  6728                           ;PR31_final.c: 469: PORTD=RC4;
  6729  0B76  0878               	movf	(send_config@RC4),w
  6730  0B77  0088               	movwf	(8)	;volatile
  6731                           	line	470
  6732                           	
  6733  0B78                     l1918:	
  6734                           ;PR31_final.c: 470: delay(300);
  6735  0B78  3000               	movlw	0
  6736  0B79  00F3               	movwf	(?_delay+3)
  6737  0B7A  3000               	movlw	0
  6738  0B7B  00F2               	movwf	(?_delay+2)
  6739  0B7C  3001               	movlw	01h
  6740  0B7D  00F1               	movwf	(?_delay+1)
  6741  0B7E  302C               	movlw	02Ch
  6742  0B7F  00F0               	movwf	(?_delay)
  6743                           
  6744  0B80  120A  118A  202B   	fcall	_delay
              120A  158A         
  6745                           	line	471
  6746                           	
  6747  0B85                     l1920:	
  6748                           ;PR31_final.c: 471: e_pulse();
  6749  0B85  120A  158A  241F   	fcall	_e_pulse
              120A  158A         
  6750                           	line	472
  6751                           	
  6752  0B8A                     l372:	
  6753  0B8A  0008               	return
  6754                           	opt stack 0
  6755                           GLOBAL	__end_of_send_config
  6756  0B8B                     	__end_of_send_config:
  6757                           	signat	_send_config,4216
  6758                           	global	_uart_sendstr
  6759                           
  6760 ;; *************** function _uart_sendstr *****************
  6761 ;; Defined at:
  6762 ;;		line 545 in file "PR31_final.c"
  6763 ;; Parameters:    Size  Location     Type
  6764 ;;  s               1    wreg     PTR const unsigned char 
  6765 ;;		 -> STR_21(4), STR_19(9), STR_18(9), STR_17(17), 
  6766 ;;		 -> STR_15(8), STR_13(9), STR_11(9), STR_9(17), 
  6767 ;;		 -> STR_7(12), STR_5(17), STR_3(21), 
  6768 ;; Auto vars:     Size  Location     Type
  6769 ;;  s               1    2[COMMON] PTR const unsigned char 
  6770 ;;		 -> STR_21(4), STR_19(9), STR_18(9), STR_17(17), 
  6771 ;;		 -> STR_15(8), STR_13(9), STR_11(9), STR_9(17), 
  6772 ;;		 -> STR_7(12), STR_5(17), STR_3(21), 
  6773 ;; Return value:  Size  Location     Type
  6774 ;;		None               void
  6775 ;; Registers used:
  6776 ;;		wreg, fsr0l, fsr0h, status,2, status,0, pclath, cstack
  6777 ;; Tracked objects:
  6778 ;;		On entry : 0/0
  6779 ;;		On exit  : 0/0
  6780 ;;		Unchanged: 0/0
  6781 ;; Data sizes:     COMMON   BANK0   BANK1   BANK3   BANK2
  6782 ;;      Params:         0       0       0       0       0
  6783 ;;      Locals:         1       0       0       0       0
  6784 ;;      Temps:          1       0       0       0       0
  6785 ;;      Totals:         2       0       0       0       0
  6786 ;;Total ram usage:        2 bytes
  6787 ;; Hardware stack levels used:    1
  6788 ;; Hardware stack levels required when called:    1
  6789 ;; This function calls:
  6790 ;;		_uart_tx
  6791 ;; This function is called by:
  6792 ;;		_main
  6793 ;;		_switch_channel
  6794 ;;		_adjust_channel
  6795 ;;		_decrease_chan
  6796 ;;		_increase_chan
  6797 ;;		_send_dec
  6798 ;; This function uses a non-reentrant model
  6799 ;;
  6800                           psect	text593,local,class=CODE,delta=2,merge=1
  6801                           global __ptext593
  6802  0C6C                     __ptext593:
  6803                           psect	text593
  6804                           	file	"PR31_final.c"
  6805                           	line	545
  6806                           	global	__size_of_uart_sendstr
  6807  002D                     	__size_of_uart_sendstr	equ	__end_of_uart_sendstr-_uart_sendstr
  6808                           	
  6809  0C6C                     _uart_sendstr:	
  6810                           	opt	stack 3
  6811                           ; Regs used in _uart_sendstr: [wreg-fsr0h+status,2+status,0+pclath+cstack]
  6812                           ;uart_sendstr@s stored from wreg
  6813  0C6C  00F2               	movwf	(uart_sendstr@s)
  6814                           	line	546
  6815                           	
  6816  0C6D                     l1848:	
  6817                           ;PR31_final.c: 546: uart_tx(0x0A);
  6818  0C6D  300A               	movlw	(0Ah)
  6819  0C6E  120A  158A  2304   	fcall	_uart_tx
              120A  158A         
  6820                           	line	547
  6821                           ;PR31_final.c: 547: uart_tx(0x0D);
  6822  0C73  300D               	movlw	(0Dh)
  6823  0C74  120A  158A  2304   	fcall	_uart_tx
              120A  158A         
  6824                           	line	549
  6825                           ;PR31_final.c: 549: while (*s != '\0')
  6826  0C79  2C8B               	goto	l1854
  6827                           	
  6828  0C7A                     l414:	
  6829                           	line	551
  6830                           	
  6831  0C7A                     l1850:	
  6832                           ;PR31_final.c: 550: {
  6833                           ;PR31_final.c: 551: uart_tx(*s);
  6834  0C7A  0872               	movf	(uart_sendstr@s),w
  6835  0C7B  0084               	movwf	fsr0
  6836  0C7C  120A  158A  2000   	fcall	stringdir
              120A  158A         
  6837  0C81  120A  158A  2304   	fcall	_uart_tx
              120A  158A         
  6838                           	line	552
  6839                           	
  6840  0C86                     l1852:	
  6841                           ;PR31_final.c: 552: s++;
  6842  0C86  3001               	movlw	(01h)
  6843  0C87  00F1               	movwf	(??_uart_sendstr+0)+0
  6844  0C88  0871               	movf	(??_uart_sendstr+0)+0,w
  6845  0C89  07F2               	addwf	(uart_sendstr@s),f
  6846  0C8A  2C8B               	goto	l1854
  6847                           	line	553
  6848                           	
  6849  0C8B                     l413:	
  6850                           	line	549
  6851                           	
  6852  0C8B                     l1854:	
  6853  0C8B  0872               	movf	(uart_sendstr@s),w
  6854  0C8C  0084               	movwf	fsr0
  6855  0C8D  120A  158A  2000   	fcall	stringdir
              120A  158A         
  6856  0C92  3800               	iorlw	0
  6857  0C93  1D03               	skipz
  6858  0C94  2C96               	goto	u1701
  6859  0C95  2C97               	goto	u1700
  6860  0C96                     u1701:
  6861  0C96  2C7A               	goto	l1850
  6862  0C97                     u1700:
  6863  0C97  2C98               	goto	l416
  6864                           	
  6865  0C98                     l415:	
  6866                           	line	555
  6867                           	
  6868  0C98                     l416:	
  6869  0C98  0008               	return
  6870                           	opt stack 0
  6871                           GLOBAL	__end_of_uart_sendstr
  6872  0C99                     	__end_of_uart_sendstr:
  6873                           	signat	_uart_sendstr,4216
  6874                           	global	_uart_tx
  6875                           
  6876 ;; *************** function _uart_tx *****************
  6877 ;; Defined at:
  6878 ;;		line 528 in file "PR31_final.c"
  6879 ;; Parameters:    Size  Location     Type
  6880 ;;  uc_data         1    wreg     unsigned char 
  6881 ;; Auto vars:     Size  Location     Type
  6882 ;;  uc_data         1    0[COMMON] unsigned char 
  6883 ;; Return value:  Size  Location     Type
  6884 ;;		None               void
  6885 ;; Registers used:
  6886 ;;		wreg
  6887 ;; Tracked objects:
  6888 ;;		On entry : 0/0
  6889 ;;		On exit  : 0/0
  6890 ;;		Unchanged: 0/0
  6891 ;; Data sizes:     COMMON   BANK0   BANK1   BANK3   BANK2
  6892 ;;      Params:         0       0       0       0       0
  6893 ;;      Locals:         1       0       0       0       0
  6894 ;;      Temps:          0       0       0       0       0
  6895 ;;      Totals:         1       0       0       0       0
  6896 ;;Total ram usage:        1 bytes
  6897 ;; Hardware stack levels used:    1
  6898 ;; This function calls:
  6899 ;;		Nothing
  6900 ;; This function is called by:
  6901 ;;		_switch_channel
  6902 ;;		_adjust_channel
  6903 ;;		_decrease_chan
  6904 ;;		_increase_chan
  6905 ;;		_send_dec
  6906 ;;		_adjust_vol
  6907 ;;		_uart_init
  6908 ;;		_uart_sendstr
  6909 ;; This function uses a non-reentrant model
  6910 ;;
  6911                           psect	text594,local,class=CODE,delta=2,merge=1
  6912                           global __ptext594
  6913  0B04                     __ptext594:
  6914                           psect	text594
  6915                           	file	"PR31_final.c"
  6916                           	line	528
  6917                           	global	__size_of_uart_tx
  6918  000C                     	__size_of_uart_tx	equ	__end_of_uart_tx-_uart_tx
  6919                           	
  6920  0B04                     _uart_tx:	
  6921                           	opt	stack 6
  6922                           ; Regs used in _uart_tx: [wreg]
  6923                           ;uart_tx@uc_data stored from wreg
  6924  0B04  00F0               	movwf	(uart_tx@uc_data)
  6925                           	line	529
  6926                           	
  6927  0B05                     l1748:	
  6928                           ;PR31_final.c: 529: while (TXIF == 0);
  6929  0B05  2B06               	goto	l400
  6930                           	
  6931  0B06                     l401:	
  6932                           	
  6933  0B06                     l400:	
  6934  0B06  1283               	bcf	status, 5	;RP0=0, select bank0
  6935  0B07  1303               	bcf	status, 6	;RP1=0, select bank0
  6936  0B08  1E0C               	btfss	(100/8),(100)&7	;volatile
  6937  0B09  2B0B               	goto	u1521
  6938  0B0A  2B0C               	goto	u1520
  6939  0B0B                     u1521:
  6940  0B0B  2B06               	goto	l400
  6941  0B0C                     u1520:
  6942  0B0C  2B0D               	goto	l1750
  6943                           	
  6944  0B0D                     l402:	
  6945                           	line	530
  6946                           	
  6947  0B0D                     l1750:	
  6948                           ;PR31_final.c: 530: TXREG = uc_data;
  6949  0B0D  0870               	movf	(uart_tx@uc_data),w
  6950  0B0E  0099               	movwf	(25)	;volatile
  6951                           	line	531
  6952                           	
  6953  0B0F                     l403:	
  6954  0B0F  0008               	return
  6955                           	opt stack 0
  6956                           GLOBAL	__end_of_uart_tx
  6957  0B10                     	__end_of_uart_tx:
  6958                           	signat	_uart_tx,4216
  6959                           	global	_send_char
  6960                           
  6961 ;; *************** function _send_char *****************
  6962 ;; Defined at:
  6963 ;;		line 474 in file "PR31_final.c"
  6964 ;; Parameters:    Size  Location     Type
  6965 ;;  RC4             1    wreg     unsigned char 
  6966 ;; Auto vars:     Size  Location     Type
  6967 ;;  RC4             1    8[COMMON] unsigned char 
  6968 ;; Return value:  Size  Location     Type
  6969 ;;		None               void
  6970 ;; Registers used:
  6971 ;;		wreg, status,2, status,0, pclath, cstack
  6972 ;; Tracked objects:
  6973 ;;		On entry : 0/0
  6974 ;;		On exit  : 0/0
  6975 ;;		Unchanged: 0/0
  6976 ;; Data sizes:     COMMON   BANK0   BANK1   BANK3   BANK2
  6977 ;;      Params:         0       0       0       0       0
  6978 ;;      Locals:         1       0       0       0       0
  6979 ;;      Temps:          0       0       0       0       0
  6980 ;;      Totals:         1       0       0       0       0
  6981 ;;Total ram usage:        1 bytes
  6982 ;; Hardware stack levels used:    1
  6983 ;; Hardware stack levels required when called:    2
  6984 ;; This function calls:
  6985 ;;		_delay
  6986 ;;		_e_pulse
  6987 ;; This function is called by:
  6988 ;;		_switch_channel
  6989 ;;		_adjust_channel
  6990 ;;		_send_dec
  6991 ;;		_adjust_vol
  6992 ;;		_send_string
  6993 ;; This function uses a non-reentrant model
  6994 ;;
  6995                           psect	text595,local,class=CODE,delta=2,merge=1
  6996                           global __ptext595
  6997  0B59                     __ptext595:
  6998                           psect	text595
  6999                           	file	"PR31_final.c"
  7000                           	line	474
  7001                           	global	__size_of_send_char
  7002  0019                     	__size_of_send_char	equ	__end_of_send_char-_send_char
  7003                           	
  7004  0B59                     _send_char:	
  7005                           	opt	stack 4
  7006                           ; Regs used in _send_char: [wreg+status,2+status,0+pclath+cstack]
  7007                           ;send_char@RC4 stored from wreg
  7008  0B59  00F8               	movwf	(send_char@RC4)
  7009                           	line	475
  7010                           	
  7011  0B5A                     l1922:	
  7012                           ;PR31_final.c: 475: RB4=1;
  7013  0B5A  1283               	bcf	status, 5	;RP0=0, select bank0
  7014  0B5B  1303               	bcf	status, 6	;RP1=0, select bank0
  7015  0B5C  1606               	bsf	(52/8),(52)&7	;volatile
  7016                           	line	476
  7017                           	
  7018  0B5D                     l1924:	
  7019                           ;PR31_final.c: 476: PORTD=RC4;
  7020  0B5D  0878               	movf	(send_char@RC4),w
  7021  0B5E  0088               	movwf	(8)	;volatile
  7022                           	line	477
  7023                           	
  7024  0B5F                     l1926:	
  7025                           ;PR31_final.c: 477: delay(300);
  7026  0B5F  3000               	movlw	0
  7027  0B60  00F3               	movwf	(?_delay+3)
  7028  0B61  3000               	movlw	0
  7029  0B62  00F2               	movwf	(?_delay+2)
  7030  0B63  3001               	movlw	01h
  7031  0B64  00F1               	movwf	(?_delay+1)
  7032  0B65  302C               	movlw	02Ch
  7033  0B66  00F0               	movwf	(?_delay)
  7034                           
  7035  0B67  120A  118A  202B   	fcall	_delay
              120A  158A         
  7036                           	line	478
  7037                           	
  7038  0B6C                     l1928:	
  7039                           ;PR31_final.c: 478: e_pulse();
  7040  0B6C  120A  158A  241F   	fcall	_e_pulse
              120A  158A         
  7041                           	line	479
  7042                           	
  7043  0B71                     l375:	
  7044  0B71  0008               	return
  7045                           	opt stack 0
  7046                           GLOBAL	__end_of_send_char
  7047  0B72                     	__end_of_send_char:
  7048                           	signat	_send_char,4216
  7049                           	global	_e_pulse
  7050                           
  7051 ;; *************** function _e_pulse *****************
  7052 ;; Defined at:
  7053 ;;		line 481 in file "PR31_final.c"
  7054 ;; Parameters:    Size  Location     Type
  7055 ;;		None
  7056 ;; Auto vars:     Size  Location     Type
  7057 ;;		None
  7058 ;; Return value:  Size  Location     Type
  7059 ;;		None               void
  7060 ;; Registers used:
  7061 ;;		wreg, status,2, status,0, pclath, cstack
  7062 ;; Tracked objects:
  7063 ;;		On entry : 0/0
  7064 ;;		On exit  : 0/0
  7065 ;;		Unchanged: 0/0
  7066 ;; Data sizes:     COMMON   BANK0   BANK1   BANK3   BANK2
  7067 ;;      Params:         0       0       0       0       0
  7068 ;;      Locals:         0       0       0       0       0
  7069 ;;      Temps:          0       0       0       0       0
  7070 ;;      Totals:         0       0       0       0       0
  7071 ;;Total ram usage:        0 bytes
  7072 ;; Hardware stack levels used:    1
  7073 ;; Hardware stack levels required when called:    1
  7074 ;; This function calls:
  7075 ;;		_delay
  7076 ;; This function is called by:
  7077 ;;		_send_config
  7078 ;;		_send_char
  7079 ;; This function uses a non-reentrant model
  7080 ;;
  7081                           psect	text596,local,class=CODE,delta=2,merge=1
  7082                           global __ptext596
  7083  0C1F                     __ptext596:
  7084                           psect	text596
  7085                           	file	"PR31_final.c"
  7086                           	line	481
  7087                           	global	__size_of_e_pulse
  7088  0021                     	__size_of_e_pulse	equ	__end_of_e_pulse-_e_pulse
  7089                           	
  7090  0C1F                     _e_pulse:	
  7091                           	opt	stack 4
  7092                           ; Regs used in _e_pulse: [wreg+status,2+status,0+pclath+cstack]
  7093                           	line	482
  7094                           	
  7095  0C1F                     l1908:	
  7096                           ;PR31_final.c: 482: RB5=1;
  7097  0C1F  1283               	bcf	status, 5	;RP0=0, select bank0
  7098  0C20  1303               	bcf	status, 6	;RP1=0, select bank0
  7099  0C21  1686               	bsf	(53/8),(53)&7	;volatile
  7100                           	line	483
  7101                           	
  7102  0C22                     l1910:	
  7103                           ;PR31_final.c: 483: delay(300);
  7104  0C22  3000               	movlw	0
  7105  0C23  00F3               	movwf	(?_delay+3)
  7106  0C24  3000               	movlw	0
  7107  0C25  00F2               	movwf	(?_delay+2)
  7108  0C26  3001               	movlw	01h
  7109  0C27  00F1               	movwf	(?_delay+1)
  7110  0C28  302C               	movlw	02Ch
  7111  0C29  00F0               	movwf	(?_delay)
  7112                           
  7113  0C2A  120A  118A  202B   	fcall	_delay
              120A  158A         
  7114                           	line	484
  7115                           	
  7116  0C2F                     l1912:	
  7117                           ;PR31_final.c: 484: RB5=0;
  7118  0C2F  1283               	bcf	status, 5	;RP0=0, select bank0
  7119  0C30  1303               	bcf	status, 6	;RP1=0, select bank0
  7120  0C31  1286               	bcf	(53/8),(53)&7	;volatile
  7121                           	line	485
  7122                           ;PR31_final.c: 485: delay(300);
  7123  0C32  3000               	movlw	0
  7124  0C33  00F3               	movwf	(?_delay+3)
  7125  0C34  3000               	movlw	0
  7126  0C35  00F2               	movwf	(?_delay+2)
  7127  0C36  3001               	movlw	01h
  7128  0C37  00F1               	movwf	(?_delay+1)
  7129  0C38  302C               	movlw	02Ch
  7130  0C39  00F0               	movwf	(?_delay)
  7131                           
  7132  0C3A  120A  118A  202B   	fcall	_delay
              120A  158A         
  7133                           	line	486
  7134                           	
  7135  0C3F                     l378:	
  7136  0C3F  0008               	return
  7137                           	opt stack 0
  7138                           GLOBAL	__end_of_e_pulse
  7139  0C40                     	__end_of_e_pulse:
  7140                           	signat	_e_pulse,88
  7141                           	global	_delay
  7142                           
  7143 ;; *************** function _delay *****************
  7144 ;; Defined at:
  7145 ;;		line 462 in file "PR31_final.c"
  7146 ;; Parameters:    Size  Location     Type
  7147 ;;  RC4             4    0[COMMON] unsigned long 
  7148 ;; Auto vars:     Size  Location     Type
  7149 ;;		None
  7150 ;; Return value:  Size  Location     Type
  7151 ;;		None               void
  7152 ;; Registers used:
  7153 ;;		wreg
  7154 ;; Tracked objects:
  7155 ;;		On entry : 0/0
  7156 ;;		On exit  : 0/0
  7157 ;;		Unchanged: 0/0
  7158 ;; Data sizes:     COMMON   BANK0   BANK1   BANK3   BANK2
  7159 ;;      Params:         4       0       0       0       0
  7160 ;;      Locals:         0       0       0       0       0
  7161 ;;      Temps:          4       0       0       0       0
  7162 ;;      Totals:         8       0       0       0       0
  7163 ;;Total ram usage:        8 bytes
  7164 ;; Hardware stack levels used:    1
  7165 ;; This function calls:
  7166 ;;		Nothing
  7167 ;; This function is called by:
  7168 ;;		_main
  7169 ;;		_adjust_channel
  7170 ;;		_decrease_chan
  7171 ;;		_increase_chan
  7172 ;;		_send_dec
  7173 ;;		_adjust_vol
  7174 ;;		_ar1000_init
  7175 ;;		_setAR1000
  7176 ;;		_send_config
  7177 ;;		_send_char
  7178 ;;		_e_pulse
  7179 ;;		_lcd_clr
  7180 ;; This function uses a non-reentrant model
  7181 ;;
  7182                           psect	text597,local,class=CODE,delta=2,merge=1
  7183                           global __ptext597
  7184  002B                     __ptext597:
  7185                           psect	text597
  7186                           	file	"PR31_final.c"
  7187                           	line	462
  7188                           	global	__size_of_delay
  7189  0030                     	__size_of_delay	equ	__end_of_delay-_delay
  7190                           	
  7191  002B                     _delay:	
  7192                           	opt	stack 6
  7193                           ; Regs used in _delay: [wreg]
  7194                           	line	463
  7195                           	
  7196  002B                     l1728:	
  7197                           ;PR31_final.c: 463: for( ;RC4>0;RC4-=1);
  7198  002B  0873               	movf	(delay@RC4+3),w
  7199  002C  0472               	iorwf	(delay@RC4+2),w
  7200  002D  0471               	iorwf	(delay@RC4+1),w
  7201  002E  0470               	iorwf	(delay@RC4),w
  7202  002F  1D03               	skipz
  7203  0030  2832               	goto	u1471
  7204  0031  2833               	goto	u1470
  7205  0032                     u1471:
  7206  0032  2835               	goto	l1732
  7207  0033                     u1470:
  7208  0033  285A               	goto	l369
  7209                           	
  7210  0034                     l1730:	
  7211  0034  285A               	goto	l369
  7212                           	
  7213  0035                     l367:	
  7214                           	
  7215  0035                     l1732:	
  7216  0035  3001               	movlw	01h
  7217  0036  00F4               	movwf	((??_delay+0)+0)
  7218  0037  3000               	movlw	0
  7219  0038  00F5               	movwf	((??_delay+0)+0+1)
  7220  0039  3000               	movlw	0
  7221  003A  00F6               	movwf	((??_delay+0)+0+2)
  7222  003B  3000               	movlw	0
  7223  003C  00F7               	movwf	((??_delay+0)+0+3)
  7224  003D  0874               	movf	0+(??_delay+0)+0,w
  7225  003E  02F0               	subwf	(delay@RC4),f
  7226  003F  0875               	movf	1+(??_delay+0)+0,w
  7227  0040  1C03               	skipc
  7228  0041  0F75               	incfsz	1+(??_delay+0)+0,w
  7229  0042  2844               	goto	u1485
  7230  0043  2845               	goto	u1486
  7231  0044                     u1485:
  7232  0044  02F1               	subwf	(delay@RC4+1),f
  7233  0045                     u1486:
  7234  0045  0876               	movf	2+(??_delay+0)+0,w
  7235  0046  1C03               	skipc
  7236  0047  0F76               	incfsz	2+(??_delay+0)+0,w
  7237  0048  284A               	goto	u1487
  7238  0049  284B               	goto	u1488
  7239  004A                     u1487:
  7240  004A  02F2               	subwf	(delay@RC4+2),f
  7241  004B                     u1488:
  7242  004B  0877               	movf	3+(??_delay+0)+0,w
  7243  004C  1C03               	skipc
  7244  004D  0F77               	incfsz	3+(??_delay+0)+0,w
  7245  004E  2850               	goto	u1489
  7246  004F  2851               	goto	u1480
  7247  0050                     u1489:
  7248  0050  02F3               	subwf	(delay@RC4+3),f
  7249  0051                     u1480:
  7250                           
  7251  0051  0873               	movf	(delay@RC4+3),w
  7252  0052  0472               	iorwf	(delay@RC4+2),w
  7253  0053  0471               	iorwf	(delay@RC4+1),w
  7254  0054  0470               	iorwf	(delay@RC4),w
  7255  0055  1D03               	skipz
  7256  0056  2858               	goto	u1491
  7257  0057  2859               	goto	u1490
  7258  0058                     u1491:
  7259  0058  2835               	goto	l1732
  7260  0059                     u1490:
  7261  0059  285A               	goto	l369
  7262                           	
  7263  005A                     l368:	
  7264                           	line	464
  7265                           	
  7266  005A                     l369:	
  7267  005A  0008               	return
  7268                           	opt stack 0
  7269                           GLOBAL	__end_of_delay
  7270  005B                     	__end_of_delay:
  7271                           	signat	_delay,4216
  7272                           	global	___llmod
  7273                           
  7274 ;; *************** function ___llmod *****************
  7275 ;; Defined at:
  7276 ;;		line 5 in file "C:\Program Files (x86)\Microchip\xc8\v1.00\sources\llmod.c"
  7277 ;; Parameters:    Size  Location     Type
  7278 ;;  divisor         4    0[COMMON] unsigned long 
  7279 ;;  dividend        4    4[COMMON] unsigned long 
  7280 ;; Auto vars:     Size  Location     Type
  7281 ;;  counter         1    9[COMMON] unsigned char 
  7282 ;; Return value:  Size  Location     Type
  7283 ;;                  4    0[COMMON] unsigned long 
  7284 ;; Registers used:
  7285 ;;		wreg, status,2, status,0
  7286 ;; Tracked objects:
  7287 ;;		On entry : 0/0
  7288 ;;		On exit  : 0/0
  7289 ;;		Unchanged: 0/0
  7290 ;; Data sizes:     COMMON   BANK0   BANK1   BANK3   BANK2
  7291 ;;      Params:         8       0       0       0       0
  7292 ;;      Locals:         1       0       0       0       0
  7293 ;;      Temps:          1       0       0       0       0
  7294 ;;      Totals:        10       0       0       0       0
  7295 ;;Total ram usage:       10 bytes
  7296 ;; Hardware stack levels used:    1
  7297 ;; This function calls:
  7298 ;;		Nothing
  7299 ;; This function is called by:
  7300 ;;		_send_dec
  7301 ;; This function uses a non-reentrant model
  7302 ;;
  7303                           psect	text598,local,class=CODE,delta=2,merge=1
  7304                           global __ptext598
  7305  0CC7                     __ptext598:
  7306                           psect	text598
  7307                           	file	"C:\Program Files (x86)\Microchip\xc8\v1.00\sources\llmod.c"
  7308                           	line	5
  7309                           	global	__size_of___llmod
  7310  005C                     	__size_of___llmod	equ	__end_of___llmod-___llmod
  7311                           	
  7312  0CC7                     ___llmod:	
  7313                           	opt	stack 4
  7314                           ; Regs used in ___llmod: [wreg+status,2+status,0]
  7315                           	line	8
  7316                           	
  7317  0CC7                     l1764:	
  7318  0CC7  0873               	movf	(___llmod@divisor+3),w
  7319  0CC8  0472               	iorwf	(___llmod@divisor+2),w
  7320  0CC9  0471               	iorwf	(___llmod@divisor+1),w
  7321  0CCA  0470               	iorwf	(___llmod@divisor),w
  7322  0CCB  1903               	skipnz
  7323  0CCC  2CCE               	goto	u1541
  7324  0CCD  2CCF               	goto	u1540
  7325  0CCE                     u1541:
  7326  0CCE  2D19               	goto	l1780
  7327  0CCF                     u1540:
  7328                           	line	9
  7329                           	
  7330  0CCF                     l1766:	
  7331  0CCF  01F9               	clrf	(___llmod@counter)
  7332  0CD0  1403               	bsf	status,0
  7333  0CD1  0DF9               	rlf	(___llmod@counter),f
  7334                           	line	10
  7335  0CD2  2CE1               	goto	l1770
  7336                           	
  7337  0CD3                     l687:	
  7338                           	line	11
  7339                           	
  7340  0CD3                     l1768:	
  7341  0CD3  3001               	movlw	01h
  7342  0CD4  00F8               	movwf	(??___llmod+0)+0
  7343  0CD5                     u1555:
  7344  0CD5  1003               	clrc
  7345  0CD6  0DF0               	rlf	(___llmod@divisor),f
  7346  0CD7  0DF1               	rlf	(___llmod@divisor+1),f
  7347  0CD8  0DF2               	rlf	(___llmod@divisor+2),f
  7348  0CD9  0DF3               	rlf	(___llmod@divisor+3),f
  7349  0CDA  0BF8               	decfsz	(??___llmod+0)+0
  7350  0CDB  2CD5               	goto	u1555
  7351                           	line	12
  7352  0CDC  3001               	movlw	(01h)
  7353  0CDD  00F8               	movwf	(??___llmod+0)+0
  7354  0CDE  0878               	movf	(??___llmod+0)+0,w
  7355  0CDF  07F9               	addwf	(___llmod@counter),f
  7356  0CE0  2CE1               	goto	l1770
  7357                           	line	13
  7358                           	
  7359  0CE1                     l686:	
  7360                           	line	10
  7361                           	
  7362  0CE1                     l1770:	
  7363  0CE1  1FF3               	btfss	(___llmod@divisor+3),(31)&7
  7364  0CE2  2CE4               	goto	u1561
  7365  0CE3  2CE5               	goto	u1560
  7366  0CE4                     u1561:
  7367  0CE4  2CD3               	goto	l1768
  7368  0CE5                     u1560:
  7369  0CE5  2CE7               	goto	l1772
  7370                           	
  7371  0CE6                     l688:	
  7372  0CE6  2CE7               	goto	l1772
  7373                           	line	14
  7374                           	
  7375  0CE7                     l689:	
  7376                           	line	15
  7377                           	
  7378  0CE7                     l1772:	
  7379  0CE7  0873               	movf	(___llmod@divisor+3),w
  7380  0CE8  0277               	subwf	(___llmod@dividend+3),w
  7381  0CE9  1D03               	skipz
  7382  0CEA  2CF5               	goto	u1575
  7383  0CEB  0872               	movf	(___llmod@divisor+2),w
  7384  0CEC  0276               	subwf	(___llmod@dividend+2),w
  7385  0CED  1D03               	skipz
  7386  0CEE  2CF5               	goto	u1575
  7387  0CEF  0871               	movf	(___llmod@divisor+1),w
  7388  0CF0  0275               	subwf	(___llmod@dividend+1),w
  7389  0CF1  1D03               	skipz
  7390  0CF2  2CF5               	goto	u1575
  7391  0CF3  0870               	movf	(___llmod@divisor),w
  7392  0CF4  0274               	subwf	(___llmod@dividend),w
  7393  0CF5                     u1575:
  7394  0CF5  1C03               	skipc
  7395  0CF6  2CF8               	goto	u1571
  7396  0CF7  2CF9               	goto	u1570
  7397  0CF8                     u1571:
  7398  0CF8  2D08               	goto	l1776
  7399  0CF9                     u1570:
  7400                           	line	16
  7401                           	
  7402  0CF9                     l1774:	
  7403  0CF9  0870               	movf	(___llmod@divisor),w
  7404  0CFA  02F4               	subwf	(___llmod@dividend),f
  7405  0CFB  0871               	movf	(___llmod@divisor+1),w
  7406  0CFC  1C03               	skipc
  7407  0CFD  0F71               	incfsz	(___llmod@divisor+1),w
  7408  0CFE  02F5               	subwf	(___llmod@dividend+1),f
  7409  0CFF  0872               	movf	(___llmod@divisor+2),w
  7410  0D00  1C03               	skipc
  7411  0D01  0F72               	incfsz	(___llmod@divisor+2),w
  7412  0D02  02F6               	subwf	(___llmod@dividend+2),f
  7413  0D03  0873               	movf	(___llmod@divisor+3),w
  7414  0D04  1C03               	skipc
  7415  0D05  0F73               	incfsz	(___llmod@divisor+3),w
  7416  0D06  02F7               	subwf	(___llmod@dividend+3),f
  7417  0D07  2D08               	goto	l1776
  7418                           	
  7419  0D08                     l690:	
  7420                           	line	17
  7421                           	
  7422  0D08                     l1776:	
  7423  0D08  3001               	movlw	01h
  7424  0D09                     u1585:
  7425  0D09  1003               	clrc
  7426  0D0A  0CF3               	rrf	(___llmod@divisor+3),f
  7427  0D0B  0CF2               	rrf	(___llmod@divisor+2),f
  7428  0D0C  0CF1               	rrf	(___llmod@divisor+1),f
  7429  0D0D  0CF0               	rrf	(___llmod@divisor),f
  7430  0D0E  3EFF               	addlw	-1
  7431  0D0F  1D03               	skipz
  7432  0D10  2D09               	goto	u1585
  7433                           
  7434                           	line	18
  7435                           	
  7436  0D11                     l1778:	
  7437  0D11  3001               	movlw	low(01h)
  7438  0D12  02F9               	subwf	(___llmod@counter),f
  7439  0D13  1D03               	btfss	status,2
  7440  0D14  2D16               	goto	u1591
  7441  0D15  2D17               	goto	u1590
  7442  0D16                     u1591:
  7443  0D16  2CE7               	goto	l1772
  7444  0D17                     u1590:
  7445  0D17  2D19               	goto	l1780
  7446                           	
  7447  0D18                     l691:	
  7448  0D18  2D19               	goto	l1780
  7449                           	line	19
  7450                           	
  7451  0D19                     l685:	
  7452                           	line	20
  7453                           	
  7454  0D19                     l1780:	
  7455  0D19  0877               	movf	(___llmod@dividend+3),w
  7456  0D1A  00F3               	movwf	(?___llmod+3)
  7457  0D1B  0876               	movf	(___llmod@dividend+2),w
  7458  0D1C  00F2               	movwf	(?___llmod+2)
  7459  0D1D  0875               	movf	(___llmod@dividend+1),w
  7460  0D1E  00F1               	movwf	(?___llmod+1)
  7461  0D1F  0874               	movf	(___llmod@dividend),w
  7462  0D20  00F0               	movwf	(?___llmod)
  7463                           
  7464  0D21  2D22               	goto	l692
  7465                           	
  7466  0D22                     l1782:	
  7467                           	line	21
  7468                           	
  7469  0D22                     l692:	
  7470  0D22  0008               	return
  7471                           	opt stack 0
  7472                           GLOBAL	__end_of___llmod
  7473  0D23                     	__end_of___llmod:
  7474                           	signat	___llmod,8316
  7475                           	global	___lldiv
  7476                           
  7477 ;; *************** function ___lldiv *****************
  7478 ;; Defined at:
  7479 ;;		line 5 in file "C:\Program Files (x86)\Microchip\xc8\v1.00\sources\lldiv.c"
  7480 ;; Parameters:    Size  Location     Type
  7481 ;;  divisor         4    0[COMMON] unsigned long 
  7482 ;;  dividend        4    4[COMMON] unsigned long 
  7483 ;; Auto vars:     Size  Location     Type
  7484 ;;  quotient        4    9[COMMON] unsigned long 
  7485 ;;  counter         1   13[COMMON] unsigned char 
  7486 ;; Return value:  Size  Location     Type
  7487 ;;                  4    0[COMMON] unsigned long 
  7488 ;; Registers used:
  7489 ;;		wreg, status,2, status,0
  7490 ;; Tracked objects:
  7491 ;;		On entry : 0/0
  7492 ;;		On exit  : 0/0
  7493 ;;		Unchanged: 0/0
  7494 ;; Data sizes:     COMMON   BANK0   BANK1   BANK3   BANK2
  7495 ;;      Params:         8       0       0       0       0
  7496 ;;      Locals:         5       0       0       0       0
  7497 ;;      Temps:          1       0       0       0       0
  7498 ;;      Totals:        14       0       0       0       0
  7499 ;;Total ram usage:       14 bytes
  7500 ;; Hardware stack levels used:    1
  7501 ;; This function calls:
  7502 ;;		Nothing
  7503 ;; This function is called by:
  7504 ;;		_send_dec
  7505 ;; This function uses a non-reentrant model
  7506 ;;
  7507                           psect	text599,local,class=CODE,delta=2,merge=1
  7508                           global __ptext599
  7509  0DEF                     __ptext599:
  7510                           psect	text599
  7511                           	file	"C:\Program Files (x86)\Microchip\xc8\v1.00\sources\lldiv.c"
  7512                           	line	5
  7513                           	global	__size_of___lldiv
  7514  006E                     	__size_of___lldiv	equ	__end_of___lldiv-___lldiv
  7515                           	
  7516  0DEF                     ___lldiv:	
  7517                           	opt	stack 4
  7518                           ; Regs used in ___lldiv: [wreg+status,2+status,0]
  7519                           	line	9
  7520                           	
  7521  0DEF                     l1784:	
  7522  0DEF  3000               	movlw	0
  7523  0DF0  00FC               	movwf	(___lldiv@quotient+3)
  7524  0DF1  3000               	movlw	0
  7525  0DF2  00FB               	movwf	(___lldiv@quotient+2)
  7526  0DF3  3000               	movlw	0
  7527  0DF4  00FA               	movwf	(___lldiv@quotient+1)
  7528  0DF5  3000               	movlw	0
  7529  0DF6  00F9               	movwf	(___lldiv@quotient)
  7530                           
  7531                           	line	10
  7532  0DF7  0873               	movf	(___lldiv@divisor+3),w
  7533  0DF8  0472               	iorwf	(___lldiv@divisor+2),w
  7534  0DF9  0471               	iorwf	(___lldiv@divisor+1),w
  7535  0DFA  0470               	iorwf	(___lldiv@divisor),w
  7536  0DFB  1903               	skipnz
  7537  0DFC  2DFE               	goto	u1601
  7538  0DFD  2DFF               	goto	u1600
  7539  0DFE                     u1601:
  7540  0DFE  2E53               	goto	l1804
  7541  0DFF                     u1600:
  7542                           	line	11
  7543                           	
  7544  0DFF                     l1786:	
  7545  0DFF  01FD               	clrf	(___lldiv@counter)
  7546  0E00  1403               	bsf	status,0
  7547  0E01  0DFD               	rlf	(___lldiv@counter),f
  7548                           	line	12
  7549  0E02  2E11               	goto	l1790
  7550                           	
  7551  0E03                     l706:	
  7552                           	line	13
  7553                           	
  7554  0E03                     l1788:	
  7555  0E03  3001               	movlw	01h
  7556  0E04  00F8               	movwf	(??___lldiv+0)+0
  7557  0E05                     u1615:
  7558  0E05  1003               	clrc
  7559  0E06  0DF0               	rlf	(___lldiv@divisor),f
  7560  0E07  0DF1               	rlf	(___lldiv@divisor+1),f
  7561  0E08  0DF2               	rlf	(___lldiv@divisor+2),f
  7562  0E09  0DF3               	rlf	(___lldiv@divisor+3),f
  7563  0E0A  0BF8               	decfsz	(??___lldiv+0)+0
  7564  0E0B  2E05               	goto	u1615
  7565                           	line	14
  7566  0E0C  3001               	movlw	(01h)
  7567  0E0D  00F8               	movwf	(??___lldiv+0)+0
  7568  0E0E  0878               	movf	(??___lldiv+0)+0,w
  7569  0E0F  07FD               	addwf	(___lldiv@counter),f
  7570  0E10  2E11               	goto	l1790
  7571                           	line	15
  7572                           	
  7573  0E11                     l705:	
  7574                           	line	12
  7575                           	
  7576  0E11                     l1790:	
  7577  0E11  1FF3               	btfss	(___lldiv@divisor+3),(31)&7
  7578  0E12  2E14               	goto	u1621
  7579  0E13  2E15               	goto	u1620
  7580  0E14                     u1621:
  7581  0E14  2E03               	goto	l1788
  7582  0E15                     u1620:
  7583  0E15  2E17               	goto	l1792
  7584                           	
  7585  0E16                     l707:	
  7586  0E16  2E17               	goto	l1792
  7587                           	line	16
  7588                           	
  7589  0E17                     l708:	
  7590                           	line	17
  7591                           	
  7592  0E17                     l1792:	
  7593  0E17  3001               	movlw	01h
  7594  0E18  00F8               	movwf	(??___lldiv+0)+0
  7595  0E19                     u1635:
  7596  0E19  1003               	clrc
  7597  0E1A  0DF9               	rlf	(___lldiv@quotient),f
  7598  0E1B  0DFA               	rlf	(___lldiv@quotient+1),f
  7599  0E1C  0DFB               	rlf	(___lldiv@quotient+2),f
  7600  0E1D  0DFC               	rlf	(___lldiv@quotient+3),f
  7601  0E1E  0BF8               	decfsz	(??___lldiv+0)+0
  7602  0E1F  2E19               	goto	u1635
  7603                           	line	18
  7604                           	
  7605  0E20                     l1794:	
  7606  0E20  0873               	movf	(___lldiv@divisor+3),w
  7607  0E21  0277               	subwf	(___lldiv@dividend+3),w
  7608  0E22  1D03               	skipz
  7609  0E23  2E2E               	goto	u1645
  7610  0E24  0872               	movf	(___lldiv@divisor+2),w
  7611  0E25  0276               	subwf	(___lldiv@dividend+2),w
  7612  0E26  1D03               	skipz
  7613  0E27  2E2E               	goto	u1645
  7614  0E28  0871               	movf	(___lldiv@divisor+1),w
  7615  0E29  0275               	subwf	(___lldiv@dividend+1),w
  7616  0E2A  1D03               	skipz
  7617  0E2B  2E2E               	goto	u1645
  7618  0E2C  0870               	movf	(___lldiv@divisor),w
  7619  0E2D  0274               	subwf	(___lldiv@dividend),w
  7620  0E2E                     u1645:
  7621  0E2E  1C03               	skipc
  7622  0E2F  2E31               	goto	u1641
  7623  0E30  2E32               	goto	u1640
  7624  0E31                     u1641:
  7625  0E31  2E42               	goto	l1800
  7626  0E32                     u1640:
  7627                           	line	19
  7628                           	
  7629  0E32                     l1796:	
  7630  0E32  0870               	movf	(___lldiv@divisor),w
  7631  0E33  02F4               	subwf	(___lldiv@dividend),f
  7632  0E34  0871               	movf	(___lldiv@divisor+1),w
  7633  0E35  1C03               	skipc
  7634  0E36  0F71               	incfsz	(___lldiv@divisor+1),w
  7635  0E37  02F5               	subwf	(___lldiv@dividend+1),f
  7636  0E38  0872               	movf	(___lldiv@divisor+2),w
  7637  0E39  1C03               	skipc
  7638  0E3A  0F72               	incfsz	(___lldiv@divisor+2),w
  7639  0E3B  02F6               	subwf	(___lldiv@dividend+2),f
  7640  0E3C  0873               	movf	(___lldiv@divisor+3),w
  7641  0E3D  1C03               	skipc
  7642  0E3E  0F73               	incfsz	(___lldiv@divisor+3),w
  7643  0E3F  02F7               	subwf	(___lldiv@dividend+3),f
  7644                           	line	20
  7645                           	
  7646  0E40                     l1798:	
  7647  0E40  1479               	bsf	(___lldiv@quotient)+(0/8),(0)&7
  7648  0E41  2E42               	goto	l1800
  7649                           	line	21
  7650                           	
  7651  0E42                     l709:	
  7652                           	line	22
  7653                           	
  7654  0E42                     l1800:	
  7655  0E42  3001               	movlw	01h
  7656  0E43                     u1655:
  7657  0E43  1003               	clrc
  7658  0E44  0CF3               	rrf	(___lldiv@divisor+3),f
  7659  0E45  0CF2               	rrf	(___lldiv@divisor+2),f
  7660  0E46  0CF1               	rrf	(___lldiv@divisor+1),f
  7661  0E47  0CF0               	rrf	(___lldiv@divisor),f
  7662  0E48  3EFF               	addlw	-1
  7663  0E49  1D03               	skipz
  7664  0E4A  2E43               	goto	u1655
  7665                           
  7666                           	line	23
  7667                           	
  7668  0E4B                     l1802:	
  7669  0E4B  3001               	movlw	low(01h)
  7670  0E4C  02FD               	subwf	(___lldiv@counter),f
  7671  0E4D  1D03               	btfss	status,2
  7672  0E4E  2E50               	goto	u1661
  7673  0E4F  2E51               	goto	u1660
  7674  0E50                     u1661:
  7675  0E50  2E17               	goto	l1792
  7676  0E51                     u1660:
  7677  0E51  2E53               	goto	l1804
  7678                           	
  7679  0E52                     l710:	
  7680  0E52  2E53               	goto	l1804
  7681                           	line	24
  7682                           	
  7683  0E53                     l704:	
  7684                           	line	25
  7685                           	
  7686  0E53                     l1804:	
  7687  0E53  087C               	movf	(___lldiv@quotient+3),w
  7688  0E54  00F3               	movwf	(?___lldiv+3)
  7689  0E55  087B               	movf	(___lldiv@quotient+2),w
  7690  0E56  00F2               	movwf	(?___lldiv+2)
  7691  0E57  087A               	movf	(___lldiv@quotient+1),w
  7692  0E58  00F1               	movwf	(?___lldiv+1)
  7693  0E59  0879               	movf	(___lldiv@quotient),w
  7694  0E5A  00F0               	movwf	(?___lldiv)
  7695                           
  7696  0E5B  2E5C               	goto	l711
  7697                           	
  7698  0E5C                     l1806:	
  7699                           	line	26
  7700                           	
  7701  0E5C                     l711:	
  7702  0E5C  0008               	return
  7703                           	opt stack 0
  7704                           GLOBAL	__end_of___lldiv
  7705  0E5D                     	__end_of___lldiv:
  7706                           	signat	___lldiv,8316
  7707                           psect	text600,local,class=CODE,delta=2,merge=1
  7708                           global __ptext600
  7709  0000                     __ptext600:
  7710                           	global	btemp
  7711  007E                     	btemp set 07Eh
  7712                           
  7713                           	DABS	1,126,2	;btemp
  7714                           	global	wtemp0
  7715  007E                     	wtemp0 set btemp


Data Sizes:
    Strings     104
    Constant    0
    Data        63
    BSS         13
    Persistent  0
    Stack       0

Auto Spaces:
    Space          Size  Autos    Used
    COMMON           14     14      14
    BANK0            80     44      74
    BANK1            80      0      46
    BANK3            96      0       0
    BANK2            96      0       0

Pointer List with Targets:

    ?_eprom_read	unsigned int  size(1) Largest target is 0

    ?___llmod	unsigned long  size(1) Largest target is 0

    ?___lldiv	unsigned long  size(1) Largest target is 0

    ?_ar_i2c_read	unsigned int  size(1) Largest target is 36
		 -> register_values(BANK1[36]), 

    uart_sendstr@s	PTR const unsigned char  size(1) Largest target is 21
		 -> STR_21(CODE[4]), STR_19(CODE[9]), STR_18(CODE[9]), STR_17(CODE[17]), 
		 -> STR_15(CODE[8]), STR_13(CODE[9]), STR_11(CODE[9]), STR_9(CODE[17]), 
		 -> STR_7(CODE[12]), STR_5(CODE[17]), STR_3(CODE[21]), 

    send_string@s	PTR const unsigned char  size(1) Largest target is 17
		 -> STR_20(CODE[4]), STR_16(CODE[17]), STR_14(CODE[8]), STR_12(CODE[9]), 
		 -> STR_10(CODE[9]), STR_8(CODE[17]), STR_6(CODE[12]), STR_4(CODE[17]), 
		 -> STR_2(CODE[14]), STR_1(CODE[7]), 


Critical Paths under _main in COMMON

    _main->_set_vol
    _uart_init->_uart_tx
    _ar1000_init->_ar_i2c_write
    _lcd_clr->_send_config
    _adjust_vol->_set_vol
    _set_vol->_ar_i2c_write
    _setAR1000->_ar_i2c_write
    _send_dec->___lldiv
    _send_string->_send_char
    _lcd_goto->_send_config
    _send_config->_delay
    _uart_sendstr->_uart_tx
    _send_char->_delay
    _e_pulse->_delay

Critical Paths under _main in BANK0

    _main->_adjust_channel
    _ar1000_init->_ar_i2c_read
    _adjust_channel->_decrease_chan
    _switch_channel->_send_dec
    _adjust_vol->_set_vol
    _decrease_chan->_send_dec
    _increase_chan->_send_dec
    _setAR1000->_ar_i2c_read

Critical Paths under _main in BANK1

    None.

Critical Paths under _main in BANK3

    None.

Critical Paths under _main in BANK2

    None.

Call Graph Tables:

 ---------------------------------------------------------------------------------
 (Depth) Function   	        Calls       Base Space   Used Autos Params    Refs
 ---------------------------------------------------------------------------------
 (0) _main                                                 4     4      0   13263
                                             40 BANK0      4     4      0
                              _delay
                        _send_config
                          _uart_init
                  _ar_i2c_initialize
                        _ar1000_init
                        _send_string
                           _lcd_goto
                       _uart_sendstr
                            _set_vol
                            _lcd_clr
                        _eeprom_read
                        _eprom_write
                     _switch_channel
                     _adjust_channel
                         _adjust_vol
 ---------------------------------------------------------------------------------
 (1) _ar_i2c_initialize                                    0     0      0       0
 ---------------------------------------------------------------------------------
 (1) _uart_init                                            0     0      0      22
                            _uart_tx
 ---------------------------------------------------------------------------------
 (1) _ar1000_init                                          6     6      0     454
                                              9 BANK0      6     6      0
                              _delay
                       _ar_i2c_write
                        _ar_i2c_read
 ---------------------------------------------------------------------------------
 (1) _eeprom_read                                          2     2      0      22
                                              0 COMMON     2     2      0
 ---------------------------------------------------------------------------------
 (1) _adjust_channel                                       6     6      0    8823
                                             34 BANK0      6     6      0
                      _decrease_chan
                              _delay
                      _increase_chan
                        _eprom_write
                            _lcd_clr
                        _send_string
                       _uart_sendstr
                          _send_char
                            _uart_tx
                           _send_dec
                     _switch_channel
                           _lcd_goto
                         _adjust_vol
 ---------------------------------------------------------------------------------
 (2) _eprom_write                                          3     1      2      45
                                              0 COMMON     3     1      2
 ---------------------------------------------------------------------------------
 (2) _switch_channel                                       1     1      0    2285
                                             30 BANK0      1     1      0
                            _lcd_clr
                        _send_string
                            _uart_tx
                       _uart_sendstr
                          _send_char
                         _eprom_read
                          _setAR1000
                           _send_dec
 ---------------------------------------------------------------------------------
 (3) _lcd_clr                                              0     0      0     157
                        _send_config
                              _delay
 ---------------------------------------------------------------------------------
 (1) _adjust_vol                                           3     3      0     650
                                              4 BANK0      3     3      0
                           _lcd_goto
                          _send_char
                            _uart_tx
                              _delay
                            _set_vol
 ---------------------------------------------------------------------------------
 (2) _set_vol                                              5     5      0     200
                                             13 COMMON     1     1      0
                                              0 BANK0      4     4      0
                       _ar_i2c_write
 ---------------------------------------------------------------------------------
 (3) _eprom_read                                           5     3      2      45
                                              0 COMMON     5     3      2
 ---------------------------------------------------------------------------------
 (2) _decrease_chan                                        4     4      0    1836
                                             30 BANK0      4     4      0
                          _setAR1000
                            _uart_tx
                       _uart_sendstr
                           _send_dec
                              _delay
 ---------------------------------------------------------------------------------
 (2) _increase_chan                                        0     0      0    1836
                          _setAR1000
                            _uart_tx
                       _uart_sendstr
                           _send_dec
                              _delay
 ---------------------------------------------------------------------------------
 (3) _setAR1000                                            5     3      2     387
                                              9 BANK0      5     3      2
                       _ar_i2c_write
                        _ar_i2c_read
                              _delay
 ---------------------------------------------------------------------------------
 (4) _ar_i2c_read                                         15    13      2     185
                                              0 COMMON     6     4      2
                                              0 BANK0      9     9      0
 ---------------------------------------------------------------------------------
 (3) _ar_i2c_write                                        13     8      5     134
                                              0 COMMON    13     8      5
 ---------------------------------------------------------------------------------
 (3) _send_dec                                            32    28      4    1315
                                              0 BANK0     30    26      4
                            ___lldiv
                            ___llmod
                           _lcd_goto
                        _send_string
                       _uart_sendstr
                          _send_char
                            _uart_tx
                              _delay
 ---------------------------------------------------------------------------------
 (4) _send_string                                          3     3      0     180
                                              9 COMMON     3     3      0
                          _send_char
 ---------------------------------------------------------------------------------
 (2) _lcd_goto                                             2     2      0     201
                                              9 COMMON     2     2      0
                        _send_config
 ---------------------------------------------------------------------------------
 (3) _send_config                                          1     1      0     112
                                              8 COMMON     1     1      0
                              _delay
                            _e_pulse
 ---------------------------------------------------------------------------------
 (4) _uart_sendstr                                         2     2      0      67
                                              1 COMMON     2     2      0
                            _uart_tx
 ---------------------------------------------------------------------------------
 (2) _uart_tx                                              1     1      0      22
                                              0 COMMON     1     1      0
 ---------------------------------------------------------------------------------
 (2) _send_char                                            1     1      0     112
                                              8 COMMON     1     1      0
                              _delay
                            _e_pulse
 ---------------------------------------------------------------------------------
 (3) _e_pulse                                              0     0      0      45
                              _delay
 ---------------------------------------------------------------------------------
 (2) _delay                                                8     4      4      45
                                              0 COMMON     8     4      4
 ---------------------------------------------------------------------------------
 (4) ___llmod                                             10     2      8     159
                                              0 COMMON    10     2      8
 ---------------------------------------------------------------------------------
 (4) ___lldiv                                             14     6      8     162
                                              0 COMMON    14     6      8
 ---------------------------------------------------------------------------------
 Estimated maximum stack depth 4
 ---------------------------------------------------------------------------------

 Call Graph Graphs:

 _main (ROOT)
   _delay
   _send_config
     _delay
     _e_pulse
       _delay
   _uart_init
     _uart_tx
   _ar_i2c_initialize
   _ar1000_init
     _delay
     _ar_i2c_write
     _ar_i2c_read
   _send_string
     _send_char
       _delay
       _e_pulse
         _delay
   _lcd_goto
     _send_config
       _delay
       _e_pulse
         _delay
   _uart_sendstr
     _uart_tx
   _set_vol
     _ar_i2c_write
   _lcd_clr
     _send_config
       _delay
       _e_pulse
         _delay
     _delay
   _eeprom_read
   _eprom_write
   _switch_channel
     _lcd_clr
       _send_config
         _delay
         _e_pulse
           _delay
       _delay
     _send_string
       _send_char
         _delay
         _e_pulse
           _delay
     _uart_tx
     _uart_sendstr
       _uart_tx
     _send_char
       _delay
       _e_pulse
         _delay
     _eprom_read
     _setAR1000
       _ar_i2c_write
       _ar_i2c_read
       _delay
     _send_dec
       ___lldiv
       ___llmod
       _lcd_goto
         _send_config
           _delay
           _e_pulse
             _delay
       _send_string
         _send_char
           _delay
           _e_pulse
             _delay
       _uart_sendstr
         _uart_tx
       _send_char
         _delay
         _e_pulse
           _delay
       _uart_tx
       _delay
   _adjust_channel
     _decrease_chan
       _setAR1000
         _ar_i2c_write
         _ar_i2c_read
         _delay
       _uart_tx
       _uart_sendstr
         _uart_tx
       _send_dec
         ___lldiv
         ___llmod
         _lcd_goto
           _send_config
             _delay
             _e_pulse
               _delay
         _send_string
           _send_char
             _delay
             _e_pulse
               _delay
         _uart_sendstr
           _uart_tx
         _send_char
           _delay
           _e_pulse
             _delay
         _uart_tx
         _delay
       _delay
     _delay
     _increase_chan
       _setAR1000
         _ar_i2c_write
         _ar_i2c_read
         _delay
       _uart_tx
       _uart_sendstr
         _uart_tx
       _send_dec
         ___lldiv
         ___llmod
         _lcd_goto
           _send_config
             _delay
             _e_pulse
               _delay
         _send_string
           _send_char
             _delay
             _e_pulse
               _delay
         _uart_sendstr
           _uart_tx
         _send_char
           _delay
           _e_pulse
             _delay
         _uart_tx
         _delay
       _delay
     _eprom_write
     _lcd_clr
       _send_config
         _delay
         _e_pulse
           _delay
       _delay
     _send_string
       _send_char
         _delay
         _e_pulse
           _delay
     _uart_sendstr
       _uart_tx
     _send_char
       _delay
       _e_pulse
         _delay
     _uart_tx
     _send_dec
       ___lldiv
       ___llmod
       _lcd_goto
         _send_config
           _delay
           _e_pulse
             _delay
       _send_string
         _send_char
           _delay
           _e_pulse
             _delay
       _uart_sendstr
         _uart_tx
       _send_char
         _delay
         _e_pulse
           _delay
       _uart_tx
       _delay
     _switch_channel
       _lcd_clr
         _send_config
           _delay
           _e_pulse
             _delay
         _delay
       _send_string
         _send_char
           _delay
           _e_pulse
             _delay
       _uart_tx
       _uart_sendstr
         _uart_tx
       _send_char
         _delay
         _e_pulse
           _delay
       _eprom_read
       _setAR1000
         _ar_i2c_write
         _ar_i2c_read
         _delay
       _send_dec
         ___lldiv
         ___llmod
         _lcd_goto
           _send_config
             _delay
             _e_pulse
               _delay
         _send_string
           _send_char
             _delay
             _e_pulse
               _delay
         _uart_sendstr
           _uart_tx
         _send_char
           _delay
           _e_pulse
             _delay
         _uart_tx
         _delay
     _lcd_goto
       _send_config
         _delay
         _e_pulse
           _delay
     _adjust_vol
       _lcd_goto
         _send_config
           _delay
           _e_pulse
             _delay
       _send_char
         _delay
         _e_pulse
           _delay
       _uart_tx
       _delay
       _set_vol
         _ar_i2c_write
   _adjust_vol
     _lcd_goto
       _send_config
         _delay
         _e_pulse
           _delay
     _send_char
       _delay
       _e_pulse
         _delay
     _uart_tx
     _delay
     _set_vol
       _ar_i2c_write

 Address spaces:
Name               Size   Autos  Total    Cost      Usage
BANK3               60      0       0       9        0.0%
BITBANK3            60      0       0       8        0.0%
SFR3                 0      0       0       4        0.0%
BITSFR3              0      0       0       4        0.0%
BANK2               60      0       0      11        0.0%
BITBANK2            60      0       0      10        0.0%
SFR2                 0      0       0       5        0.0%
BITSFR2              0      0       0       5        0.0%
BANK1               50      0      2E       7       57.5%
BITBANK1            50      0       0       6        0.0%
SFR1                 0      0       0       2        0.0%
BITSFR1              0      0       0       2        0.0%
BANK0               50     2C      4A       5       92.5%
BITBANK0            50      0       0       4        0.0%
SFR0                 0      0       0       1        0.0%
BITSFR0              0      0       0       1        0.0%
COMMON               E      E       E       1      100.0%
BITCOMMON            E      0       0       0        0.0%
CODE                 0      0       0       0        0.0%
DATA                 0      0      8D      12        0.0%
ABS                  0      0      86       3        0.0%
NULL                 0      0       0       0        0.0%
STACK                0      0       7       2        0.0%
EEDATA             100      0       0       0        0.0%


HI-TECH Software PICC Macro Assembler V1.00 build 12136 
Symbol Table                                                                                   Sat Jun 30 10:08:05 2012

                            _i 0067                              _m 0068                              pc 0002  
                           _BF 04A0                             l50 0403                             l51 0409  
                           l43 0B1F                             l60 0432                             l52 0418  
                           l61 0429                             l53 040F                             l70 0454  
                           l62 0429                             l54 040F                             l46 03F9  
                           l71 044B                             l63 042E                             l55 0414  
                           l47 03F9                             l80 0499                             l72 044B  
                           l64 0434                             l56 051D                             l48 03FE  
                           l81 04A4                             l73 0450                             l65 0434  
                           l57 041D                             l49 0403                             l90 04ED  
                           l82 04A4                             l74 0492                             l66 0439  
                           l58 041D                             l91 04F8                             l83 04A8  
                           l75 0460                             l67 043F                             l59 0423  
                           l92 04F8                             l84 04E6                             l76 0492  
                           l68 043F                             l93 04FC                             l85 04B4  
                           l77 0489                             l69 0445                             l94 04FE  
                           l86 04E6                             l78 0489                             l95 04FE  
                           l87 04DD                             l79 048E                             l96 0503  
                           l88 04DD                             l89 04E2                             l99 0EF1  
                           _RD 0C60                             _WR 0C61                             _v1 00A0  
                           _v2 004C                             fsr 0004                 send_config@RC4 0078  
            setAR1000@freq_kHz 0029                            l100 0EF1                            l101 0EF6  
                          l110 0F12                            l102 0EFB                            l111 0F12  
                          l103 0EFB                            l120 0F3B                            l112 0F18  
                          l104 0F01                            l121 0F35                            l113 0F24  
                          l105 0F0D                            l130 0F51                            l122 0F35  
                          l114 0F1E                            l106 0F07                            l131 0F54  
                          l123 0F3A                            l115 0F1E                            l107 0F07  
                          l132 0F54                            l124 0F40                            l116 0F23  
                          l108 0F0C                            l300 063F                            l133 0F59  
                          l125 0F40                            l117 0F29                            l109 0F59  
                          l301 0632                            l126 0F46                            l118 0F29  
                          l310 0647                            l302 05B3                            l127 0F52  
                          l119 0F2F                            l311 064C                            l303 0624  
                          l400 0B06                            l128 0F4C                            l312 0669  
                          l304 060D                            l401 0B06                            l129 0F4C  
                          l321 0DB2                            l313 066A                            l305 060D  
                          l402 0B0D                            l322 0DEE                            l330 0105  
                          l314 066A                            l306 0614                            l403 0B0F  
                          l307 0639                            l420 0C09                            l340 014A  
                          l308 0668                            l413 0C8B                            l325 07B8  
                          l317 0E96                            l421 0C0E                            l341 018E  
                          l333 0106                            l309 0647                            l414 0C7A  
                          l326 07F2                            l318 0ED2                            l422 0C1E  
                          l350 01B0                            l334 01A1                            l342 0166  
                          l270 039B                            l415 0C98                            l327 07FF  
                          l343 0166                            l335 0133                            l271 03A8  
                          l416 0C98                            l344 016B                            l336 015E  
                          l280 03EA                            l272 03C0                            l361 0274  
                          l345 017A                            l337 0139                            l425 0BDA  
                          l441 0BE1                            l353 0F8D                            l281 03EB  
                          l273 03B0                            l362 024E                            l346 0196  
                          l338 0139                            l426 0BDA                            l290 0564  
                          l442 0BE9                            l354 0FC0                            l282 03EB  
                          l274 03B0                            l363 027D                            l419 0C09  
                          l347 01B0                            l339 013E                            l427 0BDF  
                          l291 054A                            l443 0BFE                            l355 0FF6  
                          l275 03B5                            l372 0B8A                            l364 02C1  
                          l348 01A8                            l428 0BDF                            l292 0527  
                          l356 0FD0                            l276 03E9                            l268 0363  
                          l381 0BB4                            l349 01AF                            l285 0D33  
                          l293 053C                            l357 0FFF                            l277 03C8  
                          l269 03A8                            l710 0E52                            l382 0BC1  
                          l390 0007                            l286 0D86                            l294 0551  
                          l358 0FFF                            l278 03C8                            l711 0E5C  
                          l367 0035                            l375 0B71                            l383 0BC1  
                          l295 05AA                            l279 03CD                            l704 0E53  
                          l368 005A                            l392 0029                            l296 0590  
                          l705 0E11                            l369 005A                            l393 002A  
                          l297 056D                            l289 051E                            l706 0E03  
                          l378 0C3F                            l394 002A                            l386 0BA4  
                          l298 0582                            l707 0E16                            l299 0597  
                          l708 0E17                            l709 0E42                            l389 0018  
                          l397 0B58                            l690 0D08                            l691 0D18  
                          l692 0D22                            l685 0D19                            l686 0CE1  
                          l687 0CD3                            l688 0CE6                            l689 0CE7  
                          _RB0 0030                            _RB1 0031                            _RB2 0032  
                          _RB3 0033                            _RB4 0034                            _RB5 0035  
                          _PEN 048A                            _SEN 0488                            _STC 0065  
                          _R_W 04A2                    lcd_goto@RC4 007A                            fsr0 0004  
                          _vol 0069                            indf 0000                           l2000 075E  
                         l2010 07AD                           l2002 0797                           l2012 07B7  
                         l2020 07F2                           l2004 079D                           l2100 0582  
                         l2014 07B8                           l2006 07A3                           l2030 0D38  
                         l2022 0D23                           l2110 05B0                           l2102 0590  
                         l2016 07E0                           l2008 07A9                           l2040 0D5C  
                         l2032 0D3E                           l2024 0D29                           l2120 05F1  
                         l2112 05B3                           l2104 0597                           l2200 03A1  
                         l2018 07E8                           l2050 0E96                           l2042 0D6C  
                         l2034 0D44                           l2026 0D2F                           l2122 05F7  
                         l2114 05C2                           l2130 0624                           l2106 059C  
                         l2210 03CD                           l2202 03AF                           l2060 0EC5  
                         l2052 0EA1                           l2044 0D77                           l2036 0D4A  
                         l2028 0D33                           l2140 064C                           l2124 05FD  
                         l2116 05D3                           l2132 0632                           l2108 05AA  
                         l2212 03D3                           l2204 03B5                           l2070 0DC3  
                         l2062 0D87                           l2054 0EA7                           l2046 0E5D  
                         l2038 0D53                           l2142 0652                           l2134 0639  
                         l2126 0614                           l2118 05D9                           l2214 03D9  
                         l2206 03C0                           l2150 02C2                           l2072 0DC9  
                         l2064 0DA9                           l2056 0EAD                           l2048 0E8D  
                         l2144 0658                           l2128 0616                           l2136 063F  
                         l2080 0527                           l2216 03DF                           l2208 03C7  
                         l2160 02D9                           l2152 02CF                           l2074 0DD2  
                         l2066 0DB2                           l2058 0EB6                           l2146 065E  
                         l2138 0646                           l2090 0556                           l2082 0536  
                         l2218 03E3                           l2170 0314                           l2162 02DA  
                         l2154 02D3                           l1700 050F                           l2076 0DE1  
                         l2068 0DBD                           l2148 0662                           l2084 053C  
                         l2092 0564                           l1620 0B14                           l2180 0344  
                         l2172 031A                           l2164 0303                           l2156 02D5  
                         l1710 0EED                           l1702 0516                           l2094 056A  
                         l2086 054A                           l2078 0524                           l1630 0B1C  
                         l1622 0B16                           l2190 0362                           l2182 034A  
                         l2174 0320                           l2166 0308                           l2158 02D6  
                         l1800 0E42                           l1720 0F24                           l1712 0EF6  
                         l1704 051D                           l1640 03F5                           l2096 056D  
                         l2088 0551                           l1632 0B1D                           l1624 0B19  
                         l2192 0363                           l2184 0350                           l2176 0326  
                         l2168 030E                           l1802 0E4B                           l1730 0034  
                         l1722 0F33                           l1714 0F05                           l1706 0ED4  
                         l1650 0418                           l1642 03FE                           l2098 057C  
                         l1810 0B47                           l1634 0B1E                           l1626 0B1A  
                         l1618 0B10                           l2194 0377                           l2186 0356  
                         l2178 0333                           l1804 0E53                           l1732 0035  
                         l1724 0F3B                           l1716 0F0D                           l1708 0EE9  
                         l1660 0449                           l1652 0427                           l1644 040D  
                         l1636 03F1                           l1900 027D                           l1740 0BCF  
                         l1820 0B51                           l1812 0B49                           l1628 0B1B  
                         l2196 0389                           l2188 035B                           l1806 0E5C  
                         l1910 0C22                           l1750 0B0D                           l1726 0F4A  
                         l1718 0F1C                           l1670 0485                           l1662 0450  
                         l1654 042E                           l1646 0414                           l1638 03F3  
                         l1902 0283                           l1742 0BD2                           l1734 0BE9  
                         l1830 0F8C                           l1822 0B52                           l1814 0B4C  
                         l2198 039B                           l1728 002B                           l1912 0C2F  
                         l1920 0B85                           l1680 04A2                           l1672 048E  
                         l1664 0453                           l1656 0431                           l1648 0417  
                         l1904 0292                           l1760 0C17                           l1752 0C00  
                         l1744 0BD7                           l1736 0BFE                           l1840 0FD0  
                         l1832 0F8D                           l1824 0F5A                           l1816 0B4D  
                         l1808 0B44                           l1770 0CE1                           l1922 0B5A  
                         l1850 0C7A                           l1914 0B73                           l1930 0005  
                         l1690 04E5                           l1682 04A9                           l1674 0491  
                         l1666 0455                           l1658 0439                           l1906 02B3  
                         l1762 0C1E                           l1754 0C04                           l1746 0BD8  
                         l1738 0BC3                           l1842 0FE4                           l1834 0FAA  
                         l1826 0F78                           l1818 0B50                           l1772 0CE7  
                         l1780 0D19                           l1764 0CC7                           l1908 0C1F  
                         l1924 0B5D                           l1748 0B05                           l1852 0C86  
                         l1916 0B76                           l1940 0BA6                           l1932 0007  
                         l1692 04ED                           l1684 04B4                           l1676 0499  
                         l1668 0460                           l1756 0C07                           l1860 0065  
                         l1844 0FE8                           l1836 0FB2                           l1828 0F7E  
                         l1790 0E11                           l1782 0D22                           l1774 0CF9  
                         l1766 0CCF                           l1926 0B5F                           l1854 0C8B  
                         l1918 0B78                           l1942 0BAC                           l1934 0013  
                         l1694 04F3                           l1686 04D9                           l1678 049F  
                         l1758 0C0E                           l1870 00F0                           l1862 0074  
                         l1950 0109                           l1846 0FF6                           l1838 0FC0  
                         l1792 0E17                           l1784 0DEF                           l1776 0D08  
                         l1768 0CD3                           l1928 0B6C                           l1848 0C6D  
                         l1944 0BB4                           l1936 0018                           l1696 04F6  
                         l1688 04E2                           l1880 01E5                           l1872 01B1  
                         l1864 009E                           l1856 005C                           l1960 0138  
                         l1952 010F                           l1794 0E20                           l1786 0DFF  
                         l1778 0D11                           l1946 0BB9                           l1938 001C  
                         l1698 0503                           l1890 0236                           l1882 01EB  
                         l1874 01B9                           l1866 00B2                           l1858 0062  
                         l1970 0150                           l1962 013E                           l1954 0115  
                         l1796 0E32                           l1788 0E03                           l1892 024E  
                         l1884 01FF                           l1876 01BC                           l1868 00DC  
                         l1980 0175                           l1964 0140                           l1972 015E  
                         l1956 011C                           l1948 0B8B                           l1798 0E40  
                         l1894 0262                           l1886 0202                           l1878 01CB  
                         l1990 0196                           l1982 017A                           l1974 0165  
                         l1966 0146                           l1958 0125                           l1896 0266  
                         l1888 0216                           l1984 0180                           l1976 016B  
                         l1968 014A                           l1992 01A1                           l1898 0274  
                         l1994 01A8                           l1978 016F                           l1986 018E  
                         l1996 066B                           l1988 0195                           l1998 0756  
                         STR_1 0863                           STR_2 080D                           STR_3 0806  
                         STR_4 082C                           STR_5 082C                           STR_6 083D  
                         STR_7 083D                           STR_8 081B                           STR_9 081B  
                         _BRGH 04C2                           _CREN 00C4                           u1100 03FD  
                         u1101 03FC                           u1110 0409                           u1111 0408  
                         u1200 044F                           u1120 040D                           u2000 0550  
                         u1201 044E                           u1121 040C                           u2001 054F  
                         u1210 047D                           u1130 0413                           u2010 056A  
                         u1131 0412                           u2011 0569                           u1300 04FC  
                         u1220 0485                           u1140 0423                           u2020 057C  
                         u2100 0361                           u1301 04FB                           u1221 0484  
                         u1141 0422                           u2021 057B                           u2101 0360  
                         u1310 0502                           u1230 048D                           u1150 0427  
                         u2030 0596                           u2110 0389                           u1311 0501  
                         u1231 048C                           u1215 0470                           u1151 0426  
                         u2031 0595                           u2111 0388                           u1400 0F2F  
                         u1320 0EE2                           u1240 0498                           u1216 0471  
                         u1160 042D                           u2040 05B0                           u2120 03A7  
                         u1401 0F2E                           u1241 0497                           u1217 0476  
                         u1161 042C                           u2041 05AF                           u2121 03A6  
                         u1410 0F33                           u1330 0EF5                           u1250 04A8  
                         u1218 0477                           u1170 0438                           u2050 05C2  
                         u2130 03AE                           u1411 0F32                           u1331 0EF4  
                         u1251 04A7                           u1219 047C                           u1171 0437  
                         u2051 05C1                           u2131 03AD                           u2115 0385  
                         u1420 0F39                           u1340 0F01                           u1260 04D1  
                         u1180 0445                           u2060 0613                           u1500 0BE8  
                         u2140 03B4                           u1421 0F38                           u1341 0F00  
                         u1325 0EDD                           u1181 0444                           u2061 0612  
                         u1501 0BE7                           u2141 03B3                           u1430 0F46  
                         u1350 0F05                           u1270 04D9                           u1190 0449  
                         u1510 0BDE                           u2070 0638                           u2150 03C6  
                         u1431 0F45                           u1351 0F04                           u1271 04D8  
                         u1191 0448                           u1511 0BDD                           u2071 0637  
                         u2151 03C5                           u1600 0DFF                           u1520 0B0C  
                         u1440 0F4A                           u1360 0F0B                           u1280 04E1  
                         u2080 0645                           u2160 03CC                           u1601 0DFE  
                         u1521 0B0B                           u1441 0F49                           u1361 0F0A  
                         u1281 04E0                           u1265 04C4                           u2081 0644  
                         u2161 03CB                           u1450 0F50                           u1370 0F18  
                         u1290 04EC                           u1266 04C5                           u1530 0C0D  
                         u2090 064B                           u1451 0F4F                           u1371 0F17  
                         u1291 04EB                           u1267 04CA                           u1531 0C0C  
                         u2091 064A                           u1620 0E15                           u1540 0CCF  
                         u1700 0C97                           u1460 0F58                           u1380 0F1C  
                         u1268 04CB                           u1621 0E14                           u1541 0CCE  
                         u1701 0C96                           u1461 0F57                           u1381 0F1B  
                         u1269 04D0                           u1470 0033                           u1390 0F22  
                         u1615 0E05                           u1471 0032                           u1391 0F21  
                         u1640 0E32                           u1560 0CE5                           u1480 0051  
                         u1800 0146                           u1641 0E31                           u1561 0CE4  
                         u1801 0145                           u1570 0CF9                           u1490 0059  
                         u1730 027C                           u1810 0164                           u1635 0E19  
                         u1571 0CF8                           u1555 0CD5                           u1491 0058  
                         u1731 027B                           u1715 007F                           u1811 0163  
                         u1660 0E51                           u1900 07B6                           u1820 016A  
                         u1661 0E50                           u1645 0E2E                           u1485 0044  
                         u1901 07B5                           u1725 00BD                           u1821 0169  
                         u1590 0D17                           u1486 0045                           u1750 001C  
                         u1830 0175                           u1670 0F8B                           u1655 0E43  
                         u1591 0D16                           u1575 0CF5                           u1487 004A  
                         u1831 0174                           u1671 0F8A                           u1488 004B  
                         u1760 0028                           u1840 0194                           u1680 0FBF  
                         u1585 0D09                           u1489 0050                           u1761 0027  
                         u1745 02A5                           u1841 0193                           u1681 0FBE  
                         u1770 0BAC                           u1930 07F1                           u1850 01A7  
                         u1690 0FFE                           u1771 0BAB                           u1931 07F0  
                         u1915 07BB                           u1691 0FFD                           u1675 0F87  
                         u1860 0693                           u1780 0137                           u1940 0D2F  
                         u1925 07D0                           u1861 0694                           u1781 0136  
                         u1941 0D2E                           u1685 0FBB                           u1870 06EB  
                         u1862 0699                           u1950 0E7B                           u1790 013D  
                         u1871 06EC                           u1863 069A                           u1791 013C  
                         u1880 0743                           u1872 06F1                           u1960 0E8D  
                         u1881 0744                           u1873 06F2                           u1961 0E8C  
                         u1890 0784                           u1882 0749                           u1970 0DA9  
                         u1891 0785                           u1883 074A                           u1971 0DA8  
                         u1955 0E6E                           u1892 078A                           u1956 0E6F  
                         u1980 0524                           u1893 078B                           u1965 0E89  
                         u1957 0E74                           u1981 0523                           u1958 0E75  
                         u1990 0536                           u1975 0DA5                           u1959 0E7A  
                         u1991 0535                           _RCEN 048B                           _RCIF 0065  
                         _OERR 00C1                           _WCOL 00A7                           _SPEN 00C7  
                         _RSEN 0489                           _WREN 0C62                           _TXEN 04C5  
                         _TXIF 0064                           _main 02C2                           btemp 007E  
                ??_ar1000_init 0029                           start 0000    ar_i2c_read@ar_slave_address 0024  
         __size_of_ar_i2c_read 0130                   ?_eprom_write 0070          __end_of_decrease_chan 0ED3  
               _adjust_channel 051E                          ?_main 0070                          _ACKEN 048C  
                        _ACKDT 048D                          _EEADR 010D                          STR_10 0852  
                        STR_11 0849                          STR_12 0852                          STR_20 086A  
                        STR_13 0852                          STR_21 086A                          STR_14 085B  
                        STR_15 085B                          STR_16 081B                          STR_17 081B  
                        STR_18 0852                          STR_19 0852                          _EEPGD 0C67  
              __end_of___lldiv 0E5D                __end_of___llmod 0D23                          _RCREG 001A  
                        _SPBRG 0099                          _PORTA 0005                          _PORTB 0006  
                        _PORTD 0008                          _SSPM0 00A0                          _SSPM1 00A1  
                        _SSPM2 00A2                          _SSPM3 00A3                          _TRISA 0085  
                        _TRISB 0086                          _TRISD 0088                          _SSPEN 00A5  
                        _SSPOV 00A6                          _TXREG 0019                __end_of_e_pulse 0C40  
       __size_of_increase_chan 0068                __end_of_lcd_clr 0BA5                          _delay 002B  
                        pclath 000A                __end_of_set_vol 0106                __end_of_uart_tx 0B10  
                        status 0003                          wtemp0 007E         ar_i2c_read@ar_register 0070  
                 __end_of_main 03EE         __end_of_adjust_channel 066B            __end_of_ar1000_init 1000  
                       ??_main 0048          __size_of_ar_i2c_write 0087                         ?_delay 0070  
                 ?_send_config 0070         eprom_write@channel_adr 0072               ___llmod@dividend 0074  
                       _EEDATA 010C                         _EECON1 018C                         _EECON2 018D  
                 ar1000_init@i 002D                   ?_send_string 0070                         _SSPADD 0093  
                       _TRISC3 043B                         _TRISC4 043C                         _TRISC6 043E  
                       _TRISC7 043F                         _SSPBUF 0013                  _increase_chan 0D87  
         __size_of_eeprom_read 001F               __end_of_lcd_goto 0BC2                      ??___lldiv 0078  
                    ??___llmod 0078                ?_adjust_channel 0070                   _ar_i2c_write 0ED3  
                    ??_e_pulse 0078                      ??_lcd_clr 0079               __end_of_send_dec 0800  
                    ??_set_vol 0020                      ??_uart_tx 0070                eeprom_read@addr 0071  
                  _ar1000_init 0F5A                 ?_increase_chan 0070        ar_i2c_write@ar_register 0070  
               __pcstackCOMMON 0070                   __pidataBANK0 0B20                   __pidataBANK1 0C99  
                __end_of_delay 005B           __size_of_eprom_write 001E                        ??_delay 0074  
                   __pbssBANK0 005D             __size_of_setAR1000 0111                     _adjust_vol 0106  
                   __pmaintext 02C2             __size_of_send_char 0019                        _ACKSTAT 048E  
              _register_values 00AA             __size_of_uart_init 0015                    send_dec@RC4 0020  
                    ?_lcd_goto 0070        __size_of_switch_channel 0064           __size_of_send_config 0019  
              ??_increase_chan 007E           __size_of_send_string 0027                      ?_send_dec 0020  
                ??_ar_i2c_read 0072                     _eprom_read 0BFF                        ___lldiv 0DEF  
                      ___llmod 0CC7                        _e_pulse 0C1F              __end_of_setAR1000 02C2  
                      _lcd_clr 0B8B                        _set_vol 005B                        _uart_tx 0B04  
        adjust_vol@vol_default 0026                     ??_lcd_goto 0079           end_of_initialization 0C68  
            __end_of_send_char 0B72   ar_i2c_read@ar_received_byte1 0022   ar_i2c_read@ar_received_byte2 0023  
                      init_ram 0B35                    ?_adjust_vol 0070                  ?_uart_sendstr 0070  
       __size_of_decrease_chan 0076              __end_of_uart_init 0B59                ___lldiv@divisor 0070  
                   ??_send_dec 0024               ??_adjust_channel 007E                ___lldiv@counter 007D  
          __end_of_ar_i2c_read 051E                adjust_vol@check 0025            ar_i2c_write@ar_data 0071  
               ??_uart_sendstr 0071                  ??_eeprom_read 0070                   ?_ar1000_init 0070  
                  ?_eprom_read 0070                  _decrease_chan 0E5D            __size_of_adjust_vol 00AB  
          start_initialization 0C40          eprom_read@channel_adr 0074                 _switch_channel 0D23  
      adjust_channel@press_214 0044        adjust_channel@press_215 0046                ___llmod@divisor 0070  
              ___llmod@counter 0079                 _currentChannel 005D                    _ar_i2c_read 03EE  
          __end_of_eeprom_read 0BFF                    __pdataBANK0 004C                    __pdataBANK1 00A0  
                ??_eprom_write 0072                 ?_decrease_chan 0070         __end_of_switch_channel 0D87  
                __pcstackBANK0 0020            __size_of_eprom_read 0020              __size_of_lcd_goto 001D  
          eprom_write@fm_value 0070              __size_of_send_dec 0195                      __ptext600 0000  
                    __ptext580 0B8B                      __ptext581 0106                      __ptext573 0B10  
                    __ptext590 0004                      __ptext582 005B                      __ptext574 0B44  
                    __ptext591 0BA5                      __ptext583 0BFF                      __ptext575 0F5A  
                    __ptext592 0B72                      __ptext584 0E5D                      __ptext576 0BE0  
                    __ptext593 0C6C                      __ptext585 0D87                      __ptext577 051E  
                    __ptext594 0B04                      __ptext586 01B1                      __ptext578 0BC2  
                    __ptext595 0B59                      __ptext587 03EE                      __ptext579 0D23  
                    __ptext596 0C1F                      __ptext588 0ED3                      __ptext597 002B  
                    __ptext589 066B                      __ptext598 0CC7                      __ptext599 0DEF  
                     ?___lldiv 0070                       ?___llmod 0070                     send_dec@no 0028  
                     ?_e_pulse 0070                      __pstrings 0800                       ?_lcd_clr 0070  
         __end_of_uart_sendstr 0C99                      _setAR1000 01B1                ?_switch_channel 0070  
          __end_of_eprom_write 0BE0                       ?_set_vol 0070                       ?_uart_tx 0070  
                ??_send_config 0078                 __size_of_delay 0030             eprom_read@fm_value 0072  
                ??_send_string 0079                   ??_adjust_vol 0024            adjust_channel@press 0042  
  ar_i2c_read@ar_received_byte 0020                    _eeprom_read 0BE0                      _send_char 0B59  
                   set_vol@key 007D          __end_of_increase_chan 0DEF                   send_char@RC4 0078  
         __size_of_ar1000_init 00A6                      _uart_init 0B44                      _prog_chan 0056  
              ??_decrease_chan 003E                  ?_ar_i2c_write 0070                    __stringbase 0805  
           __end_of_adjust_vol 01B1                     ?_setAR1000 0029              _ar_i2c_initialize 0B10  
ar_i2c_write@ar_transmit_byte1 007B  ar_i2c_write@ar_transmit_byte2 007C            __end_of_send_config 0B8B  
           ?_ar_i2c_initialize 0070   ar_i2c_write@ar_slave_address 007A                     ?_send_char 0070  
                 send_string@i 007A                   send_string@s 007B            __end_of_send_string 002B  
                    init_fetch 0B31            ??_ar_i2c_initialize 0070                   ??_eprom_read 0072  
                   ?_uart_init 0070                 ??_ar_i2c_write 0075               __size_of___lldiv 006E  
             __size_of___llmod 005C                    _eprom_write 0BC2               __size_of_e_pulse 0021  
             __size_of_lcd_clr 001A               __size_of_set_vol 00AB      __end_of_ar_i2c_initialize 0B20  
             __size_of_uart_tx 000C                      send_dec@i 003C                       _lcd_goto 0BA5  
                     _freq_kHz 0061             __end_of_eprom_read 0C1F                       delay@RC4 0070  
                __size_of_main 012C                       _send_dec 066B                   ?_ar_i2c_read 0070  
        __size_of_uart_sendstr 002D        __size_of_adjust_channel 014D                    ??_setAR1000 002B  
                  _send_config 0B72                    _send_string 0004               ___lldiv@dividend 0074  
                 _uart_sendstr 0C6C                    ??_send_char 0078               ar_i2c_read@count 0025  
                    stringcode 0800                 uart_tx@uc_data 0070                    ??_uart_init 0071  
             ??_switch_channel 003E               ___lldiv@quotient 0079                       stringdir 0800  
                     stringtab 0800                  uart_sendstr@s 0072     __size_of_ar_i2c_initialize 0010  
         __end_of_ar_i2c_write 0F5A                   ?_eeprom_read 0070  
