HI-TECH Software XC8 Compiler V1.00 ()

Linker command line:

--edf=C:\Program Files (x86)\Microchip\xc8\v1.00\dat\en_msgs.txt -cs \
  -h+dist/default/production\P31_try.X.production.sym -z -Q16F877A -ol.obj \
  -Mdist/default/production/P31_try.X.production.map -E1 -ver=XC8 \
  -ACONST=00h-0FFhx32 -ACODE=00h-07FFhx4 -ASTRCODE=00h-01FFFh \
  -AENTRY=00h-0FFhx32 -ASTRING=00h-0FFhx32 -ACOMMON=070h-07Fh \
  -ABANK0=020h-06Fh -ABANK1=0A0h-0EFh -ABANK2=0110h-016Fh \
  -ABANK3=0190h-01EFh -ARAM=020h-06Fh,0A0h-0EFh,0110h-016Fh,0190h-01EFh \
  -AABS1=020h-07Fh,0A0h-0EFh,0110h-016Fh,0190h-01EFh -ASFR0=00h-01Fh \
  -ASFR1=080h-09Fh -ASFR2=0100h-010Fh -ASFR3=0180h-018Fh \
  -preset_vec=00h,intentry,init,end_init -ppowerup=CODE -pfunctab=CODE \
  -ACONFIG=02007h-02007h -pconfig=CONFIG -DCONFIG=2 -AIDLOC=02000h-02003h \
  -pidloc=IDLOC -DIDLOC=2 -AEEDATA=00h-0FFh/02100h -peeprom_data=EEDATA \
  -DEEDATA=2 -DCODE=2 -DSTRCODE=2 -DSTRING=2 -DCONST=2 -DENTRY=2 -k \
  C:\Users\Younce\AppData\Local\Temp\s45c.obj \
  dist/default/production\P31_try.X.production.obj 

Object code version is 3.10

Machine type is 16F877A



                Name                               Link     Load   Length Selector   Space Scale
C:\Users\Younce\AppData\Local\Temp\s45c.obj
                end_init                              0        0        3        0       0
dist/default/production\P31_try.X.production.obj
                config                             2007     2007        1     400E       0
                text599                             DEF      DEF       6E     1BDE       0
                text598                             CC7      CC7       5C     198E       0
                text597                              2B       2B       30       56       0
                text596                             C1F      C1F       21     183E       0
                text595                             B59      B59       19     16B2       0
                text594                             B04      B04        C     1608       0
                text593                             C6C      C6C       2D     18D8       0
                text592                             B72      B72       19     16E4       0
                text591                             BA5      BA5       1D     174A       0
                text590                               4        4       27        8       0
                text589                             66B      66B      195      CD6       0
                text588                             ED3      ED3       87     1DA6       0
                text587                             3EE      3EE      130      7DC       0
                text586                             1B1      1B1      111      362       0
                text585                             D87      D87       68     1B0E       0
                text584                             E5D      E5D       76     1CBA       0
                text583                             BFF      BFF       20     17FE       0
                text582                              5B       5B       AB       B6       0
                text581                             106      106       AB      20C       0
                text580                             B8B      B8B       1A     1716       0
                text579                             D23      D23       64     1A46       0
                text578                             BC2      BC2       1E     1784       0
                text577                             51E      51E      14D      A3C       0
                text576                             BE0      BE0       1F     17C0       0
                text575                             F5A      F5A       A6     1EB4       0
                text574                             B44      B44       15     1688       0
                text573                             B10      B10       10     1620       0
                maintext                            2C2      2C2      12C      584       0
                cstackBANK0                          20       20       2C       20       1
                cstackCOMMON                         70       70        E       70       1
                inittext                            B31      B31       13     1662       0
                dataBANK1                            A0       A0       2E       A0       1
                dataBANK0                            4C       4C       11       20       1
                bssBANK0                             5D       5D        D       20       1
                cinit                               C40      C40       2C     1880       0
                strings                             800      800       6E     1000       0
                idataBANK1                          C99      C99       2E     1932       0
                idataBANK0                          B20      B20       11     1640       0

TOTAL           Name                               Link     Load   Length     Space
        CLASS   CONST          

        CLASS   CODE           
                end_init                              0        0        3         0
                text599                             DEF      DEF       6E         0
                text598                             CC7      CC7       5C         0
                text597                              2B       2B       30         0
                text596                             C1F      C1F       21         0
                text595                             B59      B59       19         0
                text594                             B04      B04        C         0
                text593                             C6C      C6C       2D         0
                text592                             B72      B72       19         0
                text591                             BA5      BA5       1D         0
                text590                               4        4       27         0
                text589                             66B      66B      195         0
                text588                             ED3      ED3       87         0
                text587                             3EE      3EE      130         0
                text586                             1B1      1B1      111         0
                text585                             D87      D87       68         0
                text584                             E5D      E5D       76         0
                text583                             BFF      BFF       20         0
                text582                              5B       5B       AB         0
                text581                             106      106       AB         0
                text580                             B8B      B8B       1A         0
                text579                             D23      D23       64         0
                text578                             BC2      BC2       1E         0
                text577                             51E      51E      14D         0
                text576                             BE0      BE0       1F         0
                text575                             F5A      F5A       A6         0
                text574                             B44      B44       15         0
                text573                             B10      B10       10         0
                maintext                            2C2      2C2      12C         0
                inittext                            B31      B31       13         0
                cinit                               C40      C40       2C         0
                idataBANK1                          C99      C99       2E         0
                idataBANK0                          B20      B20       11         0

        CLASS   STRCODE        

        CLASS   ENTRY          

        CLASS   STRING         
                strings                             800      800       6E         0

        CLASS   COMMON         
                cstackCOMMON                         70       70        E         1

        CLASS   BANK0          
                cstackBANK0                          20       20       2C         1
                dataBANK0                            4C       4C       11         1
                bssBANK0                             5D       5D        D         1

        CLASS   BANK1          
                dataBANK1                            A0       A0       2E         1

        CLASS   BANK2          

        CLASS   BANK3          

        CLASS   RAM            

        CLASS   ABS1           
                abs_s1                               7E       7E        2         1

        CLASS   SFR0           

        CLASS   SFR1           

        CLASS   SFR2           

        CLASS   SFR3           

        CLASS   CONFIG         
                config                             2007     2007        1         0

        CLASS   IDLOC          

        CLASS   EEDATA         



SEGMENTS        Name                           Load    Length   Top    Selector   Space  Class     Delta

                reset_vec                      000000  000003  000003         0       0  CODE        2
                text590                        000004  000027  00002B         8       0  CODE        2
                cstackBANK0                    000020  00004A  00006A        20       1  BANK0       1
                text597                        00002B  000030  00005B        56       0  CODE        2
                cstackCOMMON                   000070  00000E  00007E        70       1  COMMON      1
                dataBANK1                      0000A0  00002E  0000CE        A0       1  BANK1       1
                text582                        00005B  0000AB  000106        B6       0  CODE        2
                text581                        000106  0000AB  0001B1       20C       0  CODE        2
                text586                        0001B1  000111  0002C2       362       0  CODE        2
                maintext                       0002C2  00012C  0003EE       584       0  CODE        2
                text587                        0003EE  000130  00051E       7DC       0  CODE        2
                text577                        00051E  00014D  00066B       A3C       0  CODE        2
                text589                        00066B  000195  000800       CD6       0  CODE        2
                strings                        000800  00006E  00086E      1000       0  STRING      2
                text594                        000B04  00000C  000B10      1608       0  CODE        2
                text573                        000B10  000010  000B20      1620       0  CODE        2
                idataBANK0                     000B20  000011  000B31      1640       0  CODE        2
                inittext                       000B31  000013  000B44      1662       0  CODE        2
                text574                        000B44  000015  000B59      1688       0  CODE        2
                text595                        000B59  000019  000B72      16B2       0  CODE        2
                text592                        000B72  000019  000B8B      16E4       0  CODE        2
                text580                        000B8B  00001A  000BA5      1716       0  CODE        2
                text591                        000BA5  00001D  000BC2      174A       0  CODE        2
                text578                        000BC2  00001E  000BE0      1784       0  CODE        2
                text576                        000BE0  00001F  000BFF      17C0       0  CODE        2
                text583                        000BFF  000020  000C1F      17FE       0  CODE        2
                text596                        000C1F  000021  000C40      183E       0  CODE        2
                cinit                          000C40  00002C  000C6C      1880       0  CODE        2
                text593                        000C6C  00002D  000C99      18D8       0  CODE        2
                idataBANK1                     000C99  00002E  000CC7      1932       0  CODE        2
                text598                        000CC7  00005C  000D23      198E       0  CODE        2
                text579                        000D23  000064  000D87      1A46       0  CODE        2
                text585                        000D87  000068  000DEF      1B0E       0  CODE        2
                text599                        000DEF  00006E  000E5D      1BDE       0  CODE        2
                text584                        000E5D  000076  000ED3      1CBA       0  CODE        2
                text588                        000ED3  000087  000F5A      1DA6       0  CODE        2
                text575                        000F5A  0000A6  001000      1EB4       0  CODE        2
                config                         002007  000001  002008      400E       0  CONFIG      2


UNUSED ADDRESS RANGES

        Name                Unused          Largest block    Delta
        BANK0            006A-006F              6           1
        BANK1            00CE-00EF             22           1
        BANK2            0110-016F             60           1
        BANK3            0190-01EF             60           1
        CODE             0003-0003              1           2
                         086E-0B03            296
                         1000-1FFF            800
        CONST            0003-0003              1           2
                         086E-0B03            100
                         1000-1FFF            100
        EEDATA           2100-21FF            100           2
        ENTRY            0003-0003              1           2
                         086E-0B03            100
                         1000-1FFF            100
        IDLOC            2000-2003              4           2
        RAM              006A-006F              6           1
                         00CE-00EF             22
                         0110-016F             60
                         0190-01EF             60
        SFR0             0000-001F             20           1
        SFR1             0080-009F             20           1
        SFR2             0100-010F             10           1
        SFR3             0180-018F             10           1
        STRCODE          0003-0003              1           2
                         086E-0B03            296
                         1000-1FFF           1000
        STRING           0003-0003              1           2
                         086E-0B03            100
                         1000-1FFF            100

                                  Symbol Table

??___lldiv                     cstackCOMMON 0078
??___llmod                     cstackCOMMON 0078
??_adjust_channel              cstackCOMMON 007E
??_adjust_vol                  cstackBANK0  0024
??_ar1000_init                 cstackBANK0  0029
??_ar_i2c_initialize           cstackCOMMON 0070
??_ar_i2c_read                 cstackCOMMON 0072
??_ar_i2c_write                cstackCOMMON 0075
??_decrease_chan               cstackBANK0  003E
??_delay                       cstackCOMMON 0074
??_e_pulse                     cstackCOMMON 0078
??_eeprom_read                 cstackCOMMON 0070
??_eprom_read                  cstackCOMMON 0072
??_eprom_write                 cstackCOMMON 0072
??_increase_chan               cstackCOMMON 007E
??_lcd_clr                     cstackCOMMON 0079
??_lcd_goto                    cstackCOMMON 0079
??_main                        cstackBANK0  0048
??_send_char                   cstackCOMMON 0078
??_send_config                 cstackCOMMON 0078
??_send_dec                    cstackBANK0  0024
??_send_string                 cstackCOMMON 0079
??_setAR1000                   cstackBANK0  002B
??_set_vol                     cstackBANK0  0020
??_switch_channel              cstackBANK0  003E
??_uart_init                   cstackCOMMON 0071
??_uart_sendstr                cstackCOMMON 0071
??_uart_tx                     cstackCOMMON 0070
?___lldiv                      cstackCOMMON 0070
?___llmod                      cstackCOMMON 0070
?_adjust_channel               cstackCOMMON 0070
?_adjust_vol                   cstackCOMMON 0070
?_ar1000_init                  cstackCOMMON 0070
?_ar_i2c_initialize            cstackCOMMON 0070
?_ar_i2c_read                  cstackCOMMON 0070
?_ar_i2c_write                 cstackCOMMON 0070
?_decrease_chan                cstackCOMMON 0070
?_delay                        cstackCOMMON 0070
?_e_pulse                      cstackCOMMON 0070
?_eeprom_read                  cstackCOMMON 0070
?_eprom_read                   cstackCOMMON 0070
?_eprom_write                  cstackCOMMON 0070
?_increase_chan                cstackCOMMON 0070
?_lcd_clr                      cstackCOMMON 0070
?_lcd_goto                     cstackCOMMON 0070
?_main                         cstackCOMMON 0070
?_send_char                    cstackCOMMON 0070
?_send_config                  cstackCOMMON 0070
?_send_dec                     cstackBANK0  0020
?_send_string                  cstackCOMMON 0070
?_setAR1000                    cstackBANK0  0029
?_set_vol                      cstackCOMMON 0070
?_switch_channel               cstackCOMMON 0070
?_uart_init                    cstackCOMMON 0070
?_uart_sendstr                 cstackCOMMON 0070
?_uart_tx                      cstackCOMMON 0070
_ACKDT                         (abs)        048D
_ACKEN                         (abs)        048C
_ACKSTAT                       (abs)        048E
_BF                            (abs)        04A0
_BRGH                          (abs)        04C2
_CREN                          (abs)        00C4
_EEADR                         (abs)        010D
_EECON1                        (abs)        018C
_EECON2                        (abs)        018D
_EEDATA                        (abs)        010C
_EEPGD                         (abs)        0C67
_OERR                          (abs)        00C1
_PEN                           (abs)        048A
_PORTA                         (abs)        0005
_PORTB                         (abs)        0006
_PORTD                         (abs)        0008
_RB0                           (abs)        0030
_RB1                           (abs)        0031
_RB2                           (abs)        0032
_RB3                           (abs)        0033
_RB4                           (abs)        0034
_RB5                           (abs)        0035
_RCEN                          (abs)        048B
_RCIF                          (abs)        0065
_RCREG                         (abs)        001A
_RD                            (abs)        0C60
_RSEN                          (abs)        0489
_R_W                           (abs)        04A2
_SEN                           (abs)        0488
_SPBRG                         (abs)        0099
_SPEN                          (abs)        00C7
_SSPADD                        (abs)        0093
_SSPBUF                        (abs)        0013
_SSPEN                         (abs)        00A5
_SSPM0                         (abs)        00A0
_SSPM1                         (abs)        00A1
_SSPM2                         (abs)        00A2
_SSPM3                         (abs)        00A3
_SSPOV                         (abs)        00A6
_STC                           bssBANK0     0065
_TRISA                         (abs)        0085
_TRISB                         (abs)        0086
_TRISC3                        (abs)        043B
_TRISC4                        (abs)        043C
_TRISC6                        (abs)        043E
_TRISC7                        (abs)        043F
_TRISD                         (abs)        0088
_TXEN                          (abs)        04C5
_TXIF                          (abs)        0064
_TXREG                         (abs)        0019
_WCOL                          (abs)        00A7
_WR                            (abs)        0C61
_WREN                          (abs)        0C62
__Habs1                        abs1         0000
__Hbank0                       bank0        0000
__Hbank1                       bank1        0000
__Hbank2                       bank2        0000
__Hbank3                       bank3        0000
__HbssBANK0                    bssBANK0     0000
__Hcinit                       cinit        0000
__Hclrtext                     clrtext      0000
__Hcode                        code         0000
__Hcommon                      common       0000
__Hconfig                      config       2008
__HcstackBANK0                 cstackBANK0  0000
__HcstackCOMMON                cstackCOMMON 0000
__HdataBANK0                   dataBANK0    0000
__HdataBANK1                   dataBANK1    0000
__Heeprom_data                 eeprom_data  0000
__Hend_init                    end_init     0003
__Hfunctab                     functab      0000
__HidataBANK0                  idataBANK0   0000
__HidataBANK1                  idataBANK1   0000
__Hidloc                       idloc        0000
__Hinit                        init         0000
__Hinittext                    inittext     0000
__Hintentry                    intentry     0000
__Hmaintext                    maintext     0000
__Hpowerup                     powerup      0000
__Hram                         ram          0000
__Hreset_vec                   reset_vec    0000
__Hsfr0                        sfr0         0000
__Hsfr1                        sfr1         0000
__Hsfr2                        sfr2         0000
__Hsfr3                        sfr3         0000
__Hstrings                     strings      0000
__Htext                        text         0000
__Labs1                        abs1         0000
__Lbank0                       bank0        0000
__Lbank1                       bank1        0000
__Lbank2                       bank2        0000
__Lbank3                       bank3        0000
__LbssBANK0                    bssBANK0     0000
__Lcinit                       cinit        0000
__Lclrtext                     clrtext      0000
__Lcode                        code         0000
__Lcommon                      common       0000
__Lconfig                      config       2007
__LcstackBANK0                 cstackBANK0  0000
__LcstackCOMMON                cstackCOMMON 0000
__LdataBANK0                   dataBANK0    0000
__LdataBANK1                   dataBANK1    0000
__Leeprom_data                 eeprom_data  0000
__Lend_init                    end_init     0000
__Lfunctab                     functab      0000
__LidataBANK0                  idataBANK0   0000
__LidataBANK1                  idataBANK1   0000
__Lidloc                       idloc        0000
__Linit                        init         0000
__Linittext                    inittext     0000
__Lintentry                    intentry     0000
__Lmaintext                    maintext     0000
__Lpowerup                     powerup      0000
__Lram                         ram          0000
__Lreset_vec                   reset_vec    0000
__Lsfr0                        sfr0         0000
__Lsfr1                        sfr1         0000
__Lsfr2                        sfr2         0000
__Lsfr3                        sfr3         0000
__Lstrings                     strings      0000
__Ltext                        text         0000
__S0                           (abs)        2008
__S1                           (abs)        00CE
__S2                           (abs)        0000
___lldiv                       text599      0DEF
___lldiv@counter               cstackCOMMON 007D
___lldiv@dividend              cstackCOMMON 0074
___lldiv@divisor               cstackCOMMON 0070
___lldiv@quotient              cstackCOMMON 0079
___llmod                       text598      0CC7
___llmod@counter               cstackCOMMON 0079
___llmod@dividend              cstackCOMMON 0074
___llmod@divisor               cstackCOMMON 0070
__end_of___lldiv               text599      0E5D
__end_of___llmod               text598      0D23
__end_of_adjust_channel        text577      066B
__end_of_adjust_vol            text581      01B1
__end_of_ar1000_init           text575      1000
__end_of_ar_i2c_initialize     text573      0B20
__end_of_ar_i2c_read           text587      051E
__end_of_ar_i2c_write          text588      0F5A
__end_of_decrease_chan         text584      0ED3
__end_of_delay                 text597      005B
__end_of_e_pulse               text596      0C40
__end_of_eeprom_read           text576      0BFF
__end_of_eprom_read            text583      0C1F
__end_of_eprom_write           text578      0BE0
__end_of_increase_chan         text585      0DEF
__end_of_lcd_clr               text580      0BA5
__end_of_lcd_goto              text591      0BC2
__end_of_main                  maintext     03EE
__end_of_send_char             text595      0B72
__end_of_send_config           text592      0B8B
__end_of_send_dec              text589      0800
__end_of_send_string           text590      002B
__end_of_setAR1000             text586      02C2
__end_of_set_vol               text582      0106
__end_of_switch_channel        text579      0D87
__end_of_uart_init             text574      0B59
__end_of_uart_sendstr          text593      0C99
__end_of_uart_tx               text594      0B10
__pbssBANK0                    bssBANK0     005D
__pcstackBANK0                 cstackBANK0  0020
__pcstackCOMMON                cstackCOMMON 0070
__pdataBANK0                   dataBANK0    004C
__pdataBANK1                   dataBANK1    00A0
__pidataBANK0                  idataBANK0   0B20
__pidataBANK1                  idataBANK1   0C99
__pmaintext                    maintext     02C2
__pstrings                     strings      0800
__ptext573                     text573      0B10
__ptext574                     text574      0B44
__ptext575                     text575      0F5A
__ptext576                     text576      0BE0
__ptext577                     text577      051E
__ptext578                     text578      0BC2
__ptext579                     text579      0D23
__ptext580                     text580      0B8B
__ptext581                     text581      0106
__ptext582                     text582      005B
__ptext583                     text583      0BFF
__ptext584                     text584      0E5D
__ptext585                     text585      0D87
__ptext586                     text586      01B1
__ptext587                     text587      03EE
__ptext588                     text588      0ED3
__ptext589                     text589      066B
__ptext590                     text590      0004
__ptext591                     text591      0BA5
__ptext592                     text592      0B72
__ptext593                     text593      0C6C
__ptext594                     text594      0B04
__ptext595                     text595      0B59
__ptext596                     text596      0C1F
__ptext597                     text597      002B
__ptext598                     text598      0CC7
__ptext599                     text599      0DEF
__ptext600                     text600      0000
__size_of___lldiv              (abs)        0000
__size_of___llmod              (abs)        0000
__size_of_adjust_channel       (abs)        0000
__size_of_adjust_vol           (abs)        0000
__size_of_ar1000_init          (abs)        0000
__size_of_ar_i2c_initialize    (abs)        0000
__size_of_ar_i2c_read          (abs)        0000
__size_of_ar_i2c_write         (abs)        0000
__size_of_decrease_chan        (abs)        0000
__size_of_delay                (abs)        0000
__size_of_e_pulse              (abs)        0000
__size_of_eeprom_read          (abs)        0000
__size_of_eprom_read           (abs)        0000
__size_of_eprom_write          (abs)        0000
__size_of_increase_chan        (abs)        0000
__size_of_lcd_clr              (abs)        0000
__size_of_lcd_goto             (abs)        0000
__size_of_main                 (abs)        0000
__size_of_send_char            (abs)        0000
__size_of_send_config          (abs)        0000
__size_of_send_dec             (abs)        0000
__size_of_send_string          (abs)        0000
__size_of_setAR1000            (abs)        0000
__size_of_set_vol              (abs)        0000
__size_of_switch_channel       (abs)        0000
__size_of_uart_init            (abs)        0000
__size_of_uart_sendstr         (abs)        0000
__size_of_uart_tx              (abs)        0000
_adjust_channel                text577      051E
_adjust_vol                    text581      0106
_ar1000_init                   text575      0F5A
_ar_i2c_initialize             text573      0B10
_ar_i2c_read                   text587      03EE
_ar_i2c_write                  text588      0ED3
_currentChannel                bssBANK0     005D
_decrease_chan                 text584      0E5D
_delay                         text597      002B
_e_pulse                       text596      0C1F
_eeprom_read                   text576      0BE0
_eprom_read                    text583      0BFF
_eprom_write                   text578      0BC2
_freq_kHz                      bssBANK0     0061
_i                             bssBANK0     0067
_increase_chan                 text585      0D87
_lcd_clr                       text580      0B8B
_lcd_goto                      text591      0BA5
_m                             bssBANK0     0068
_main                          maintext     02C2
_prog_chan                     dataBANK0    0056
_register_values               dataBANK1    00AA
_send_char                     text595      0B59
_send_config                   text592      0B72
_send_dec                      text589      066B
_send_string                   text590      0004
_setAR1000                     text586      01B1
_set_vol                       text582      005B
_switch_channel                text579      0D23
_uart_init                     text574      0B44
_uart_sendstr                  text593      0C6C
_uart_tx                       text594      0B04
_v1                            dataBANK1    00A0
_v2                            dataBANK0    004C
_vol                           bssBANK0     0069
adjust_channel@press           cstackBANK0  0042
adjust_channel@press_214       cstackBANK0  0044
adjust_channel@press_215       cstackBANK0  0046
adjust_vol@check               cstackBANK0  0025
adjust_vol@vol_default         cstackBANK0  0026
ar1000_init@i                  cstackBANK0  002D
ar_i2c_read@ar_received_byte   cstackBANK0  0020
ar_i2c_read@ar_received_byte1  cstackBANK0  0022
ar_i2c_read@ar_received_byte2  cstackBANK0  0023
ar_i2c_read@ar_register        cstackCOMMON 0070
ar_i2c_read@ar_slave_address   cstackBANK0  0024
ar_i2c_read@count              cstackBANK0  0025
ar_i2c_write@ar_data           cstackCOMMON 0071
ar_i2c_write@ar_register       cstackCOMMON 0070
ar_i2c_write@ar_slave_address  cstackCOMMON 007A
ar_i2c_write@ar_transmit_byte1 cstackCOMMON 007B
ar_i2c_write@ar_transmit_byte2 cstackCOMMON 007C
btemp                          (abs)        007E
delay@RC4                      cstackCOMMON 0070
eeprom_read@addr               cstackCOMMON 0071
end_of_initialization          cinit        0C68
eprom_read@channel_adr         cstackCOMMON 0074
eprom_read@fm_value            cstackCOMMON 0072
eprom_write@channel_adr        cstackCOMMON 0072
eprom_write@fm_value           cstackCOMMON 0070
init_fetch                     inittext     0B31
init_ram                       inittext     0B35
intlevel0                      functab      0000
intlevel1                      functab      0000
intlevel2                      functab      0000
intlevel3                      functab      0000
intlevel4                      functab      0000
intlevel5                      functab      0000
lcd_goto@RC4                   cstackCOMMON 007A
reset_vec                      reset_vec    0000
send_char@RC4                  cstackCOMMON 0078
send_config@RC4                cstackCOMMON 0078
send_dec@RC4                   cstackBANK0  0020
send_dec@i                     cstackBANK0  003C
send_dec@no                    cstackBANK0  0028
send_string@i                  cstackCOMMON 007A
send_string@s                  cstackCOMMON 007B
setAR1000@freq_kHz             cstackBANK0  0029
set_vol@key                    cstackCOMMON 007D
start                          init         0000
start_initialization           cinit        0C40
uart_sendstr@s                 cstackCOMMON 0072
uart_tx@uc_data                cstackCOMMON 0070
wtemp0                         (abs)        007E
